(iHMM
HiddenMarkovModel
p0
(dp1
S'A'
p2
(lp3
(lp4
F1.3778270657456778e-55
aF1.0430013806163204e-20
aF2.7305443572178526e-182
aF3.551612602004149e-42
aF4.331773181070821e-51
aF1.1702018243140062e-05
aF0.9020312386450475
aF3.513044024165196e-38
aF3.4292175797894544e-22
aF0.09760044880522324
aF6.737058782780405e-17
aF5.629816528385602e-81
aF0.00027826304009093725
aF1.2624615624652342e-14
aF7.83474913825171e-05
aF7.566101350504555e-174
aF1.0091187579173382e-37
aF6.470381060562741e-25
aF1.1210736134545495e-22
aF8.224890876585848e-109
aa(lp5
F1.0106795949595052e-87
aF0.18248714321458498
aF1.844348200151308e-179
aF2.5297083509595665e-24
aF9.17153591856268e-25
aF3.040542627612419e-25
aF2.23340540935893e-19
aF3.769478902972794e-35
aF0.04987236083004482
aF0.7598601604360015
aF2.7198900331663976e-33
aF2.9060549280146225e-74
aF0.003812016530573346
aF6.535787504806925e-30
aF0.003968318912544381
aF8.356734486755786e-133
aF7.624896814290962e-11
aF1.4405567675356603e-15
aF9.27913130743997e-25
aF9.063419187615877e-110
aa(lp6
F3.478296136403616e-300
aF9.440645274034748e-65
aF9.8012607843789e-37
aF4.870461067552661e-93
aF0.06417253119380974
aF0.09930765615785601
aF1.1830031617314518e-142
aF0.1051048695563798
aF0.09006684437260767
aF1.1384790324194057e-112
aF0.05040020295501693
aF6.187572233497625e-65
aF9.042560347059028e-260
aF0.15539532927935726
aF2.53e-321
aF1.690390855859799e-198
aF1.0520641092515656e-33
aF0.0
aF0.4355525664849724
aF3.6247145102524075e-180
aa(lp7
F1.0930767026926597e-97
aF5.613821141793039e-42
aF1.4185188286674335e-157
aF6.832478769192036e-34
aF1.139677453692989e-61
aF0.028503217463442976
aF7.239753548594924e-29
aF8.832566274171954e-56
aF3.252311247699403e-18
aF0.7746309593342926
aF0.1968658232022685
aF2.4955417508780578e-57
aF6.075864076982544e-40
aF3.1161350871814128e-27
aF2.5491997264099344e-21
aF1.5760573404525382e-150
aF9.52922336841804e-27
aF2.983799229345665e-45
aF2.372779353507911e-88
aF2.672291610703036e-164
aa(lp8
F7.319650348794376e-123
aF1.290128273270565e-62
aF2.152372806310164e-135
aF1.9980317760178106e-38
aF1.2919010594364677e-62
aF1.68168205286142e-31
aF4.5824614035443096e-61
aF0.0015628101085235161
aF1.521280096406439e-33
aF0.9984371898914748
aF2.9447182367697633e-58
aF5.670770704111439e-77
aF2.0448110226546787e-28
aF1.9936976970119157e-38
aF3.6277875489932627e-22
aF2.5334940315679883e-107
aF2.0272452145893802e-43
aF3.427543372293829e-30
aF2.4754527079569984e-25
aF1.709674595095963e-107
aa(lp9
F1.014118653161758e-24
aF2.1404577635293255e-137
aF3.451368507394547e-237
aF7.3479765419909e-132
aF1.2026360395393786e-157
aF6.587109698090378e-105
aF0.903303367127628
aF2.8032892737339165e-51
aF4.485351806789015e-25
aF3.0096804250529687e-60
aF0.021756271845525133
aF4.715515875397142e-49
aF5.9696805775806776e-30
aF0.04701016754406224
aF0.02793019348278077
aF1.4893506542078893e-208
aF5.0746039685166536e-33
aF5.868269949985601e-113
aF2.290445530834759e-95
aF3.3065717331281625e-177
aa(lp10
F0.0066813708979168406
aF0.015379571735848202
aF0.010339182163187655
aF8.438604829050051e-12
aF0.04562296328153078
aF0.009410628730374893
aF1.3951068428824675e-173
aF0.12244837459291323
aF1.4579713919040335e-08
aF0.030125810028358298
aF0.10958156623099355
aF0.37749226943371145
aF0.033508227047031304
aF0.024300395773087773
aF0.01650287338984981
aF4.662307841750207e-08
aF0.1351787175479649
aF0.01566490290187711
aF0.03004500650250248
aF0.01771807853162258
aa(lp11
F2.7148525590252987e-59
aF2.4558676928237535e-93
aF1.7482974103672665e-28
aF2.6301912417804243e-45
aF1.2428609374650935e-49
aF1.9959624118408246e-10
aF0.012577424419148981
aF0.023216083799106384
aF6.552127579743773e-48
aF0.2735472086057013
aF0.03161253760072141
aF8.411169147864202e-49
aF0.2381064032356767
aF7.3078220813719085e-65
aF0.39437051671709256
aF0.018903419675558353
aF3.0962855995964707e-76
aF2.429072103483989e-27
aF0.007666405747398007
aF2.8598896021471135e-82
aa(lp12
F1.0101538703020326e-10
aF5.561133703254142e-11
aF0.0
aF3.9582818836183183e-57
aF6.591545443007015e-50
aF2.5168038538000323e-11
aF4.550306135831922e-34
aF3.97348168273371e-84
aF2.3896237724436507e-24
aF0.007776584498338345
aF3.015247999783419e-32
aF1.0953833154302848e-79
aF0.2417142307467319
aF2.5288891372007653e-41
aF0.7505091845731386
aF9.628044825421643e-108
aF1.3489660806793285e-19
aF4.6764391552969986e-20
aF1.7250513764677697e-62
aF1.7374168342451152e-52
aa(lp13
F2.0128430041994343e-93
aF9.873001238665277e-40
aF2.1984164138693231e-16
aF8.807567342812403e-64
aF4.42124974176637e-23
aF2.100272427913666e-52
aF7.888689597615073e-47
aF3.492533057850634e-70
aF2.8497749815145835e-17
aF0.04557981145385588
aF3.8063371409913644e-50
aF2.4789631547641168e-85
aF0.25706727664497697
aF1.3343069265690802e-77
aF0.6318556722074642
aF9.432579229555981e-129
aF0.03349248320587955
aF0.03200475648781735
aF5.009363260600162e-148
aF2.9968720460757537e-173
aa(lp14
F0.03350462492637477
aF3.731725098718488e-22
aF1.1029438696332785e-55
aF0.019228864732211956
aF3.990230041778661e-12
aF0.08657554918757429
aF0.06003158466982008
aF5.712180450030431e-26
aF4.939196317449836e-07
aF5.0929625605622464e-33
aF0.009994985296775123
aF3.5284024147366402e-15
aF0.15084433566585703
aF7.520551579811134e-88
aF0.0030042911943376806
aF1.3685919685285644e-155
aF0.026116558042083154
aF0.6106987123613449
aF1.40608012688071e-44
aF4.2942899430030247e-97
aa(lp15
F0.004737947635498539
aF7.122129122854123e-11
aF9.575641406362059e-10
aF0.05856917634845886
aF7.231575371224565e-19
aF0.004729994763118491
aF1.6307775778730785e-36
aF0.02585644078587398
aF1.885056339054541e-24
aF3.207960183635817e-19
aF0.10620917087438841
aF0.2592590087178665
aF0.37539151906061197
aF5.0417395044820776e-09
aF3.965099366847603e-38
aF1.1729880938530129e-101
aF0.1593402475576687
aF1.3686743856514133e-16
aF0.005906488185991331
aF1.4044473613006613e-84
aa(lp16
F0.02730566954964385
aF0.039077286678295284
aF0.044663787153977216
aF3.396626535632393e-08
aF5.1677942919259075e-09
aF0.028144013312855667
aF5.9478731554431614e-182
aF0.23735612657064553
aF0.19237630097229505
aF0.0302283327870993
aF0.08668645037623972
aF0.049288998153113904
aF3.222953170967374e-26
aF0.05277474345223829
aF0.019209530107846567
aF2.7730748661933455e-41
aF0.023521852802656274
aF0.014943010337587692
aF0.05497184275755126
aF0.09945201585389674
aa(lp17
F1.812450062550695e-28
aF2.1042138592778675e-19
aF0.02442847097510632
aF5.489416908375605e-28
aF3.852696402096864e-44
aF0.14361949311196734
aF0.03803081775745922
aF0.07640087291238874
aF1.1299960987330081e-47
aF1.844848229716083e-06
aF7.295164162896333e-21
aF4.604992471016143e-27
aF3.9545828018762586e-38
aF0.2368727667865379
aF0.00033799117349693453
aF8.285695408250959e-75
aF1.3297199831404696e-55
aF2.287766887560952e-39
aF0.4803077424348044
aF1.209280006929175e-37
aa(lp18
F0.027233849830646185
aF1.0831047797899688e-29
aF0.006115758056680337
aF0.007681268615378839
aF5.49677821804693e-35
aF0.08273339757088483
aF0.01889716377315373
aF0.020043294282266116
aF3.9561174760734085e-19
aF0.011819747939763196
aF0.027490227154690853
aF7.732015974045147e-43
aF0.12593154690422154
aF0.01805360502848416
aF0.015328698004202666
aF5.785687920839046e-82
aF0.014303514529622764
aF0.6024919502758584
aF0.021875978034133166
aF5.7491682618933685e-15
aa(lp19
F5.492121832484939e-128
aF3.979410873703702e-40
aF0.16490557452594168
aF5.168805849508641e-43
aF1.1790541821553347e-55
aF2.5389772447772155e-26
aF6.653330115776099e-71
aF0.6222907983129341
aF4.47592755741263e-40
aF2.3227824371266667e-06
aF8.050705926123463e-36
aF7.964369123712899e-102
aF5.418966906770153e-91
aF0.10150762728387695
aF3.0107586092721787e-70
aF2.428525246720795e-134
aF7.713993000195065e-47
aF2.500982447492565e-87
aF0.11129367709480759
aF8.85518855698878e-132
aa(lp20
F9.170391724810353e-102
aF9.744831992827632e-50
aF2.8746518173472523e-200
aF3.526925749971307e-38
aF9.512859825207495e-60
aF3.5898355969421394e-49
aF1.0754547629837159e-41
aF1.6359145064230986e-75
aF4.7800536522340137e-29
aF0.05125684949208901
aF4.0073497379559432e-22
aF1.229235183729569e-38
aF2.2943462649979113e-19
aF1.5815547617306082e-49
aF0.9487431505079099
aF5.2482627434710584e-145
aF2.90907536093654e-25
aF1.1146624838191618e-26
aF2.4953357606015158e-70
aF6.055389560331399e-153
aa(lp21
F5.837519882769844e-22
aF7.399471298083083e-07
aF0.02565978908531006
aF5.299072097851497e-17
aF0.059446009782872684
aF0.011897520572640997
aF6.43116979590117e-97
aF0.03989780592348404
aF0.021230744144720815
aF0.020870036060954028
aF0.03865766688710207
aF0.23626429855966932
aF0.33157040543702304
aF0.046352494329187206
aF0.01274363528567151
aF0.02530803347678008
aF0.08082545507974245
aF0.008450014430686935
aF0.02781552730634185
aF0.013009823690677887
aa(lp22
F6.573232509502059e-104
aF3.950846347090771e-23
aF0.004200317210025463
aF0.0067003737609428096
aF0.012150988870833398
aF1.6937211906861109e-141
aF3.282086954086266e-143
aF0.17269871824336475
aF1.938860799220479e-08
aF0.02435377348325275
aF0.3317098205099415
aF0.19088055646925803
aF0.04687825586065506
aF0.023612700777639543
aF0.01971199287768361
aF1.5220197051576514e-134
aF0.132738479378068
aF0.03436400316972657
aF6.979774530611687e-123
aF3.652308150856414e-139
aa(lp23
F1.338468309879454e-49
aF9.515632341830566e-09
aF1.5809149323443924e-165
aF1.6863422006390604e-53
aF7.85691094176097e-31
aF0.07273834538622552
aF1.02839025518276e-07
aF1.6572801922630024e-13
aF4.2893061100115125e-41
aF6.486516822361831e-13
aF0.0783631393509079
aF5.157419141842563e-87
aF0.00046216164550278224
aF0.36935584711551855
aF6.307116661181295e-59
aF2.81266622547912e-119
aF8.421172627630835e-21
aF4.4008192769042536e-51
aF0.47908039414637676
aF1.6578082318038388e-43
aasS'map'
p24
(dp25
S'fawn'
p26
I3132
sS'succour'
p27
I3235
sS'pardon'
p28
I1753
sS"t'abide"
p29
I3400
sS'yellow'
p30
I2005
sS'four'
p31
I1479
sS'hath'
p32
I457
sS'woods'
p33
I3521
sS'sleep'
p34
I1432
sS'abide'
p35
I1022
sS"friend's"
p36
I1170
sS'hanging'
p37
I936
sS'mansion'
p38
I2355
sS'appetite'
p39
I1698
sS'evermore'
p40
I1310
sS'hate'
p41
I479
sS'poorly'
p42
I1648
sS'whose'
p43
I160
sS'feeding'
p44
I1702
sS'reposeth'
p45
I4029
sS'effectually'
p46
I2606
sS'granting'
p47
I2246
sS'love-learned'
p48
I3866
sS'sweetest'
p49
I1266
sS'boundless'
p50
I1865
sS'presents'
p51
I1037
sS'bays'
p52
I3669
sS'whatsoever'
p53
I1000
sS'under'
p54
I339
sS'lord'
p55
I980
sS'sorry'
p56
I797
sS'pride'
p57
I961
sS'sway'
p58
I1904
sS'worth'
p59
I99
sS'frowns'
p60
I2323
sS'amorous'
p61
I4240
sS'discased'
p62
I3202
sS'dispense'
p63
I2600
sS'void'
p64
I4258
sS'hadst'
p65
I1368
sS'lurk'
p66
I4189
sS'inhearse'
p67
I2225
sS"women's"
p68
I824
sS'every'
p69
I254
sS'foul'
p70
I2726
sS'nourished'
p71
I2021
sS"o'er-read"
p72
I2157
sS'wonts'
p73
I3805
sS'flys'
p74
I4212
sS'thenceforth'
p75
I3823
sS'perusal'
p76
I1342
sS'uttering'
p77
I1949
sS'prize'
p78
I1550
sS'sunk'
p79
I541
sS'cause'
p80
I1571
sS'graced'
p81
I2114
sS'harrowed'
p82
I4162
sS'relics'
p83
I3572
sS'succession'
p84
I139
sS'graces'
p85
I729
sS'triumph'
p86
I953
sS'enjoy'
p87
I1092
sS'charter'
p88
I1748
sS'force'
p89
I1696
sS'depraves'
p90
I3687
sS'tired'
p91
I1013
sS'razed'
p92
I972
sS'warns'
p93
I3270
sS'out-going'
p94
I379
sS'direct'
p95
I3731
sS'tires'
p96
I1651
sS'longwhile'
p97
I3965
sS'crave'
p98
I1737
sS'persuade'
p99
I876
sS'down-rased'
p100
I1848
sS'rigorous'
p101
I3402
sS'esteem'
p102
I2420
sS'quill'
p103
I2187
sS'even'
p104
I672
sS'beated'
p105
I1826
sS'captain'
p106
I1631
sS'hide'
p107
I1203
sS"ne'er"
p108
I736
sS'wreck'
p109
I4016
sS'solemn'
p110
I1624
sS'thunder'
p111
I631
sS'fingers'
p112
I2857
sS'liberty'
p113
I1388
sS"gild'st"
p114
I1067
sS'lowliness'
p115
I3421
sS'worser'
p116
I3057
sS'heart-thrilling'
p117
I3386
sS'above'
p118
I2229
sS'conduct'
p119
I3724
sS'matcheth'
p120
I1960
sS'new'
p121
I142
sS'net'
p122
I3768
sS'increasing'
p123
I1857
sS'ever'
p124
I816
sS'seeks'
p125
I3382
sS'told'
p126
I1492
sS'deemed'
p127
I2370
sS'sinks'
p128
I1482
sS"t'adorn"
p129
I3544
sS'men'
p130
I668
sS'here'
p131
I583
sS'herd'
p132
I554
sS'beck'
p133
I1740
sS"sweet'st"
p134
I2921
sS'pursuit'
p135
I2884
sS'humility'
p136
I3864
sS'active'
p137
I1320
sS'quite'
p138
I271
sS'a-doting'
p139
I845
sS'dry'
p140
I1236
sS'resty'
p141
I2421
sS'substance'
p142
I297
sS'daughter'
p143
I3802
sS'uplifting'
p144
I4307
sS'attending'
p145
I363
sS'leaves'
p146
I272
sS'climbed'
p147
I355
sS'credit'
p148
I2982
sS'smoke'
p149
I1230
sS'permit'
p150
I1198
sS'bettered'
p151
I2049
sS'mistake'
p152
I3123
sS'settled'
p153
I1564
sS'fell'
p154
I846
sS'mutual'
p155
I414
sS'golden'
p156
I191
sS'swearing'
p157
I3155
sS'divide'
p158
I1494
sS'blessed-fair'
p159
I2315
sS'sorrows'
p160
I1070
sS'patience'
p161
I1746
sS'guests'
p162
I4260
sS'stern'
p163
I2375
sS'glance'
p164
I2060
sS"light's"
p165
I38
sS'mote'
p166
I3465
sS'plot'
p167
I2972
sS'treading'
p168
I3417
sS'shiny'
p169
I3595
sS'would'
p170
I517
sS'to'
p171
I31
sS'gulls'
p172
I2237
sS'recured'
p173
I1483
sS'convertest'
p174
I506
sS'arms'
p175
I3959
sS'junes'
p176
I2475
sS'orpheus'
p177
I3874
sS'music'
p178
I386
sS'therefore'
p179
I886
sS'survive'
p180
I1157
sS'gilding'
p181
I832
sS'tell'
p182
I151
sS'breathe'
p183
I778
sS'leese'
p184
I300
sS'unbless'
p185
I163
sS'holy'
p186
I1145
sS'wary'
p187
I884
sS'brings'
p188
I1104
sS'infusion'
p189
I3645
sS'muse'
p190
I854
sS'pierced'
p191
I1500
sS'grief'
p192
I1242
sS'glass'
p193
I152
sS'warm'
p194
I146
sS'sting'
p195
I4326
sS'former'
p196
I1704
sS'excellent'
p197
I1336
sS'robbing'
p198
I1943
sS'workmanship'
p199
I3487
sS'ward'
p200
I2928
sS'hold'
p201
I592
sS'striving'
p202
I2460
sS'must'
p203
I240
sS'shoot'
p204
I2696
sS'join'
p205
I2277
sS'room'
p206
I1691
sS'err'
p207
I2902
sS'rights'
p208
I745
sS'work'
p209
I249
sS'eclipse'
p210
I2508
sS'roof'
p211
I485
sS'meadows'
p212
I1191
sS'ere'
p213
I306
sS'vow'
p214
I2274
sS'sharp'
p215
I1597
sS'leaped'
p216
I2404
sS'dost'
p217
I165
sS'revenues'
p218
I3029
sS'root'
p219
I1682
sS'example'
p220
I2197
sS'shook'
p221
I2469
sS'fresher'
p222
I2172
sS'wane'
p223
I502
sS'unjust'
p224
I2986
sS'dolphin'
p225
I3794
sS'laughs'
p226
I3996
sS'disparagement'
p227
I4136
sS'impair'
p228
I2192
sS"wand'rest"
p229
I776
sS'hardens'
p230
I3995
sS'immortally'
p231
I3888
sS'appearance'
p232
I1503
sS'story'
p233
I2201
sS'looser'
p234
I3550
sS'returned'
p235
I1487
sS'ceremony'
p236
I907
sS"consum'st"
p237
I434
sS'thing'
p238
I652
sS'provide'
p239
I2568
sS'dignifies'
p240
I2202
sS'travel'
p241
I1014
sS'feature'
p242
I2617
sS"th'only"
p243
I4359
sS'stint'
p244
I3879
sS'wights'
p245
I2493
sS'faults'
p246
I1269
sS'hot'
p247
I760
sS'writers'
p248
I2163
sS"glory's"
p249
I4039
sS'rashly'
p250
I3782
sS'answer'
p251
I130
sS'gate'
p252
I1101
sS'unwarily'
p253
I3458
sS'dignified'
p254
I2433
sS'construe'
p255
I3869
sS"o'er-snowed"
p256
I277
sS'blanks'
p257
I2087
sS'beauty'
p258
I105
sS'after'
p259
I596
sS'bared'
p260
I4362
sS'wrong'
p261
I813
sS'lay'
p262
I1426
sS'law'
p263
I3349
sS'lap'
p264
I2409
sS'wronk'
p265
I2271
sS'purchase'
p266
I3638
sS'attempt'
p267
I4310
sS'third'
p268
I4221
sS'scourge'
p269
I3600
sS"rud'st"
p270
I2614
sS'revolt'
p271
I2314
sS'greet'
p272
I1561
sS'purging'
p273
I1471
sS'wink'
p274
I1429
sS'maintain'
p275
I2768
sS'haste'
p276
I1011
sS'meekness'
p277
I3543
sS'steals'
p278
I840
sS'alack'
p279
I1215
sS'mightier'
p280
I691
sS'wouldst'
p281
I646
sS'wind'
p282
I629
sS'bed-vow'
p283
I3157
sS'determinate'
p284
I2244
sS'couplement'
p285
I857
sS'lords'
p286
I2336
sS'after-loss'
p287
I2278
sS'office'
p288
I2439
sS'deck'
p289
I3273
sS'consent'
p290
I1058
sS'over'
p291
I3532
sS'choose'
p292
I1863
sS'profaned'
p293
I2846
sS'sickly'
p294
I3104
sS'fortify'
p295
I695
sS'ghastly'
p296
I1038
sS'besiege'
p297
I83
sS'strangle'
p298
I2269
sS"bestow'st"
p299
I504
sS'wrought'
p300
I847
sS'before'
p301
I684
sS'wilt'
p302
I427
sS'fit'
p303
I3557
sS'heretofore'
p304
I4089
sS'thrust'
p305
I1533
sS'crew'
p306
I4071
sS'better'
p307
I1176
sS'fade'
p308
I771
sS'persist'
p309
I3300
sS'carve'
p310
I807
sS'hidden'
p311
I1151
sS'possessing'
p312
I2054
sS'then'
p313
I109
sS'them'
p314
I640
sS'blots'
p315
I1301
sS'enrich'
p316
I2095
sS'thee'
p317
I78
sS'safe'
p318
I3855
sS"truth's"
p319
I650
sS'break'
p320
I1099
sS"winter's"
p321
I304
sS'diseased'
p322
I2711
sS'they'
p323
I292
sS'glazed'
p324
I939
sS'one'
p325
I318
sS'silver'
p326
I1261
sS'shadows'
p327
I1436
sS'rhetoric'
p328
I2174
sS'meat'
p329
I3820
sS'brightness'
p330
I3140
sS'troublous'
p331
I3721
sS'princes'
p332
I633
sS'persever'
p333
I3344
sS'slavery'
p334
I2922
sS'rocks'
p335
I1877
sS'herald'
p336
I59
sS'good'
p337
I621
sS'victories'
p338
I970
sS'mead'
p339
I3972
sS'arrow'
p340
I3473
sS'each'
p341
I340
sS'wantonly'
p342
I1661
sS'dulness'
p343
I1710
sS'went'
p344
I1614
sS'side'
p345
I1507
sS'luck'
p346
I619
sS'true-telling'
p347
I2177
sS'wheel'
p348
I3497
sS'woes'
p349
I1113
sS'concord'
p350
I400
sS'innocent'
p351
I3909
sS"'will'"
p352
I2951
sS'spider'
p353
I4190
sS'taught'
p354
I1861
sS'forgot'
p355
I975
sS'misprision'
p356
I2252
sS'whit'
p357
I1220
sS'truant'
p358
I2430
sS'sounds'
p359
I398
sS'borne'
p360
I564
sS'contend'
p361
I1780
sS'silvered'
p362
I548
sS'decree'
p363
I2325
sS'fraught'
p364
I4092
sS'forts'
p365
I3429
sS'although'
p366
I1299
sS'god'
p367
I1735
sS"th'assurance"
p368
I4030
sS'washed'
p369
I4163
sS'forty'
p370
I86
sS'moiety'
p371
I1513
sS'content'
p372
I62
sS'laid'
p373
I2821
sS'heart-inflaming'
p374
I3188
sS'lviii'
p375
I4028
sS'heavenly'
p376
I353
sS'got'
p377
I2099
sS'newly'
p378
I4109
sS'marigold'
p379
I959
sS'forth'
p380
I1227
sS'assured'
p381
I1489
sS'fadeth'
p382
I2014
sS'hang'
p383
I1662
sS'eternal'
p384
I606
sS'little'
p385
I655
sS'free'
p386
I211
sS'mourning'
p387
I2916
sS'small'
p388
I100
sS'bestow'
p389
I994
sS'whereupon'
p390
I830
sS'evil'
p391
I620
sS'basest'
p392
I1197
sS'crowned'
p393
I1327
sS'mistress'
p394
I819
sS'knit'
p395
I981
sS'silent'
p396
I921
sS"receiv'st"
p397
I394
sS'created'
p398
I841
sS'lour'
p399
I3326
sS'days'
p400
I110
sS'ordering'
p401
I413
sS'renew'
p402
I1697
sS'flown'
p403
I3075
sS'tempting'
p404
I1409
sS'aspire'
p405
I3309
sS'potions'
p406
I2578
sS'loud'
p407
I3053
sS'ruinate'
p408
I484
sS'penury'
p409
I2198
sS'separable'
p410
I1304
sS'untutored'
p411
I2977
sS'already'
p412
I2071
sS'angelic'
p413
I4314
sS'hearsay'
p414
I873
sS"'greeing"
p415
I2634
sS'maladies'
p416
I2700
sS'hearing'
p417
I2222
sS'will'
p418
I104
sS'featured'
p419
I1087
sS'blossomed'
p420
I4117
sS'another'
p421
I154
sS'sober'
p422
I2914
sS'thick'
p423
I3397
sS'filching'
p424
I2046
sS'all-oblivious'
p425
I1690
sS'cheerless'
p426
I3261
sS'exchequer'
p427
I1925
sS'usurer'
p428
I223
sS'their'
p429
I298
sS'top'
p430
I699
sS'hawks'
p431
I2297
sS'millioned'
p432
I2645
sS'greedily'
p433
I3376
sS'master'
p434
I820
sS'too'
p435
I48
sS'dwell'
p436
I252
sS'bitter'
p437
I2579
sS'aslake'
p438
I3878
sS'likest'
p439
I3348
sS'fiery'
p440
I1610
sS'sire'
p441
I417
sS'feathers'
p442
I2108
sS'griefs'
p443
I2289
sS'ink'
p444
I1885
sS'took'
p445
I1515
sS'wisdom'
p446
I509
sS'atalanta'
p447
I4257
sS'wardrobe'
p448
I1633
sS'shortly'
p449
I3943
sS'upbrought'
p450
I4069
sS"youth's"
p451
I97
sS'character'
p452
I1767
sS'begins'
p453
I1018
sS'distance'
p454
I1446
sS'guile'
p455
I3767
sS'soonest'
p456
I4033
sS'coward'
p457
I2034
sS"mother's"
p458
I180
sS'tree'
p459
I3650
sS'bitterness'
p460
I1726
sS'idly'
p461
I2419
sS'matter'
p462
I1452
sS'idle'
p463
I1804
sS'inheritors'
p464
I3088
sS'flame'
p465
I37
sS'false-forged'
p466
I4337
sS'deserving'
p467
I2247
sS'bedecked'
p468
I4196
sS'knights'
p469
I2496
sS'beard'
p470
I561
sS'powers'
p471
I3083
sS'swift-footed'
p472
I799
sS'ravished'
p473
I3255
sS'perspective'
p474
I934
sS'fashion'
p475
I823
sS'sees'
p476
I3126
sS'gaudy'
p477
I58
sS"mind's"
p478
I2076
sS'mought'
p479
I3347
sS'modern'
p480
I2188
sS'mind'
p481
I449
sS'mine'
p482
I126
sS'untrained'
p483
I3948
sS'hairs'
p484
I2893
sS'seed'
p485
I4273
sS'manner'
p486
I2998
sS'bewailed'
p487
I1312
sS"deserv'st"
p488
I1359
sS'protract'
p489
I4348
sS'seem'
p490
I909
sS'ocean'
p491
I1713
sS'seek'
p492
I1574
sS'tells'
p493
I538
sS'contents'
p494
I1674
sS'ray'
p495
I3729
sS'praising'
p496
I1366
sS'nipples'
p497
I4118
sS'strength'
p498
I910
sS'rotten'
p499
I1231
sS'snow'
p500
I2891
sS'chest'
p501
I1544
sS'subjects'
p502
I1775
sS'forces'
p503
I3422
sS'laughed'
p504
I2405
sS'pilgrimage'
p505
I362
sS'rider'
p506
I1588
sS'pandora'
p507
I3596
sS'maiden'
p508
I703
sS'though'
p509
I293
sS'object'
p510
I831
sS'dial'
p511
I2074
sS'dulling'
p512
I2459
sS'errors'
p513
I2369
sS'mouth'
p514
I4325
sS'plenty'
p515
I3746
sS'echoes'
p516
I3520
sS'contain'
p517
I2086
sS'disarmed'
p518
I3196
sS'grave'
p519
I79
sS'shalt'
p520
I187
sS'constancy'
p521
I2486
sS'peers'
p522
I3871
sS'foist'
p523
I2790
sS'enchased'
p524
I4301
sS'flow'
p525
I1114
sS'breathes'
p526
I2160
sS'spend'
p527
I199
sS'ruthless'
p528
I3751
sS'points'
p529
I1003
sS'forsook'
p530
I4154
sS'breathed'
p531
I3069
sS'pretty'
p532
I1390
sS'sum'
p533
I138
sS'fitted'
p534
I2731
sS'reserve'
p535
I1165
sS'saying'
p536
I3079
sS'bait'
p537
I2879
sS'inspire'
p538
I3644
sS'his'
p539
I23
sS'enjoyer'
p540
I2045
sS'plagues'
p541
I625
sS'ending'
p542
I1692
sS'colors'
p543
I4182
sS'showing'
p544
I2067
sS'poison'
p545
I2722
sS'prefiguring'
p546
I2501
sS'subtle'
p547
I3580
sS'faith'
p548
I1895
sS'bail'
p549
I2026
sS'enjoyed'
p550
I2877
sS'contrained'
p551
I3919
sS'apace'
p552
I4244
sS'touches'
p553
I737
sS'acquit'
p554
I3845
sS'proposed'
p555
I2886
sS'spite'
p556
I1303
sS"woman's"
p557
I817
sS'spites'
p558
I1386
sS'cupid'
p559
I3169
sS'bush'
p560
I3976
sS'bliss'
p561
I2885
sS'touched'
p562
I735
sS'rich'
p563
I685
sS'pursuing'
p564
I2053
sS'mend'
p565
I1945
sS"'thou"
p566
I428
sS'forelock'
p567
I4184
sS'columbines'
p568
I4112
sS'borrowed'
p569
I2842
sS'do'
p570
I326
sS'blenches'
p571
I2556
sS'tongue'
p572
I740
sS'forsworn'
p573
I1893
sS'loved'
p574
I1154
sS"abode's"
p575
I3893
sS'kindling'
p576
I3307
sS'stop'
p577
I178
sS'perceive'
p578
I669
sS'leisure'
p579
I1362
sS'raiment'
p580
I880
sS'guileful'
p581
I3394
sS'gored'
p582
I2552
sS'bootless'
p583
I1080
sS'despite'
p584
I193
sS'report'
p585
I1318
sS'congealed'
p586
I3684
sS'saturn'
p587
I2406
sS'seemly'
p588
I881
sS'runs'
p589
I3038
sS'bar'
p590
I1495
sS'spilling'
p591
I3800
sS'fields'
p592
I4264
sS"o'er"
p593
I547
sS'thrusts'
p594
I1591
sS'public'
p595
I951
sS'twice'
p596
I750
sS'eyelids'
p597
I1028
sS'esteeming'
p598
I2441
sS"hate's"
p599
I1383
sS'release'
p600
I3754
sS'gentlest'
p601
I2613
sS'hasten'
p602
I1778
sS'steal'
p603
I1308
sS'thanks'
p604
I1341
sS'victors'
p605
I2238
sS'unprovident'
p606
I473
sS'penance'
p607
I2582
sS"wond'ring"
p608
I2795
sS'unrespected'
p609
I1430
sS'fair'
p610
I128
sS'habit'
p611
I2987
sS'imitate'
p612
I1918
sS'nut'
p613
I3622
sS'proclaims'
p614
I2515
sS'depends'
p615
I2311
sS'allure'
p616
I3546
sS'corrupt'
p617
I2965
sS'fain'
p618
I4352
sS'prostrate'
p619
I4007
sS'best'
p620
I529
sS'subject'
p621
I1333
sS'voyage'
p622
I4057
sS'said'
p623
I1412
sS'draws'
p624
I3554
sS'temptation'
p625
I1395
sS"bett'ring"
p626
I1163
sS'away'
p627
I516
sS'sail'
p628
I2134
sS'bier'
p629
I563
sS'prince'
p630
I4251
sS'mud'
p631
I1259
sS'score'
p632
I2779
sS'finger'
p633
I2367
sS'pebbled'
p634
I1776
sS'scorn'
p635
I1107
sS'drawn'
p636
I718
sS'sorts'
p637
I3626
sS'enlighten'
p638
I3167
sS'approach'
p639
I3967
sS'ire'
p640
I3565
sS'discovery'
p641
I3938
sS'preserve'
p642
I3103
sS'warrior'
p643
I966
sS'we'
p644
I3
sS'never'
p645
I8
sS'terms'
p646
I3094
sS'parallels'
p647
I1792
sS'extend'
p648
I4353
sS'nature'
p649
I234
sS'smelled'
p650
I4098
sS'lover'
p651
I1161
sS'weak'
p652
I1247
sS'ignorance'
p653
I2105
sS'religious'
p654
I1147
sS'authorizing'
p655
I1271
sS'disdaineth'
p656
I1219
sS'wear'
p657
I680
sS'diest'
p658
I383
sS'defiance'
p659
I3292
sS'news'
p660
I3001
sS'debt'
p661
I2184
sS'pity'
p662
I77
sS'foes'
p663
I1385
sS'goddess'
p664
I2566
sS'accident'
p665
I2799
sS'disdain'
p666
I2909
sS'fault'
p667
I1279
sS'ill'
p668
I889
sS'resounded'
p669
I3515
sS'against'
p670
I588
sS'brag'
p671
I777
sS'mildly'
p672
I3323
sS'receives'
p673
I2571
sS'faces'
p674
I733
sS'exceeds'
p675
I3143
sS'expense'
p676
I1123
sS'groans'
p677
I2904
sS'asked'
p678
I107
sS'tough'
p679
I3618
sS'vexed'
p680
I3122
sS'honouring'
p681
I2818
sS'burthen'
p682
I911
sS'vain'
p683
I3444
sS'labouring'
p684
I1761
sS'height'
p685
I675
sS'hers'
p686
I1410
sS'lowly'
p687
I3239
sS'springs'
p688
I2472
sS'trust'
p689
I905
sS'heals'
p690
I1241
sS'licentious'
p691
I3353
sS'speak'
p692
I1237
sS'helice'
p693
I3735
sS'petty'
p694
I2290
sS'unhappily'
p695
I1894
sS'puts'
p696
I1006
sS'hues'
p697
I834
sS'time-bettering'
p698
I2170
sS'foully'
p699
I3839
sS'condemned'
p700
I3766
sS'rebounded'
p701
I3519
sS'three'
p702
I2466
sS'been'
p703
I1759
sS'particulars'
p704
I2301
sS'twain'
p705
I1293
sS'much'
p706
I124
sS'afloat'
p707
I2142
sS'interest'
p708
I1149
sS'incertainty'
p709
I2660
sS'privilege'
p710
I2359
sS'canopy'
p711
I555
sS'fry'
p712
I3705
sS'lovely'
p713
I184
sS'thrice'
p714
I1719
sS'idol'
p715
I2481
sS'threw'
p716
I3076
sS'life'
p717
I433
sS"brav'ry"
p718
I1232
sS'sprite'
p719
I3216
sS'drugs'
p720
I2723
sS'sunshine'
p721
I3828
sS'pointing'
p722
I632
sS'augmenteth'
p723
I3843
sS'decrepit'
p724
I1319
sS'craft'
p725
I3579
sS'chase'
p726
I3043
sS'famine'
p727
I44
sS'dote'
p728
I3009
sS'child'
p729
I127
sS'catch'
p730
I2611
sS"ne'er-cloying"
p731
I2706
sS'doth'
p732
I206
sS'erst'
p733
I557
sS'gracious'
p734
I336
sS'applied'
p735
I3710
sS'physician'
p736
I3106
sS'overturn'
p737
I1679
sS'east'
p738
I2911
sS'sly'
p739
I3771
sS'gentle'
p740
I250
sS'persueth'
p741
I3374
sS'air'
p742
I868
sS'lesser'
p743
I2638
sS'ugly'
p744
I1202
sS'near'
p745
I1813
sS'suppose'
p746
I1731
sS'comptroll'
p747
I3362
sS'aid'
p748
I2117
sS'voice'
p749
I1946
sS'launched'
p750
I4022
sS'weakens'
p751
I902
sS"'mongst"
p752
I3524
sS'changed'
p753
I3341
sS'abhored'
p754
I3698
sS'crowning'
p755
I2662
sS'writes'
p756
I2200
sS'is'
p757
I156
sS'it'
p758
I144
sS'defeated'
p759
I849
sS'shame'
p760
I117
sS'to-morrow'
p761
I1706
sS'splendour'
p762
I1212
sS'in'
p763
I67
sS'bounteous'
p764
I222
sS'sever'
p765
I3314
sS'if'
p766
I132
sS'grown'
p767
I1169
sS'wooing'
p768
I3063
sS'memorial'
p769
I2027
sS'sap'
p770
I275
sS'descent'
p771
I4219
sS'alien'
p772
I2100
sS'cools'
p773
I3203
sS'patent'
p774
I2250
sS'suggest'
p775
I3054
sS'make'
p776
I136
sS'wound'
p777
I1240
sS"lords'"
p778
I2390
sS'who'
p779
I176
sS'beside'
p780
I899
sS'cleared'
p781
I3833
sS"th'"
p782
I243
sS'several'
p783
I2973
sS'grows'
p784
I651
sS'entitled'
p785
I1328
sS'lusty'
p786
I111
sS'fairly'
p787
I261
sS'thereof'
p788
I2132
sS'cheeks'
p789
I2181
sS'juniper'
p790
I3613
sS'lusts'
p791
I3302
sS'tops'
p792
I1189
sS'rain'
p793
I630
sS'hand'
p794
I302
sS'delight'
p795
I1307
sS'descry'
p796
I3410
sS'supposing'
p797
I2317
sS'jealous'
p798
I1730
sS"tempests'"
p799
I3789
sS'bequest'
p800
I209
sS'blamed'
p801
I1373
sS'thoughts'
p802
I1024
sS'censures'
p803
I3119
sS'kept'
p804
I460
sS'thy'
p805
I39
sS'singleness'
p806
I409
sS'askance'
p807
I2555
sS'possessed'
p808
I480
sS'humble'
p809
I2136
sS'redeem'
p810
I2417
sS'inherit'
p811
I2333
sS'doff'
p812
I3634
sS'ragged'
p813
I303
sS'thm'
p814
I3977
sS'quest'
p815
I1509
sS'greatest'
p816
I1541
sS'incapable'
p817
I2620
sS'mother'
p818
I161
sS'hearts'
p819
I1137
sS'the'
p820
I19
sS'yours'
p821
I584
sS'left'
p822
I278
sS'stelled'
p823
I926
sS'rubies'
p824
I3446
sS'therewith'
p825
I3663
sS'appease'
p826
I3566
sS'just'
p827
I2541
sS'wasteful'
p828
I688
sS'yea'
p829
I1367
sS'broom-flower'
p830
I3623
sS"poet's"
p831
I743
sS'unfair'
p832
I262
sS'repose'
p833
I1575
sS'verses'
p834
I2463
sS'maketh'
p835
I2621
sS'farther'
p836
I1061
sS'fullness'
p837
I3819
sS'swears'
p838
I2976
sS'venemous'
p839
I4329
sS'prognosticate'
p840
I647
sS'plight'
p841
I1045
sS'yet'
p842
I226
sS'succeeding'
p843
I811
sS'vices'
p844
I2354
sS'adding'
p845
I852
sS'doubting'
p846
I2047
sS'dearer'
p847
I1174
sS'compeers'
p848
I2230
sS'had'
p849
I612
sS'about'
p850
I2602
sS'presagers'
p851
I915
sS'alchemy'
p852
I1193
sS'belongs'
p853
I925
sS'prisoner'
p854
I283
sS'beloved'
p855
I474
sS'prison'
p856
I2929
sS'hap'
p857
I435
sS'pitiful'
p858
I2831
sS'save'
p859
I580
sS'gave'
p860
I527
sS"others'"
p861
I2113
sS'dignity'
p862
I2340
sS'bands'
p863
I3207
sS'looks'
p864
I350
sS'reviewest'
p865
I2029
sS'firmer'
p866
I3303
sS'birth'
p867
I1173
sS"flesh's"
p868
I3633
sS'shadow'
p869
I1036
sS'divert'
p870
I2655
sS'dreams'
p871
I1431
sS"picture's"
p872
I1496
sS'desire'
p873
I2
sS'brought'
p874
I1172
sS"feed'st"
p875
I40
sS'gift'
p876
I532
sS'new-found'
p877
I2063
sS'vilest'
p878
I1987
sS'unreave'
p879
I3578
sS'offices'
p880
I2094
sS'night'
p881
I540
sS'hung'
p882
I1039
sS'three-score'
p883
I4060
sS'loathsome'
p884
I1268
sS"hate'"
p885
I3067
sS'antique'
p886
I746
sS'right'
p887
I1497
sS'old'
p888
I134
sS'sends'
p889
I4365
sS'flatter'
p890
I1066
sS'easy'
p891
I2537
sS'deaf'
p892
I1081
sS'short-numbered'
p893
I2810
sS'dead'
p894
I1139
sS'born'
p895
I1888
sS'election'
p896
I4321
sS'mazed'
p897
I3319
sS'compassed'
p898
I4078
sS'dear'
p899
I609
sS'amiable'
p900
I3825
sS'bore'
p901
I2816
sS'unvalued'
p902
I4253
sS'creep'
p903
I2649
sS'enemies'
p904
I1055
sS'for'
p905
I169
sS'richer'
p906
I2306
sS"bosom's"
p907
I938
sS'ear'
p908
I402
sS'rehearse'
p909
I856
sS'ice'
p910
I3671
sS"bath'd"
p911
I3219
sS'foe'
p912
I51
sS'equal'
p913
I2196
sS'drudge'
p914
I3154
sS'drink'
p915
I2575
sS'unthrift'
p916
I453
sS'contented'
p917
I1091
sS'knew'
p918
I2642
sS'bold'
p919
I2781
sS'burn'
p920
I794
sS'faery'
p921
I4276
sS'monsters'
p922
I2626
sS'revived'
p923
I3813
sS'shifting'
p924
I826
sS'gladly'
p925
I393
sS'losing'
p926
I1425
sS'all-tyrant'
p927
I3130
sS'peep'
p928
I944
sS'disdains'
p929
I172
sS'shaken'
p930
I2671
sS'takes'
p931
I579
sS'trophy'
p932
I4174
sS'theirs'
p933
I828
sS'coral'
p934
I2888
sS'haply'
p935
I1097
sS'frailer'
p936
I2763
sS'o'
p937
I491
sS'whilest'
p938
I3877
sS'despair'
p939
I3002
sS'cherish'
p940
I530
sS'own'
p941
I29
sS'commit'
p942
I2088
sS'lacked'
p943
I1640
sS'worthily'
p944
I4165
sS'sprites'
p945
I4311
sS'firbloom'
p946
I3617
sS'raised'
p947
I3145
sS'contains'
p948
I2035
sS'issueless'
p949
I436
sS'presence'
p950
I495
sS'civil'
p951
I1287
sS'pays'
p952
I2123
sS'nought'
p953
I659
sS'bound'
p954
I1738
sS'son'
p955
I380
sS'down'
p956
I1481
sS'lies'
p957
I41
sS'refined'
p958
I2219
sS"pour'st"
p959
I1335
sS'often'
p960
I765
sS'strangely'
p961
I1560
sS"virtue's"
p962
I4235
sS'despised'
p963
I1330
sS'suffice'
p964
I3742
sS'jealousy'
p965
I1806
sS'sovereign'
p966
I1188
sS'fight'
p967
I964
sS'forhead'
p968
I3451
sS'virgin'
p969
I3197
sS'victorious'
p970
I3670
sS'way'
p971
I375
sS'call'
p972
I507
sS'was'
p973
I287
sS'war'
p974
I391
sS'happy'
p975
I416
sS'lowest'
p976
I4046
sS'starve'
p977
I4361
sS'head'
p978
I341
sS'faring'
p979
I890
sS'form'
p980
I155
sS'offer'
p981
I3366
sS'something'
p982
I2223
sS'crown'
p983
I2511
sS'becoming'
p984
I2852
sS'sundry'
p985
I4054
sS'forgetful'
p986
I2418
sS'fore'
p987
I374
sS'heinous'
p988
I804
sS'pricked'
p989
I853
sS'heat'
p990
I556
sS'hear'
p991
I388
sS'odours'
p992
I1667
sS'astonished'
p993
I2231
sS'blindness'
p994
I3166
sS'removed'
p995
I977
sS'true'
p996
I401
sS'continuance'
p997
I3500
sS'absent'
p998
I1391
sS'lilies'
p999
I2345
sS'humbled'
p1000
I3360
sS'builds'
p1001
I4132
sS'captive'
p1002
I1912
sS'extremity'
p1003
I1603
sS"for't"
p1004
I2437
sS'bids'
p1005
I1524
sS'bounds'
p1006
I4066
sS'until'
p1007
I1486
sS'crystal'
p1008
I1499
sS'unfathered'
p1009
I2396
sS'adore'
p1010
I360
sS'anew'
p1011
I2168
sS'engraft'
p1012
I690
sS'bide'
p1013
I1743
sS'latch'
p1014
I2608
sS'temper'
p1015
I3804
sS'adorn'
p1016
I3660
sS'trim'
p1017
I2401
sS'prayed'
p1018
I4268
sS'proud'
p1019
I96
sS'disgrace'
p1020
I1076
sS"deriv'd"
p1021
I4220
sS'fury'
p1022
I2414
sS'sinful'
p1023
I2461
sS'mirror'
p1024
I3320
sS'steep-up'
p1025
I354
sS"beauty's"
p1026
I11
sS'encage'
p1027
I4213
sS'huswife'
p1028
I3039
sS'sometime'
p1029
I761
sS'subsist'
p1030
I2774
sS'prayer'
p1031
I3384
sS'shines'
p1032
I759
sS'reproving'
p1033
I3023
sS'injurious'
p1034
I1447
sS'posting'
p1035
I1602
sS'willingly'
p1036
I2001
sS'pipe'
p1037
I2449
sS'rough'
p1038
I757
sS'faithful'
p1039
I3666
sS'dying'
p1040
I3098
sS'no'
p1041
I289
sS'boldly'
p1042
I4247
sS'ambrosial'
p1043
I3821
sS'excel'
p1044
I260
sS"lov'st"
p1045
I395
sS'actor'
p1046
I896
sS'thriftless'
p1047
I116
sS'despising'
p1048
I1093
sS'falsely'
p1049
I3118
sS"renew'th"
p1050
I3369
sS'papers'
p1051
I739
sS'tie'
p1052
I1979
sS'vanished'
p1053
I1122
sS'smell'
p1054
I1957
sS'eternity'
p1055
I2084
sS'picture'
p1056
I1523
sS'intend'
p1057
I1026
sS'phoenix'
p1058
I792
sS'delivered'
p1059
I2090
sS'dies'
p1060
I196
sS'why'
p1061
I200
sS'welcome'
p1062
I1720
sS'first-born'
p1063
I864
sS'present-absent'
p1064
I1476
sS'journey'
p1065
I1017
sS'intent'
p1066
I3375
sS'reign'
p1067
I1053
sS'budded'
p1068
I4106
sS'wounded'
p1069
I2753
sS'rolling'
p1070
I827
sS'chopt'
p1071
I1825
sS'hurt'
p1072
I2331
sS'died'
p1073
I1180
sS'wrackful'
p1074
I1874
sS'warn'
p1075
I3692
sS'to-day'
p1076
I1703
sS'longer'
p1077
I585
sS'blushing'
p1078
I2863
sS'outwent'
p1079
I4062
sS'daily'
p1080
I1071
sS'miseries'
p1081
I3758
sS'loyal'
p1082
I4129
sS'cheater'
p1083
I3148
sS'teeth'
p1084
I790
sS'controlling'
p1085
I833
sS'erred'
p1086
I2974
sS'restored'
p1087
I1135
sS'songs'
p1088
I2482
sS'deface'
p1089
I301
sS'chain'
p1090
I3849
sS'whoever'
p1091
I2949
sS'rob'
p1092
I3490
sS"perceiv'st"
p1093
I2023
sS'souls'
p1094
I838
sS'vermilion'
p1095
I2411
sS'engrafted'
p1096
I1329
sS'leads'
p1097
I264
sS'continual'
p1098
I2797
sS'mild'
p1099
I3413
sS'mile'
p1100
I4355
sS'comments'
p1101
I2209
sS'battle'
p1102
I3370
sS'idolatry'
p1103
I2480
sS'abundant'
p1104
I2394
sS'disobeys'
p1105
I3525
sS'needeth'
p1106
I3426
sS'retention'
p1107
I2778
sS'adamant'
p1108
I3850
sS'praises'
p1109
I2206
sS'fancies'
p1110
I4267
sS'april'
p1111
I183
sS'father'
p1112
I611
sS'pen'
p1113
I710
sS'vex'
p1114
I2313
sS'blissing'
p1115
I4134
sS'amaze'
p1116
I3459
sS'charge'
p1117
I3089
sS'praised'
p1118
I2221
sS'excellect'
p1119
I3951
sS'terror'
p1120
I3690
sS'suffered'
p1121
I2745
sS'ride'
p1122
I1196
sS'furrows'
p1123
I877
sS'me'
p1124
I499
sS'strumpeted'
p1125
I1899
sS'string'
p1126
I411
sS'advantage'
p1127
I1852
sS'buriest'
p1128
I63
sS'denied'
p1129
I3036
sS'none'
p1130
I478
sS'votary'
p1131
I3193
sS'mourn'
p1132
I1982
sS'lest'
p1133
I1313
sS'advised'
p1134
I1557
sS'locked'
p1135
I1545
sS'trouble'
p1136
I1082
sS'brows'
p1137
I4107
sS'feeble'
p1138
I370
sS'minute'
p1139
I4356
sS'cool'
p1140
I3199
sS"soul's"
p1141
I996
sS'perceived'
p1142
I2477
sS'clouds'
p1143
I1064
sS'nectar'
p1144
I3822
sS'level'
p1145
I2694
sS'did'
p1146
I248
sS'die'
p1147
I7
sS'dig'
p1148
I91
sS"best'"
p1149
I2658
sS'cloudy'
p1150
I3736
sS'temple'
p1151
I3562
sS'leave'
p1152
I235
sS'settle'
p1153
I3883
sS'excellence'
p1154
I2338
sS'quick'
p1155
I1684
sS'woven'
p1156
I4194
sS'round'
p1157
I3447
sS'enlumined'
p1158
I4147
sS'prevent'
p1159
I2701
sS'brave'
p1160
I542
sS'says'
p1161
I1504
sS'fearing'
p1162
I2657
sS"offender's"
p1163
I1249
sS'double-vantage'
p1164
I2263
sS'sigh'
p1165
I1112
sS'feeling'
p1166
I2758
sS'wherefore'
p1167
I692
sS'cost'
p1168
I1846
sS'dried'
p1169
I3304
sS'run'
p1170
I1616
sS'tempest'
p1171
I3797
sS'drinks'
p1172
I2632
sS'hymn'
p1173
I2218
sS"fleet'st"
p1174
I795
sS'curse'
p1175
I1084
sS'stately'
p1176
I4169
sS'assistance'
p1177
I2098
sS'contracted'
p1178
I32
sS'favour'
p1179
I948
sS'debate'
p1180
I2273
sS'health'
p1181
I1491
sS'suspect'
p1182
I1964
sS'spurring'
p1183
I1596
sS'goes'
p1184
I1779
sS'view'
p1185
I1034
sS'guilt'
p1186
I1311
sS'aswagement'
p1187
I3755
sS'appeal'
p1188
I2697
sS'badge'
p1189
I3642
sS'filled'
p1190
I724
sS'fragrant'
p1191
I2346
sS'unsure'
p1192
I3604
sS"april's"
p1193
I865
sS'prescriptions'
p1194
I3107
sS'wail'
p1195
I440
sS'heavily'
p1196
I1128
sS'honour'
p1197
I603
sS'clerk'
p1198
I2214
sS'learn'
p1199
I922
sS'agreement'
p1200
I3757
sS'water'
p1201
I1464
sS'entertain'
p1202
I1364
sS'governs'
p1203
I2603
sS'address'
p1204
I3368
sS'alone'
p1205
I229
sS'appears'
p1206
I2457
sS'change'
p1207
I488
sS'blunter'
p1208
I1699
sS'boy'
p1209
I2529
sS'enroll'
p1210
I3363
sS'stormy'
p1211
I605
sS'flames'
p1212
I3310
sS'my'
p1213
I135
sS'eke'
p1214
I3485
sS'guilty'
p1215
I2567
sS'bow'
p1216
I2276
sS'spheres'
p1217
I2732
sS'homeward'
p1218
I3955
sS'recounting'
p1219
I1490
sS'treasure'
p1220
I112
sS'love'
p1221
I465
sS'humour'
p1222
I2299
sS'tempteth'
p1223
I3059
sS'robs'
p1224
I1290
sS'bearing'
p1225
I888
sS'paragon'
p1226
I4138
sS'bloody'
p1227
I694
sS'withal'
p1228
I3182
sS'charming'
p1229
I3492
sS'betraying'
p1230
I3149
sS'world-without-end'
p1231
I1724
sS'surmount'
p1232
I1820
sS'swallowed'
p1233
I2880
sS'disguising'
p1234
I3986
sS'sky'
p1235
I670
sS"suff'ring"
p1236
I1422
sS"o'erworn"
p1237
I1831
sS"th'importune"
p1238
I3581
sS'wealth'
p1239
I1105
sS'prove'
p1240
I426
sS'sake'
p1241
I1420
sS'confounded'
p1242
I1859
sS'angry'
p1243
I3108
sS'give'
p1244
I219
sS'visit'
p1245
I4313
sS'tears'
p1246
I1255
sS'by'
p1247
I16
sS'wrongs'
p1248
I1389
sS'live'
p1249
I195
sS'going'
p1250
I1615
sS'prey'
p1251
I1543
sS'memory'
p1252
I22
sS'scope'
p1253
I1088
sS'angels'
p1254
I3333
sS'loving'
p1255
I1004
sS"love's"
p1256
I806
sS'dismay'
p1257
I3436
sS'love-god'
p1258
I3187
sS'riot'
p1259
I1405
sS'sessions'
p1260
I1108
sS'towers'
p1261
I1849
sS'share'
p1262
I1527
sS'acceptable'
p1263
I237
sS"strength's"
p1264
I903
sS'fuel'
p1265
I34
sS'drown'
p1266
I1115
sS'everywhere'
p1267
I2383
sS'virtue'
p1268
I1665
sS"danger's"
p1269
I4357
sS'stain'
p1270
I1222
sS'epitaph'
p1271
I2151
sS'fly'
p1272
I2103
sS'honey'
p1273
I1871
sS'lengths'
p1274
I1461
sS'sheds'
p1275
I1253
sS'decked'
p1276
I4265
sS'well-seeing'
p1277
I3128
sS'deformed'
p1278
I3889
sS'car'
p1279
I364
sS'soul'
p1280
I1816
sS'purge'
p1281
I2702
sS'hardest'
p1282
I2362
sS'sour'
p1283
I1363
sS'can'
p1284
I575
sS'believed'
p1285
I3005
sS'making'
p1286
I46
sS"prevent'st"
p1287
I2428
sS'arrive'
p1288
I4091
sS'laughter'
p1289
I3507
sS'deceased'
p1290
I1162
sS'breeds'
p1291
I2569
sS'spy'
p1292
I3470
sS'dedicated'
p1293
I2164
sS'hooks'
p1294
I2968
sS"servant's"
p1295
I3090
sS'respose'
p1296
I1016
sS'figure'
p1297
I2478
sS'predict'
p1298
I635
sS'gillyflowers'
p1299
I4103
sS'distillation'
p1300
I279
sS'confused'
p1301
I3481
sS'heard'
p1302
I2792
sS'critic'
p1303
I2599
sS'purity'
p1304
I3062
sS'hides'
p1305
I727
sS"mak'st"
p1306
I69
sS'provoke'
p1307
I1589
sS'stole'
p1308
I2124
sS'churls'
p1309
I1955
sS'noyous'
p1310
I4349
sS'winter'
p1311
I269
sS'allege'
p1312
I1572
sS'divided'
p1313
I1356
sS'spreads'
p1314
I3293
sS'vainly'
p1315
I2980
sS'pine'
p1316
I2056
sS"lour'st"
p1317
I3134
sS'write'
p1318
I728
sS'till'
p1319
I848
sS'ransom'
p1320
I1257
sS'sword'
p1321
I1686
sS'familiar'
p1322
I2234
sS'husbandry'
p1323
I170
sS'sworn'
p1324
I3115
sS'limbecks'
p1325
I2727
sS"eye's"
p1326
I1514
sS'map'
p1327
I1930
sS'mar'
p1328
I2462
sS'where-through'
p1329
I942
sS"spider's"
p1330
I3588
sS'coming'
p1331
I587
sS'peerless'
p1332
I4175
sS'may'
p1333
I446
sS'sacrifice'
p1334
I3569
sS'use'
p1335
I121
sS'spot'
p1336
I2348
sS'lamping'
p1337
I3215
sS'brazen'
p1338
I4131
sS'tipped'
p1339
I4328
sS'mad'
p1340
I2882
sS'date'
p1341
I648
sS'end'
p1342
I456
sS'hateth'
p1343
I3131
sS'flourish'
p1344
I1790
sS'grow'
p1345
I573
sS'man'
p1346
I836
sS'temperate'
p1347
I752
sS'branches'
p1348
I3616
sS'neck'
p1349
I2905
sS'liquid'
p1350
I284
sS'beam'
p1351
I4073
sS'candles'
p1352
I872
sS'needy'
p1353
I1892
sS'darkened'
p1354
I3891
sS'so'
p1355
I94
sS'glancing'
p1356
I3464
sS'deceive'
p1357
I232
sS'thorns'
p1358
I1262
sS'tall'
p1359
I2150
sS'truce'
p1360
I3387
sS"victor's"
p1361
I3210
sS'augurs'
p1362
I2510
sS'tormenteth'
p1363
I3840
sS'serving'
p1364
I351
sS'shield'
p1365
I3957
sS'receivest'
p1366
I1369
sS'food'
p1367
I2037
sS'indeed'
p1368
I1822
sS'forfeit'
p1369
I2506
sS'displayed'
p1370
I4179
sS'years'
p1371
I1393
sS'course'
p1372
I768
sS'pitch'
p1373
I366
sS'cold'
p1374
I143
sS'still'
p1375
I296
sS'blooded'
p1376
I3541
sS'birds'
p1377
I2008
sS'trifle'
p1378
I1535
sS'solitary'
p1379
I3962
sS'limbs'
p1380
I1015
sS'derive'
p1381
I637
sS'odour'
p1382
I1656
sS'solace'
p1383
I3966
sS'acknowledge'
p1384
I1309
sS'muses'
p1385
I2211
sS'spur'
p1386
I1590
sS'mantle'
p1387
I3272
sS'curls'
p1388
I549
sS"offence's"
p1389
I1251
sS'forms'
p1390
I4075
sS'maid'
p1391
I3171
sS'spacious'
p1392
I2953
sS"play'st"
p1393
I2853
sS'policy'
p1394
I2714
sS"stol'n"
p1395
I1146
sS'troubled'
p1396
I3984
sS'style'
p1397
I1183
sS'conquest'
p1398
I333
sS'correspondence'
p1399
I3116
sS'prime'
p1400
I181
sS'truest'
p1401
I1534
sS'equipage'
p1402
I1175
sS'thereby'
p1403
I12
sS'quod'
p1404
I4231
sS'sooner'
p1405
I2876
sS'delighted'
p1406
I3011
sS'records'
p1407
I2796
sS'flint'
p1408
I3501
sS'coat-armor'
p1409
I4180
sS'half'
p1410
I726
sS'not'
p1411
I158
sS'sorted'
p1412
I4145
sS'bath'
p1413
I3177
sS'twilight'
p1414
I2012
sS'mantleth'
p1415
I4206
sS'nor'
p1416
I290
sS'wont'
p1417
I2445
sS"phoebus'"
p1418
I3646
sS'term'
p1419
I2310
sS'name'
p1420
I1315
sS'servant'
p1421
I1728
sS'frank'
p1422
I215
sS'drop'
p1423
I2279
sS'arrows'
p1424
I3466
sS'covetize'
p1425
I3740
sS'careless'
p1426
I3798
sS'craftily'
p1427
I3777
sS'cordials'
p1428
I3941
sS'veins'
p1429
I1921
sS'seldom'
p1430
I1621
sS'whenas'
p1431
I3726
sS'eyelid'
p1432
I3827
sS'surfeit'
p1433
I2055
sS"another's"
p1434
I1941
sS'worthier'
p1435
I2120
sS'receipt'
p1436
I2960
sS'long-while'
p1437
I3338
sS'richly'
p1438
I2208
sS'fever'
p1439
I2733
sS'farewell'
p1440
I2241
sS'yield'
p1441
I2154
sS'begun'
p1442
I3583
sS'year'
p1443
I518
sS'hymns'
p1444
I1102
sS'summon'
p1445
I1109
sS'despight'
p1446
I3881
sS'living'
p1447
I329
sS'shown'
p1448
I1951
sS'mouths'
p1449
I2159
sS'space'
p1450
I1448
sS'profit'
p1451
I2096
sS'medicine'
p1452
I2717
sS'astray'
p1453
I3727
sS'increase'
p1454
I1
sS'nurse'
p1455
I892
sS'contained'
p1456
I3321
sS'miles'
p1457
I1460
sS'misseth'
p1458
I4185
sS'bless'
p1459
I4297
sS'grecian'
p1460
I1652
sS'receiving'
p1461
I1468
sS'correct'
p1462
I2581
sS'assurance'
p1463
I3854
sS'shows'
p1464
I658
sS'END'
p1465
I0
sS'worthiness'
p1466
I1639
sS'older'
p1467
I2560
sS'siege'
p1468
I1873
sS'cars'
p1469
I3014
sS'sweet-seasoned'
p1470
I2040
sS'spies'
p1471
I2762
sS'wits'
p1472
I1772
sS'godess'
p1473
I3571
sS'rebel'
p1474
I3084
sS'plea'
p1475
I1285
sS"feel'st"
p1476
I145
sS'care'
p1477
I1542
sS'advance'
p1478
I2116
sS"age's"
p1479
I1835
sS'contemplation'
p1480
I4286
sS'embassage'
p1481
I985
sS"widow's"
p1482
I430
sS'wilful-slow'
p1483
I1613
sS'kingdoms'
p1484
I1981
sS'honest'
p1485
I3165
sS'motion'
p1486
I1474
sS'gusts'
p1487
I604
sS'fetters'
p1488
I3786
sS'thine'
p1489
I30
sS'place'
p1490
I307
sS'recompense'
p1491
I917
sS'envied'
p1492
I3277
sS'slaying'
p1493
I3764
sS'sufferance'
p1494
I1744
sS'widow'
p1495
I442
sS'star'
p1496
I999
sS'think'
p1497
I1096
sS'frequent'
p1498
I2687
sS'first'
p1499
I842
sS'blind'
p1500
I1030
sS'langour'
p1501
I3942
sS'saving'
p1502
I3750
sS'mayst'
p1503
I508
sS'faculty'
p1504
I2775
sS'transform'
p1505
I3651
sS'nativity'
p1506
I1784
sS'consecrate'
p1507
I2030
sS'amidst'
p1508
I4012
sS'directly'
p1509
I3065
sS'habitation'
p1510
I2357
sS'carry'
p1511
I2025
sS'ill-used'
p1512
I2361
sS'array'
p1513
I3082
sS'tame'
p1514
I1745
sS'open'
p1515
I1027
sS'affords'
p1516
I2216
sS'millions'
p1517
I1644
sS'interchange'
p1518
I1858
sS'given'
p1519
I220
sS'greediness'
p1520
I4001
sS'checked'
p1521
I274
sS'wrath'
p1522
I3380
sS'thankless'
p1523
I3637
sS'breed'
p1524
I316
sS'dressed'
p1525
I2402
sS'steep'
p1526
I3172
sS'chastity'
p1527
I4176
sS'plaint'
p1528
I3506
sS'bounty'
p1529
I531
sS'white'
p1530
I546
sS'utmost'
p1531
I1554
sS"tiger's"
p1532
I788
sS'friend'
p1533
I1133
sS'gives'
p1534
I208
sS'hue'
p1535
I835
sS'eyes'
p1536
I27
sS'pomp'
p1537
I2802
sS'grant'
p1538
I475
sS'blazon'
p1539
I2498
sS'that'
p1540
I13
sS'brains'
p1541
I1758
sS"men's"
p1542
I839
sS'proving'
p1543
I140
sS'alas'
p1544
I2548
sS'annoy'
p1545
I396
sS'eyed'
p1546
I2465
sS'girded'
p1547
I559
sS'jasmines'
p1548
I4116
sS'copy'
p1549
I536
sS'than'
p1550
I322
sS"here's"
p1551
I1427
sS'eyen'
p1552
I3393
sS'mow'
p1553
I1796
sS'wide'
p1554
I802
sS'feeds'
p1555
I1795
sS'wert'
p1556
I843
sS'require'
p1557
I1722
sS'folly'
p1558
I512
sS'transferred'
p1559
I2975
sS'apples'
p1560
I4254
sS'were'
p1561
I120
sS'lillies'
p1562
I4115
sS'carcanet'
p1563
I1630
sS'wandering'
p1564
I3852
sS'and'
p1565
I61
sS'rend'
p1566
I3586
sS'angel'
p1567
I3055
sS'slay'
p1568
I2990
sS'correction'
p1569
I2580
sS'confessed'
p1570
I2934
sS'turned'
p1571
I2471
sS'argument'
p1572
I1337
sS'jewels'
p1573
I1540
sS'voices'
p1574
I2596
sS'entombed'
p1575
I2155
sS'worms'
p1576
I332
sS'say'
p1577
I114
sS'perfumes'
p1578
I2476
sS'buried'
p1579
I960
sS'foiled'
p1580
I968
sS'anger'
p1581
I1592
sS'cheek'
p1582
I1649
sS'pityless'
p1583
I4006
sS'pry'
p1584
I1802
sS'any'
p1585
I470
sS'bee'
p1586
I4188
sS'elsewhere'
p1587
I1811
sS'defaced'
p1588
I1844
sS'describe'
p1589
I1646
sS'warriors'
p1590
I4168
sS'mourners'
p1591
I2849
sS'aside'
p1592
I2059
sS'purest'
p1593
I1896
sS'note'
p1594
I419
sS'wretch'
p1595
I1585
sS'take'
p1596
I1316
sS'resembling'
p1597
I359
sS'wanting'
p1598
I991
sS'blunt'
p1599
I782
sS'heal'
p1600
I3946
sS'flattered'
p1601
I2988
sS'urge'
p1602
I2698
sS'begin'
p1603
I2640
sS'sure'
p1604
I1537
sS'altered'
p1605
I2319
sS'theatre'
p1606
I3980
sS'sledge'
p1607
I3703
sS'tallies'
p1608
I2780
sS'price'
p1609
I3385
sS'keeps'
p1610
I716
sS'clearer'
p1611
I1438
sS'paid'
p1612
I1132
sS'remover'
p1613
I2668
sS'unkindness'
p1614
I2743
sS'boiling'
p1615
I3678
sS'render'
p1616
I2835
sS'entreaty'
p1617
I3505
sS'flatterer'
p1618
I2598
sS'tract'
p1619
I376
sS'clatter'
p1620
I4323
sS'coveted'
p1621
I3625
sS'winters'
p1622
I85
sS'forever'
p1623
I4222
sS'garments'
p1624
I2295
sS'later'
p1625
I4234
sS'steady'
p1626
I4049
sS'hungry'
p1627
I1709
sS'fordone'
p1628
I4277
sS'wing'
p1629
I2106
sS"perfect'st"
p1630
I1608
sS'massacres'
p1631
I3359
sS'sunset'
p1632
I2015
sS'amis'
p1633
I1760
sS'glutton'
p1634
I72
sS'pattern'
p1635
I812
sS'perfumed'
p1636
I1660
sS'review'
p1637
I2028
sS'laws'
p1638
I1570
sS'shop'
p1639
I937
sS'shot'
p1640
I4023
sS'tempered'
p1641
I3542
sS'show'
p1642
I299
sS'taketh'
p1643
I3539
sS'cheap'
p1644
I2550
sS'merit'
p1645
I984
sS'trespass'
p1646
I1270
sS'bright'
p1647
I28
sS'unseeing'
p1648
I1440
sS'scarce'
p1649
I3772
sS'tend'
p1650
I1642
sS'ground'
p1651
I2038
sS'amearst'
p1652
I4186
sS'unstayed'
p1653
I4034
sS'slow'
p1654
I1466
sS'woos'
p1655
I1398
sS'unkind'
p1656
I2739
sS'stair'
p1657
I4042
sS'title'
p1658
I1506
sS'warlike'
p1659
I3960
sS'stained'
p1660
I2545
sS'storms'
p1661
I3896
sS'cloak'
p1662
I1226
sS'crime'
p1663
I803
sS'staid'
p1664
I4183
sS'only'
p1665
I60
sS'wood'
p1666
I2854
sS'black'
p1667
I1041
sS'dispise'
p1668
I3763
sS'partake'
p1669
I3129
sS'deign'
p1670
I3214
sS'robe'
p1671
I1632
sS'shrill'
p1672
I3512
sS'hindmost'
p1673
I2224
sS'renewest'
p1674
I157
sS'get'
p1675
I381
sS"'tis"
p1676
I930
sS'lighten'
p1677
I3339
sS'between'
p1678
I4197
sS'expectation'
p1679
I4351
sS'truly'
p1680
I870
sS'whiles'
p1681
I3355
sS'loath'
p1682
I3748
sS'cannot'
p1683
I1343
sS"world's"
p1684
I54
sS'import'
p1685
I2784
sS'dye'
p1686
I1657
sS'clearest'
p1687
I4358
sS'closure'
p1688
I1547
sS'reveal'
p1689
I3945
sS'lame'
p1690
I1323
sS"viper's"
p1691
I3231
sS'floods'
p1692
I4010
sS'orphans'
p1693
I2397
sS"t'accuse"
p1694
I4067
sS'seeting'
p1695
I3178
sS'morning'
p1696
I1185
sS'naked'
p1697
I995
sS'stupid'
p1698
I3862
sS'ruddy'
p1699
I4104
sS'baits'
p1700
I3904
sS'through'
p1701
I190
sS'unwares'
p1702
I3594
sS'where'
p1703
I43
sS'husband'
p1704
I410
sS'beholding'
p1705
I3983
sS'seas'
p1706
I3791
sS'signs'
p1707
I1932
sS'up'
p1708
I343
sS"fortune's"
p1709
I1322
sS'asleep'
p1710
I3168
sS'expiate'
p1711
I878
sS'successive'
p1712
I2840
sS'seal'
p1713
I534
sS'salutation'
p1714
I2761
sS'jot'
p1715
I4021
sS'sport'
p1716
I2350
sS'budding'
p1717
I2347
sS'culver'
p1718
I4363
sS'wonder'
p1719
I1768
sS'youself'
p1720
I4193
sS'planet'
p1721
I4055
sS'invoked'
p1722
I2097
sS'tongue-tied'
p1723
I1907
sS'sorely'
p1724
I3901
sS'steadfast'
p1725
I3953
sS'compounds'
p1726
I2061
sS'crooked'
p1727
I1788
sS'sourest'
p1728
I2342
sS'dateless'
p1729
I1116
sS'ornament'
p1730
I52
sS'slander'
p1731
I1967
sS'colours'
p1732
I3483
sS'glorious'
p1733
I1186
sS'behind'
p1734
I443
sS'departest'
p1735
I503
sS'complexion'
p1736
I763
sS'sable'
p1737
I550
sS'refreshed'
p1738
I4280
sS'impure'
p1739
I3548
sS'enjoys'
p1740
I454
sS'presage'
p1741
I2509
sS'untainted'
p1742
I810
sS'forsake'
p1743
I569
sS'lays'
p1744
I2407
sS'eye'
p1745
I253
sS'reascend'
p1746
I4350
sS'discloses'
p1747
I1663
sS'pluck'
p1748
I613
sS'pained'
p1749
I3916
sS'blame'
p1750
I1371
sS'countenance'
p1751
I2239
sS'disdainful'
p1752
I3655
sS'reigns'
p1753
I1142
sS'spark'
p1754
I3297
sS'comb'
p1755
I4331
sS'come'
p1756
I719
sS'grieved'
p1757
I1258
sS'dates'
p1758
I2789
sS'many'
p1759
I422
sS'region'
p1760
I1218
sS'priests'
p1761
I3563
sS'quiet'
p1762
I1044
sS'called'
p1763
I1558
sS'sustain'
p1764
I3236
sS'inward'
p1765
I714
sS'dwellers'
p1766
I2823
sS'awards'
p1767
I3022
sS'fa&edry'
p1768
I3713
sS"sea's"
p1769
I859
sS'duty'
p1770
I983
sS'among'
p1771
I568
sS'unthrifts'
p1772
I610
sS'madness'
p1773
I3003
sS'afterwards'
p1774
I2643
sS'moly'
p1775
I3624
sS'unthrifty'
p1776
I202
sS'mightiest'
p1777
I3924
sS'unquiet'
p1778
I3225
sS'dispatch'
p1779
I3042
sS'eisel'
p1780
I2577
sS'slain'
p1781
I893
sS'lothsome'
p1782
I3416
sS'stretched'
p1783
I748
sS'learning'
p1784
I2078
sS'proved'
p1785
I2557
sS'endeavor'
p1786
I4284
sS'famished'
p1787
I1519
sS'consider'
p1788
I653
sS'boat'
p1789
I2145
sS'doctor-like'
p1790
I1908
sS'season'
p1791
I3558
sS'arts'
p1792
I2115
sS'profitless'
p1793
I224
sS"starv'd"
p1794
I3747
sS'self-doing'
p1795
I1752
sS'fleeting'
p1796
I2380
sS"ulysses'"
p1797
I3574
sS'absence'
p1798
I1361
sS'mark'
p1799
I412
sS'breath'
p1800
I1664
sS'subscribes'
p1801
I2518
sS"self's"
p1802
I595
sS'beams'
p1803
I2631
sS'mars'
p1804
I1687
sS'dumps'
p1805
I3969
sS'informer'
p1806
I2836
sS'hardly'
p1807
I3479
sS'wants'
p1808
I4372
sS'spare'
p1809
I4024
sS'straying'
p1810
I1404
sS'robbed'
p1811
I3031
sS'thousand'
p1812
I971
sS'blessing'
p1813
I2165
sS'wretched'
p1814
I2308
sS'wounds'
p1815
I4019
sS'shined'
p1816
I3337
sS'tiger'
p1817
I4002
sS'nobler'
p1818
I3151
sS'spills'
p1819
I3585
sS'wake'
p1820
I1812
sS'external'
p1821
I1654
sS'turn'
p1822
I2343
sS'frantic-mad'
p1823
I3112
sS'masonry'
p1824
I1681
sS'careful'
p1825
I1532
sS'spirit'
p1826
I1712
sS'those'
p1827
I213
sS'sound'
p1828
I2896
sS'clears'
p1829
I3125
sS'myself'
p1830
I3401
sS'enfold'
p1831
I3776
sS'rarities'
p1832
I1794
sS'these'
p1833
I1095
sS'sheaves'
p1834
I558
sS'mount'
p1835
I4199
sS'chace'
p1836
I3652
sS'woxen'
p1837
I3229
sS'compile'
p1838
I2111
sS'cast'
p1839
I1555
sS'warning'
p1840
I1986
sS'graven'
p1841
I2423
sS'cancelled'
p1842
I1120
sS'situation'
p1843
I2869
sS'endured'
p1844
I2507
sS'hunts'
p1845
I4003
sS'invited'
p1846
I3016
sS'anchored'
p1847
I2967
sS'bathe'
p1848
I4207
sS'determination'
p1849
I593
sS"t'achieve"
p1850
I3952
sS'brow'
p1851
I82
sS'gluttoning'
p1852
I2057
sS'middle'
p1853
I356
sS'sudden'
p1854
I3970
sS'embrace'
p1855
I3610
sS'limping'
p1856
I1905
sS'argue'
p1857
I4272
sS'commanded'
p1858
I3138
sS'pinks'
p1859
I4110
sS'awhile'
p1860
I4278
sS'fulfilled'
p1861
I4056
sS'different'
p1862
I2408
sS'eye-glances'
p1863
I3489
sS'harsh'
p1864
I526
sS"tyrants'"
p1865
I2523
sS'strains'
p1866
I2292
sS'inquire'
p1867
I3635
sS'pay'
p1868
I314
sS'freewill'
p1869
I3357
sS'same'
p1870
I256
sS'check'
p1871
I1742
sS'shifts'
p1872
I455
sS'thralls'
p1873
I3696
sS'weakness'
p1874
I2257
sS'streams'
p1875
I1194
sS"'truth"
p1876
I2435
sS'noble'
p1877
I3872
sS'wires'
p1878
I2892
sS'decay'
p1879
I511
sS'sickness'
p1880
I2703
sS'tyrannous'
p1881
I2899
sS'defy'
p1882
I2793
sS'drives'
p1883
I3553
sS'weed'
p1884
I102
sS'fruit'
p1885
I2395
sS'scorned'
p1886
I742
sS'extern'
p1887
I2819
sS'changing'
p1888
I769
sS'weep'
p1889
I441
sS"slander's"
p1890
I1963
sS'clogged'
p1891
I4201
sS'vowed'
p1892
I3190
sS'weave'
p1893
I3271
sS'complained'
p1894
I3922
sS'purer'
p1895
I3342
sS'woodbine'
p1896
I4195
sS'plaints'
p1897
I3437
sS'dear-purchased'
p1898
I2688
sS'throned'
p1899
I2366
sS'floor'
p1900
I3529
sS'costs'
p1901
I2303
sS'relief'
p1902
I1246
sS'trains'
p1903
I3902
sS'very'
p1904
I257
sS'reward'
p1905
I4342
sS'extermities'
p1906
I3760
sS'amazed'
p1907
I3249
sS'justify'
p1908
I2989
sS'distills'
p1909
I1669
sS'summer'
p1910
I263
sS'desolate'
p1911
I4014
sS'manifold'
p1912
I3455
sS'ransoms'
p1913
I2756
sS'fester'
p1914
I2344
sS'being'
p1915
I108
sS'when'
p1916
I87
sS'weeds'
p1917
I1956
sS'sights'
p1918
I4316
sS'shamefully'
p1919
I1898
sS'over-plus'
p1920
I2950
sS"abondon'd"
p1921
I3423
sS'imprint'
p1922
I2075
sS'bareness'
p1923
I276
sS'wrecks'
p1924
I3609
sS'cease'
p1925
I514
sS'vanquished'
p1926
I3659
sS'aspect'
p1927
I1001
sS'kind-hearted'
p1928
I496
sS'touch'
p1929
I3180
sS'speed'
p1930
I1587
sS'guides'
p1931
I998
sS'captured'
p1932
I4209
sS'blow'
p1933
I2807
sS'renewed'
p1934
I2574
sS'unwooed'
p1935
I1666
sS'thinking'
p1936
I1992
sS'rose'
p1937
I10
sS'seems'
p1938
I2467
sS"summer's"
p1939
I280
sS"summers'"
p1940
I2468
sS'instrument'
p1941
I3979
sS'verse'
p1942
I720
sS'setting'
p1943
I4306
sS'suppressed'
p1944
I2984
sS'astonishment'
p1945
I3251
sS'dully'
p1946
I1583
sS'valley-fountain'
p1947
I3175
sS'struck'
p1948
I2228
sS'pill'
p1949
I3621
sS'kingdom'
p1950
I1851
sS'boast'
p1951
I949
sS'frown'
p1952
I963
sS'kills'
p1953
I1459
sS'read'
p1954
I639
sS'offence'
p1955
I1599
sS'sums'
p1956
I227
sS'dart'
p1957
I2993
sS'dark'
p1958
I1434
sS'traffic'
p1959
I230
sS'beseechers'
p1960
I2956
sS"look's"
p1961
I3462
sS'confined'
p1962
I2485
sS'world'
p1963
I76
sS'snare'
p1964
I3774
sS'aiming'
p1965
I3474
sS'lady'
p1966
I3404
sS'dare'
p1967
I1009
sS'acquainted'
p1968
I821
sS'fortune'
p1969
I628
sS'goodly'
p1970
I2148
sS'achieve'
p1971
I1915
sS'maintained'
p1972
I3765
sS'miracle'
p1973
I1884
sS'lightning'
p1974
I3328
sS'invention'
p1975
I1345
sS'benefit'
p1976
I1047
sS'beguiled'
p1977
I1757
sS'miraculous'
p1978
I3680
sS'either'
p1979
I1528
sS'robbery'
p1980
I1377
sS'offenders'
p1981
I1417
sS'tower'
p1982
I4130
sS'wend'
p1983
I3894
sS'tombed'
p1984
I239
sS'fulfil'
p1985
I2958
sS'unrighteous'
p1986
I3350
sS'wooers'
p1987
I3576
sS'what'
p1988
I238
sS'truths'
p1989
I2372
sS'servile'
p1990
I4210
sS'elements'
p1991
I1467
sS'respect'
p1992
I1007
sS'images'
p1993
I1155
sS'swerving'
p1994
I2249
sS'divine'
p1995
I2527
sS'thinks'
p1996
I1734
sS'choir'
p1997
I3516
sS'matchable'
p1998
I4141
sS'mood'
p1999
I3240
sS'courses'
p2000
I1764
sS'curious'
p2001
I1351
sS'noon'
p2002
I378
sS'footing'
p2003
I4263
sS'stops'
p2004
I2450
sS'moon'
p2005
I860
sS'forgoing'
p2006
I2827
sS'spotless'
p2007
I4133
sS'expressing'
p2008
I2488
sS'self-loving'
p2009
I1829
sS'knife'
p2010
I1840
sS'destroys'
p2011
I458
sS'felt'
p2012
I2381
sS'snowy'
p2013
I4108
sS'power'
p2014
I1866
sS'seconds'
p2015
I2833
sS'extremest'
p2016
I3842
sS'strained'
p2017
I2175
sS'olives'
p2018
I2514
sS'breasts'
p2019
I2890
sS'forgetfulness'
p2020
I2783
sS'broken'
p2021
I1798
sS'lodestar'
p2022
I3734
sS'embase'
p2023
I3482
sS"o'er-green"
p2024
I2588
sS'assemble'
p2025
I2630
sS'prepared'
p2026
I4345
sS'throw'
p2027
I2592
sS'fondness'
p2028
I3785
sS'tread'
p2029
I3530
sS'on'
p2030
I92
sS'stone'
p2031
I1677
sS'subdued'
p2032
I2572
sS'lioness'
p2033
I3535
sS'zealous'
p2034
I1025
sS'of'
p2035
I101
sS'choirs'
p2036
I2010
sS'feil'
p2037
I2721
sS'greater'
p2038
I1380
sS'whence'
p2039
I1548
sS'enbrew'
p2040
I3978
sS'wolf'
p2041
I2374
sS'stand'
p2042
I700
sS'west'
p2043
I1206
sS'mixed'
p2044
I2834
sS'bond'
p2045
I2942
sS'or'
p2046
I75
sS'diversely'
p2047
I3985
sS'imitated'
p2048
I1647
sS'ladies'
p2049
I2497
sS'long-lived'
p2050
I793
sS'burning'
p2051
I342
sS'weighs'
p2052
I2531
sS'distempered'
p2053
I3183
sS'image'
p2054
I197
sS'skilled'
p2055
I4053
sS'blessed'
p2056
I697
sS'guiltless'
p2057
I3537
sS'penelope'
p2058
I3575
sS'aswage'
p2059
I3900
sS'rues'
p2060
I3993
sS'rising'
p2061
I3153
sS'lively'
p2062
I1922
sS'dreaming'
p2063
I2505
sS'blesses'
p2064
I2352
sS'early'
p2065
I1211
sS'your'
p2066
I582
sS'bends'
p2067
I2669
sS'buds'
p2068
I753
sS"oaths'"
p2069
I3161
sS'fast'
p2070
I501
sS'prepare'
p2071
I586
sS'emprize'
p2072
I4172
sS'there'
p2073
I266
sS'disposed'
p2074
I2256
sS'desert'
p2075
I1567
sS'start'
p2076
I3848
sS'stealth'
p2077
I2081
sS"whate'er"
p2078
I800
sS"'i"
p2079
I3068
sS'lot'
p2080
I4296
sS'house'
p2081
I600
sS'mollify'
p2082
I3701
sS'bubble'
p2083
I4036
sS'leach'
p2084
I3935
sS'afresh'
p2085
I1121
sS'mischief'
p2086
I4343
sS'groan'
p2087
I1594
sS'enough'
p2088
I1234
sS"you'"
p2089
I3077
sS'regard'
p2090
I3931
sS"dyer's"
p2091
I2573
sS'delayed'
p2092
I3676
sS'strikes'
p2093
I415
sS'meetness'
p2094
I2708
sS'shroud'
p2095
I3629
sS'land'
p2096
I1454
sS'brain'
p2097
I2089
sS'wouds'
p2098
I4027
sS'with'
p2099
I36
sS'faster'
p2100
I2427
sS'abused'
p2101
I2180
sS'hire'
p2102
I3912
sS'applying'
p2103
I2729
sS'naming'
p2104
I2353
sS'rage'
p2105
I607
sS'half-trembling'
p2106
I4159
sS'grudging'
p2107
I4052
sS'niggarding'
p2108
I66
sS'self-same'
p2109
I671
sS'strawberry'
p2110
I4111
sS'sadness'
p2111
I3808
sS'scorning'
p2112
I3356
sS'impute'
p2113
I2189
sS'abuses'
p2114
I2766
sS'define'
p2115
I1819
sS'agree'
p2116
I3597
sS'minded'
p2117
I515
sS'strongly'
p2118
I982
sS'gone'
p2119
I233
sS'intents'
p2120
I2650
sS'palate'
p2121
I2637
sS'surly'
p2122
I1984
sS'subdue'
p2123
I4233
sS'taste'
p2124
I1375
sS'ah'
p2125
I437
sS'accents'
p2126
I1950
sS'stealing'
p2127
I1208
sS'am'
p2128
I875
sS'deep'
p2129
I90
sS'an'
p2130
I119
sS'toiled'
p2131
I974
sS'excusing'
p2132
I1276
sS'deem'
p2133
I1655
sS'ensuing'
p2134
I4065
sS'carved'
p2135
I535
sS'walks'
p2136
I2270
sS'ay'
p2137
I1403
sS'aught'
p2138
I1340
sS'horse'
p2139
I1607
sS"hearts'"
p2140
I3868
sS'fill'
p2141
I1707
sS'tedious'
p2142
I3720
sS'again'
p2143
I597
sS'proudly'
p2144
I2900
sS'want'
p2145
I946
sS'pledge'
p2146
I3847
sS"judgment's"
p2147
I2906
sS'deserve'
p2148
I3035
sS"helen's"
p2149
I1650
sS'green'
p2150
I560
sS'repent'
p2151
I1245
sS'orient'
p2152
I337
sS'roses'
p2153
I1263
sS'you'
p2154
I581
sS'dismayed'
p2155
I3298
sS'cypress'
p2156
I3620
sS'abysm'
p2157
I2593
sS'poor'
p2158
I989
sS'reighneth'
p2159
I3533
sS'perils'
p2160
I3733
sS'translated'
p2161
I2371
sS'time'
p2162
I15
sS'merchants'
p2163
I3440
sS'gifts'
p2164
I2464
sS'lovers'
p2165
I1152
sS'suited'
p2166
I2850
sS'brass'
p2167
I1850
sS'celestial'
p2168
I1200
sS'sequent'
p2169
I1782
sS"treason's"
p2170
I3390
sS'building'
p2171
I2149
sS'backward'
p2172
I1763
sS'remote'
p2173
I1449
sS'calls'
p2174
I186
sS'wife'
p2175
I438
sS"life's"
p2176
I1485
sS'mask'
p2177
I3990
sS"'stonished"
p2178
I3461
sS'having'
p2179
I231
sS'extant'
p2180
I2186
sS'repay'
p2181
I2685
sS'hugely'
p2182
I2813
sS'treason'
p2183
I3150
sS'apparel'
p2184
I1005
sS'tanned'
p2185
I1824
sS'unset'
p2186
I701
sS'maturity'
p2187
I1786
sS'all'
p2188
I106
sS'forget'
p2189
I904
sS'vile'
p2190
I1988
sS'suns'
p2191
I1223
sS'forbidden'
p2192
I311
sS'lack'
p2193
I1111
sS'neigh'
p2194
I1611
sS'bosoms'
p2195
I2752
sS'importune'
p2196
I3032
sS'seals'
p2197
I2016
sS'unrest'
p2198
I3111
sS"'gainst"
p2199
I483
sS'forged'
p2200
I2969
sS'welfare'
p2201
I2709
sS'dish'
p2202
I4252
sS'follow'
p2203
I3046
sS'meditation'
p2204
I1881
sS'lace'
p2205
I1917
sS'children'
p2206
I2092
sS'oaths'
p2207
I3164
sS'dreadful'
p2208
I3689
sS'wanton'
p2209
I2389
sS'wish'
p2210
I704
sS'homage'
p2211
I347
sS'sparkling'
p2212
I1069
sS'deceivest'
p2213
I1372
sS"keep'st"
p2214
I3127
sS'revengeful'
p2215
I3649
sS'lustfull'
p2216
I4308
sS'captivity'
p2217
I4125
sS'dressing'
p2218
I2069
sS"is't"
p2219
I1355
sS'nurseth'
p2220
I3102
sS'hideous'
p2221
I270
sS'subtleties'
p2222
I2978
sS'case'
p2223
I1576
sS'woman'
p2224
I844
sS'worse'
p2225
I1774
sS'bowers'
p2226
I4101
sS'song'
p2227
I423
sS'far'
p2228
I1023
sS'caught'
p2229
I3778
sS'saved'
p2230
I3080
sS'coloured'
p2231
I3056
sS'oblation'
p2232
I2832
sS'sufficeth'
p2233
I4096
sS'aware'
p2234
I3779
sS'novel'
p2235
I2786
sS'worst'
p2236
I814
sS'invent'
p2237
I1332
sS'fall'
p2238
I599
sS'awful'
p2239
I3412
sS'hems'
p2240
I866
sS'difference'
p2241
I2487
sS'cunningly'
p2242
I3770
sS'strand'
p2243
I4224
sS'vouchsafe'
p2244
I1167
sS'heaven'
p2245
I634
sS'profane'
p2246
I2272
sS'list'
p2247
I1749
sS'sympathized'
p2248
I2176
sS'large'
p2249
I1462
sS'sang'
p2250
I2007
sS'undone'
p2251
I3582
sS'plain'
p2252
I2178
sS'mistaking'
p2253
I2251
sS"t'"
p2254
I2713
sS'wantonness'
p2255
I2363
sS'relenting'
p2256
I3641
sS"i'll"
p2257
I1182
sS'quicker'
p2258
I1477
sS'ten'
p2259
I319
sS'outworn'
p2260
I1845
sS'lascivious'
p2261
I1384
sS'past'
p2262
I543
sS'winds'
p2263
I756
sS'hope'
p2264
I993
sS'titles'
p2265
I950
sS'rhymes'
p2266
I3220
sS'pass'
p2267
I1559
sS'further'
p2268
I4354
sS'affable'
p2269
I2235
sS'befriends'
p2270
I2738
sS'crests'
p2271
I2522
sS'creatures'
p2272
I4
sS'conscience'
p2273
I3147
sS'gazers'
p2274
I2379
sS'sue'
p2275
I2947
sS'defence'
p2276
I574
sS'stood'
p2277
I3460
sS'darkness'
p2278
I1031
sS'sweetly'
p2279
I407
sS'clock'
p2280
I539
sS'sun'
p2281
I861
sS'wrecked'
p2282
I2147
sS'gardens'
p2283
I702
sS'plast'
p2284
I3732
sS'brief'
p2285
I627
sS'stoop'
p2286
I4142
sS'prevailed'
p2287
I1399
sS'dints'
p2288
I3313
sS'foison'
p2289
I1653
sS'unseen'
p2290
I1207
sS'ill-wresting'
p2291
I3004
sS'learned'
p2292
I2939
sS'doting'
p2293
I2901
sS'themselves'
p2294
I570
sS'womb'
p2295
I166
sS'turmoil'
p2296
I3381
sS'full'
p2297
I1187
sS'ranged'
p2298
I2538
sS'loose'
p2299
I4269
sS'answers'
p2300
I1595
sS'revenge'
p2301
I3135
sS'hours'
p2302
I251
sS'ensconce'
p2303
I1566
sS'so-hot'
p2304
I3672
sS'nimble'
p2305
I1457
sS'excess'
p2306
I3087
sS'hast'
p2307
I444
sS'depend'
p2308
I2312
sS'yellowed'
p2309
I738
sS'table'
p2310
I929
sS'tragedy'
p2311
I3992
sS'speeches'
p2312
I4333
sS'colored'
p2313
I3268
sS'enmity'
p2314
I1689
sS'inspired'
p2315
I3324
sS'losses'
p2316
I1136
sS'dearths'
p2317
I624
sS'qualify'
p2318
I2536
sS'stiffness'
p2319
I4320
sS'action'
p2320
I1870
sS'steepy'
p2321
I1834
sS'sweetness'
p2322
I2328
sS"day's"
p2323
I1051
sS'followed'
p2324
I3074
sS'untold'
p2325
I2962
sS'suddenly'
p2326
I3476
sS'impiety'
p2327
I1914
sS'tendered'
p2328
I2750
sS'amazement'
p2329
I3745
sS"lion's"
p2330
I781
sS'entrap'
p2331
I3391
sS'plights'
p2332
I4318
sS'self-love'
p2333
I179
sS'taker'
p2334
I2883
sS'proceed'
p2335
I2066
sS'cherubins'
p2336
I2628
sS'wiped'
p2337
I4229
sS'faint'
p2338
I2129
sS'single'
p2339
I198
sS'two'
p2340
I1294
sS'pearl'
p2341
I1254
sS'morn'
p2342
I1210
sS'warmed'
p2343
I3194
sS'endowed'
p2344
I528
sS'taken'
p2345
I2674
sS'injury'
p2346
I1381
sS'more'
p2347
I123
sS'horses'
p2348
I2307
sS'triumphant'
p2349
I1213
sS'darting'
p2350
I3467
sS'unlearned'
p2351
I2979
sS'knows'
p2352
I725
sS'delves'
p2353
I1793
sS"ow'st"
p2354
I772
sS'foregone'
p2355
I1125
sS'spoils'
p2356
I2426
sS'possession'
p2357
I773
sS'excuse'
p2358
I1416
sS'lameness'
p2359
I2267
sS"dian's"
p2360
I3170
sS'deigned'
p2361
I4304
sS'broke'
p2362
I3040
sS'varying'
p2363
I2489
sS'known'
p2364
I1382
sS'mounted'
p2365
I1604
sS'glad'
p2366
I798
sS'cunning'
p2367
I947
sS'weighed'
p2368
I4200
sS'fleece'
p2369
I1940
sS'hour'
p2370
I1214
sS'besides'
p2371
I2601
sS'languishment'
p2372
I4063
sS'remain'
p2373
I1300
sS'nine'
p2374
I1349
sS'den'
p2375
I3831
sS'dazed'
p2376
I3248
sS'langor'
p2377
I3752
sS'history'
p2378
I2321
sS'beautiful'
p2379
I2495
sS'stubborn'
p2380
I3654
sS'compare'
p2381
I751
sS'attainted'
p2382
I2258
sS'visage'
p2383
I1204
sS'lives'
p2384
I244
sS'neglected'
p2385
I3044
sS'conspire'
p2386
I481
sS'accept'
p2387
I3570
sS'thievish'
p2388
I1551
sS'sphere'
p2389
I4059
sS'rise'
p2390
I2422
sS'numbers'
p2391
I731
sS'sense'
p2392
I1277
sS'phrase'
p2393
I2212
sS'dress'
p2394
I1942
sS'simple'
p2395
I1911
sS'firmly'
p2396
I4160
sS'low'
p2397
I377
sS'huge'
p2398
I662
sS'siren'
p2399
I2724
sS'court'
p2400
I3395
sS'calms'
p2401
I4088
sS'drained'
p2402
I1833
sS'rather'
p2403
I2791
sS"'thus"
p2404
I1580
sS'breaking'
p2405
I3398
sS'enlarge'
p2406
I3715
sS'fame'
p2407
I2133
sS"adder's"
p2408
I2595
sS'glowing'
p2409
I2017
sS"heart's"
p2410
I1512
sS'freshly'
p2411
I4084
sS'strong'
p2412
I358
sS'stir'
p2413
I3549
sS"'not"
p2414
I3078
sS'creature'
p2415
I2615
sS'mould'
p2416
I3997
sS'simplicity'
p2417
I1909
sS'pleasure'
p2418
I397
sS'tried'
p2419
I3294
sS'rude'
p2420
I524
sS'disgraced'
p2421
I1901
sS'derived'
p2422
I3221
sS"foes'"
p2423
I3882
sS'mended'
p2424
I1770
sS'whilst'
p2425
I954
sS'blood'
p2426
I147
sS'waves'
p2427
I1777
sS'replete'
p2428
I901
sS'a'
p2429
I45
sS'refuse'
p2430
I3141
sS'short'
p2431
I758
sS"pleasure's"
p2432
I4202
sS'resemble'
p2433
I2627
sS'shady'
p2434
I2082
sS'register'
p2435
I2525
sS'spiteful'
p2436
I4334
sS'jove'
p2437
I3803
sS'moved'
p2438
I3371
sS'graceth'
p2439
I3406
sS'shore'
p2440
I1715
sS'rebuked'
p2441
I2737
sS'dread'
p2442
I3711
sS'shade'
p2443
I775
sS'perjured'
p2444
I2873
sS'banks'
p2445
I1716
sS'shorn'
p2446
I1937
sS"gav'st"
p2447
I895
sS'cruelties'
p2448
I3927
sS'dream'
p2449
I2254
sS"that's"
p2450
I317
sS'recite'
p2451
I1997
sS'adorned'
p2452
I3457
sS'played'
p2453
I928
sS'help'
p2454
I1302
sS'winged'
p2455
I1605
sS'flowers'
p2456
I295
sS'stays'
p2457
I3152
sS'soon'
p2458
I1458
sS'soom'
p2459
I4302
sS'trade'
p2460
I3947
sS'disabled'
p2461
I1903
sS'held'
p2462
I98
sS'paper'
p2463
I1338
sS'comfortless'
p2464
I3737
sS'committed'
p2465
I2730
sS'hell'
p2466
I1754
sS'drossy'
p2467
I3419
sS'suffer'
p2468
I1741
sS'saucy'
p2469
I2139
sS'merchandized'
p2470
I2442
sS'pent'
p2471
I282
sS'thrilling'
p2472
I3756
sS'thereon'
p2473
I4259
sS'glide'
p2474
I3488
sS'termed'
p2475
I744
sS'pray'
p2476
I3051
sS'wishful'
p2477
I4364
sS'deeds'
p2478
I1256
sS'bosom'
p2479
I462
sS'teeming'
p2480
I2387
sS'hounds'
p2481
I2296
sS'late'
p2482
I2009
sS'resort'
p2483
I2364
sS'dross'
p2484
I3092
sS'parts'
p2485
I408
sS'threescore'
p2486
I519
sS'ruining'
p2487
I2822
sS"craftsman's"
p2488
I3495
sS'self-willed'
p2489
I331
sS'bereft'
p2490
I285
sS'alter'
p2491
I1306
sS'crawls'
p2492
I1787
sS'fool'
p2493
I1733
sS'evening'
p2494
I4347
sS'return'
p2495
I1046
sS'calm'
p2496
I3336
sS'seeking'
p2497
I486
sS'motley'
p2498
I2549
sS'distilled'
p2499
I294
sS'ye'
p2500
I1415
sS'storm-beaten'
p2501
I1235
sS'speechless'
p2502
I424
sS'walls'
p2503
I281
sS'nymphs'
p2504
I3191
sS'rank'
p2505
I1958
sS'compound'
p2506
I2828
sS'foot'
p2507
I1451
sS'hunted'
p2508
I2878
sS'antiquity'
p2509
I1823
sS"mistress'"
p2510
I2848
sS'complain'
p2511
I1059
sS'mystery'
p2512
I3603
sS'likeness'
p2513
I3020
sS'hereafter'
p2514
I4214
sS'imprisoned'
p2515
I1637
sS'always'
p2516
I2068
sS'loosly'
p2517
I4246
sS'loosely'
p2518
I3286
sS'eloquence'
p2519
I913
sS'ashes'
p2520
I2018
sS'stopped'
p2521
I2597
sS'exiled'
p2522
I3963
sS'blest'
p2523
I1717
sS'found'
p2524
I1424
sS'heavy'
p2525
I1442
sS"put'st"
p2526
I2944
sS'proud-pied'
p2527
I2403
sS'restless'
p2528
I3372
sS'weight'
p2529
I1582
sS'sullied'
p2530
I689
sS'jaws'
p2531
I787
sS'fish'
p2532
I3905
sS'hard'
p2533
I2748
sS'oppressed'
p2534
I1052
sS'idea'
p2535
I3887
sS'fist'
p2536
I2941
sS"nature's"
p2537
I210
sS'slave'
p2538
I1721
sS'beyond'
p2539
I2773
sS'incertainties'
p2540
I2512
sS'harp'
p2541
I3793
sS'travels'
p2542
I2539
sS'flower'
p2543
I1869
sS'missed'
p2544
I2777
sS"fancy's"
p2545
I3254
sS'wise'
p2546
I1996
sS'since'
p2547
I572
sS'publish'
p2548
I2443
sS'dregs'
p2549
I2031
sS'admired'
p2550
I2204
sS'safety'
p2551
I4093
sS'hill'
p2552
I352
sS'avenge'
p2553
I3910
sS'paradise'
p2554
I4237
sS'print'
p2555
I537
sS'darling'
p2556
I754
sS'drizling'
p2557
I3499
sS'issue'
p2558
I598
sS'nest'
p2559
I4236
sS'fled'
p2560
I1985
sS'stewards'
p2561
I2339
sS'boldness'
p2562
I2864
sS'belied'
p2563
I2898
sS'arion'
p2564
I3790
sS'commits'
p2565
I466
sS'fore-bemoaned'
p2566
I1129
sS'forgive'
p2567
I1378
sS'pleasant'
p2568
I2451
sS'reason'
p2569
I2641
sS'base'
p2570
I1229
sS'members'
p2571
I3939
sS'impeached'
p2572
I2838
sS'put'
p2573
I900
sS'inure'
p2574
I3551
sS'teach'
p2575
I1577
sS'wretches'
p2576
I3836
sS'reproach'
p2577
I2757
sS"excuse'"
p2578
I133
sS"know'st"
p2579
I1418
sS'guest'
p2580
I1526
sS'thrown'
p2581
I3792
sS'nightly'
p2582
I1075
sS'owners'
p2583
I2335
sS'service'
p2584
I3136
sS'needing'
p2585
I2710
sS'but'
p2586
I21
sS"year's"
p2587
I3587
sS'sicken'
p2588
I2705
sS'unaware'
p2589
I4191
sS'corrupting'
p2590
I1274
sS'seemeth'
p2591
I3749
sS'feed'
p2592
I3097
sS'gazed'
p2593
I93
sS'seeming'
p2594
I421
sS'forwards'
p2595
I1781
sS'blush'
p2596
I1923
sS'feel'
p2597
I1546
sS'number'
p2598
I730
sS'fancy'
p2599
I4205
sS'breathers'
p2600
I2158
sS'feet'
p2601
I3238
sS'elder'
p2602
I883
sS'enlarged'
p2603
I1977
sS'revolution'
p2604
I1771
sS'done'
p2605
I940
sS'defects'
p2606
I1553
sS'dreading'
p2607
I2400
sS'narcissus'
p2608
I3744
sS'miss'
p2609
I4371
sS'stage'
p2610
I661
sS'rents'
p2611
I3028
sS'moan'
p2612
I1124
sS'guess'
p2613
I1954
sS'heads'
p2614
I3661
sS'temperature'
p2615
I3411
sS'blossom'
p2616
I4072
sS'twenty'
p2617
I3162
sS'threatening'
p2618
I3284
sS'slanderers'
p2619
I3007
sS'least'
p2620
I497
sS'hallowed'
p2621
I2530
sS'pricketh'
p2622
I3614
sS'wonderful'
p2623
I3686
sS'smile'
p2624
I3555
sS'passed'
p2625
I1974
sS'marble'
p2626
I1672
sS'essays'
p2627
I2558
sS'hundred'
p2628
I1765
sS'store'
p2629
I520
sS'wonderment'
p2630
I3253
sS'youngly'
p2631
I505
sS'selling'
p2632
I3093
sS'imperfect'
p2633
I1441
sS'saint'
p2634
I3061
sS'thirst'
p2635
I4156
sS'vantage'
p2636
I2264
sS'adonis'
p2637
I1645
sS'part'
p2638
I898
sS'tradefull'
p2639
I3441
sS"grow'st"
p2640
I500
sS'believe'
p2641
I721
sS"what's"
p2642
I2316
sS'grace'
p2643
I945
sS'king'
p2644
I1837
sS'kind'
p2645
I494
sS'grew'
p2646
I2195
sS'mortality'
p2647
I1868
sS'vial'
p2648
I308
sS'gotten'
p2649
I4178
sS'anticipate'
p2650
I2712
sS'mortgaged'
p2651
I2935
sS'grey'
p2652
I2912
sS'shallowest'
p2653
I2143
sS'youth'
p2654
I357
sS'autumn'
p2655
I2386
sS'determined'
p2656
I1510
sS'contrary'
p2657
I1827
sS'supposed'
p2658
I1140
sS'garland'
p2659
I3514
sS'kindle'
p2660
I3311
sS'lease'
p2661
I591
sS'restful'
p2662
I1887
sS'tongues'
p2663
I1947
sS'vacant'
p2664
I2077
sS'wrongest'
p2665
I3275
sS'trifles'
p2666
I1539
sS'well'
p2667
I447
sS'plead'
p2668
I918
sS'ages'
p2669
I2438
sS'defect'
p2670
I1962
sS'needs'
p2671
I1288
sS'new-fired'
p2672
I3179
sS'alike'
p2673
I2483
sS'showers'
p2674
I2039
sS'gladsome'
p2675
I4085
sS'gall'
p2676
I3857
sS'travail'
p2677
I2121
sS'odors'
p2678
I4100
sS'fading'
p2679
I801
sS'sensual'
p2680
I1280
sS'sell'
p2681
I874
sS'mountain'
p2682
I1190
sS'speaking'
p2683
I914
sS'built'
p2684
I2736
sS'depending'
p2685
I3606
sS'trance'
p2686
I3816
sS'forepast'
p2687
I4083
sS'port'
p2688
I3407
sS'onset'
p2689
I2291
sS'also'
p2690
I3237
sS'without'
p2691
I513
sS'lip'
p2692
I2499
sS'build'
p2693
I3568
sS'frail'
p2694
I3247
sS'finding'
p2695
I2167
sS'anthems'
p2696
I3518
sS"angel's"
p2697
I3223
sS'chary'
p2698
I887
sS"art's"
p2699
I2843
sS"'had"
p2700
I1171
sS'towards'
p2701
I1617
sS'quoth'
p2702
I3657
sS'oft'
p2703
I636
sS'death'
p2704
I327
sS'reckon'
p2705
I2765
sS'sets'
p2706
I686
sS'unswayed'
p2707
I3021
sS'unused'
p2708
I241
sS'most'
p2709
I477
sS'charm'
p2710
I3908
sS'remembreth'
p2711
I3414
sS'blunting'
p2712
I1623
sS'daphne'
p2713
I3647
sS'seasons'
p2714
I796
sS"o'ercharged"
p2715
I912
sS'wastes'
p2716
I567
sS'measured'
p2717
I1579
sS'appear'
p2718
I1148
sS'chronicle'
p2719
I2492
sS'feasting'
p2720
I2050
sS'windows'
p2721
I189
sS"adders'"
p2722
I4327
sS'clear'
p2723
I1439
sS'sometimes'
p2724
I1593
sS'cover'
p2725
I879
sS'naught'
p2726
I3315
sS'unbred'
p2727
I2479
sS'flits'
p2728
I3991
sS'dissolved'
p2729
I3673
sS'treasures'
p2730
I3442
sS'reeleth'
p2731
I369
sS'barren'
p2732
I551
sS'bower'
p2733
I2845
sS'charged'
p2734
I1975
sS'diverse'
p2735
I3269
sS'lying'
p2736
I3186
sS'stones'
p2737
I1629
sS'self-substantial'
p2738
I35
sS'despise'
p2739
I3008
sS'gold'
p2740
I764
sS'gates'
p2741
I1880
sS"y'have"
p2742
I2744
sS'wailing'
p2743
I1413
sS'fond'
p2744
I174
sS'violet'
p2745
I544
sS'page'
p2746
I2533
sS'rhymers'
p2747
I1348
sS'wasted'
p2748
I2491
sS'registers'
p2749
I2794
sS'expressed'
p2750
I919
sS'heavens'
p2751
I3898
sS'fine'
p2752
I924
sS'find'
p2753
I594
sS'viewest'
p2754
I149
sS'sportive'
p2755
I2760
sS'gilded'
p2756
I1671
sS'aggravate'
p2757
I3091
sS'shouldst'
p2758
I325
sS'deserts'
p2759
I722
sS'unperfect'
p2760
I897
sS"t'increase"
p2761
I3835
sS'justice'
p2762
I3405
sS'ruin'
p2763
I1862
sS'less'
p2764
I741
sS'waiting'
p2765
I1755
sS'vision'
p2766
I2612
sS'erect'
p2767
I4170
sS'unjustly'
p2768
I3917
sS'tempests'
p2769
I2672
sS'defiled'
p2770
I3536
sS'fiend'
p2771
I3064
sS'hardened'
p2772
I3608
sS"painter's"
p2773
I933
sS'ordained'
p2774
I3913
sS'niggard'
p2775
I217
sS'dust'
p2776
I1158
sS'gains'
p2777
I1926
sS'mercy'
p2778
I3072
sS'compiled'
p2779
I2207
sS'express'
p2780
I2526
sS'impregnable'
p2781
I1876
sS'trees'
p2782
I552
sS'slime'
p2783
I3418
sS'famous'
p2784
I3664
sS'remedy'
p2785
I1817
sS'hid'
p2786
I1117
sS'rest'
p2787
I976
sS'closely'
p2788
I3471
sS'compass'
p2789
I2679
sS'swart-complexioned'
p2790
I1065
sS'sepulchres'
p2791
I1938
sS"send'st"
p2792
I1801
sS'banner'
p2793
I3291
sS'him'
p2794
I267
sS'merchandise'
p2795
I4294
sS'cruelly'
p2796
I3841
sS'grievances'
p2797
I1126
sS'cries'
p2798
I1079
sS'pleasures'
p2799
I2398
sS'diamond'
p2800
I3346
sS'cry'
p2801
I1886
sS'impanelled'
p2802
I1505
sS'remove'
p2803
I978
sS'bird'
p2804
I2609
sS'common'
p2805
I1961
sS'physicians'
p2806
I3000
sS'double'
p2807
I2110
sS'dumpish'
p2808
I3259
sS'kill'
p2809
I1387
sS'poisoned'
p2810
I2639
sS'scath'
p2811
I3693
sS'wrote'
p2812
I4225
sS'disperse'
p2813
I2101
sS'sew'
p2814
I3365
sS'bars'
p2815
I952
sS'set'
p2816
I1626
sS'art'
p2817
I56
sS'declines'
p2818
I766
sS'jade'
p2819
I1612
sS'haughty'
p2820
I3432
sS'heares'
p2821
I4290
sS"o'ersways"
p2822
I1867
sS'lion'
p2823
I3531
sS'bare'
p2824
I992
sS'are'
p2825
I212
sS'sea'
p2826
I1455
sS'tender'
p2827
I26
sS'close'
p2828
I3280
sS'bark'
p2829
I2138
sS'comfort'
p2830
I1324
sS'feared'
p2831
I4048
sS'threats'
p2832
I3807
sS'spirits'
p2833
I2227
sS'horrid'
p2834
I4335
sS"enur'd"
p2835
I3431
sS'forlorn'
p2836
I1205
sS'firmest'
p2837
I3502
sS'please'
p2838
I1062
sS'drooping'
p2839
I1029
sS'unpityed'
p2840
I3377
sS'won'
p2841
I1396
sS'happiness'
p2842
I4208
sS'affairs'
p2843
I1732
sS'woe'
p2844
I1119
sS'silly'
p2845
I3534
sS'burned'
p2846
I2474
sS'corruption'
p2847
I4271
sS'thrive'
p2848
I642
sS'endure'
p2849
I3176
sS'knowing'
p2850
I2130
sS'milder'
p2851
I4158
sS'iron'
p2852
I3702
sS'spun'
p2853
I3584
sS'sold'
p2854
I2551
sS'sole'
p2855
I1305
sS'spray'
p2856
I3830
sS'blot'
p2857
I1063
sS'mirth'
p2858
I3989
sS'baleful'
p2859
I3593
sS'alters'
p2860
I2667
sS'beholder'
p2861
I3469
sS'both'
p2862
I1264
sS'toward'
p2863
I464
sS'joyous'
p2864
I4094
sS'grounded'
p2865
I1818
sS'desired'
p2866
I2268
sS'thou'
p2867
I33
sS'frieseth'
p2868
I3708
sS'elizabeths'
p2869
I4223
sS'anon'
p2870
I1199
sS'objects'
p2871
I2610
sS'forgotten'
p2872
I2152
sS'let'
p2873
I305
sS'mean'
p2874
I3885
sS'afar'
p2875
I3050
sS'finds'
p2876
I2300
sS'league'
p2877
I1516
sS'usest'
p2878
I1370
sS'flies'
p2879
I1965
sS'onward'
p2880
I1598
sS'consume'
p2881
I3343
sS'majesty'
p2882
I348
sS'point'
p2883
I1622
sS'liken'
p2884
I3826
sS'sweet'
p2885
I50
sS'loan'
p2886
I312
sS'manners'
p2887
I1354
sS'harbour'
p2888
I4238
sS'except'
p2889
I3110
sS'key'
p2890
I1618
sS'simply'
p2891
I2983
sS'worthless'
p2892
I2146
sS'devil'
p2893
I3060
sS'unworthiness'
p2894
I3146
sS'raise'
p2895
I3523
sS"'scaped"
p2896
I2280
sS'arrest'
p2897
I2024
sS'stamp'
p2898
I2171
sS'devouring'
p2899
I783
sS'acceptance'
p2900
I2954
sS'satire'
p2901
I2425
sS'due'
p2902
I80
sS'guilefull'
p2903
I3903
sS'staineth'
p2904
I1221
sS'quench'
p2905
I4157
sS'secret'
p2906
I665
sS"wood's"
p2907
I2865
sS'pining'
p2908
I3753
sS'visnomy'
p2909
I3890
sS'wait'
p2910
I1756
sS'disconsolate'
p2911
I4366
sS'delights'
p2912
I390
sS'rosy'
p2913
I2678
sS'firm'
p2914
I1856
sS'sithens'
p2915
I3228
sS'flight'
p2916
I4203
sS'gay'
p2917
I1939
sS"'twixt"
p2918
I2044
sS'fire'
p2919
I1470
sS"dial's"
p2920
I2083
sS'hind'
p2921
I4261
sS'cruelty'
p2922
I3607
sS'else'
p2923
I74
sS'awake'
p2924
I1808
sS'bidding'
p2925
I3258
sS'livery'
p2926
I95
sS'mournful'
p2927
I2453
sS'hardness'
p2928
I3949
sS'plants'
p2929
I667
sS'uncertain'
p2930
I3105
sS'cuckoo'
p2931
I3509
sS'frozen'
p2932
I3675
sS'straight'
p2933
I1493
sS'admire'
p2934
I2788
sS'pace'
p2935
I1606
sS'while'
p2936
I1134
sS'ought'
p2937
I3295
sS'rigour'
p2938
I2932
sS'pearls'
p2939
I3448
sS'kissing'
p2940
I1192
sS'eclipses'
p2941
I1265
sS"thought's"
p2942
I3252
sS'guide'
p2943
I3484
sS'acquaintance'
p2944
I2093
sS'youthful'
p2945
I676
sS'costly'
p2946
I3086
sS'debased'
p2947
I4300
sS'merry'
p2948
I3510
sS'wherever'
p2949
I1472
sS'herein'
p2950
I510
sS'confound'
p2951
I1789
sS'refigured'
p2952
I323
sS'itself'
p2953
I3630
sS'lodged'
p2954
I492
sS'owes'
p2955
I2128
sS'churl'
p2956
I70
sS'ready'
p2957
I3267
sS'rid'
p2958
I2994
sS'seest'
p2959
I2013
sS'anguish'
p2960
I3920
sS'fairer'
p2961
I493
sS'around'
p2962
I4099
sS'twofold'
p2963
I1407
sS'trial'
p2964
I3181
sS'estimate'
p2965
I2242
sS'bristly'
p2966
I562
sS'belong'
p2967
I1751
sS'dishonor'
p2968
I3281
sS'engrossed'
p2969
I2923
sS'wherein'
p2970
I931
sS'rules'
p2971
I3940
sS'discourse'
p2972
I3113
sS'esteemed'
p2973
I2368
sS'ruth'
p2974
I2910
sS'miscalled'
p2975
I1910
sS'composition'
p2976
I1484
sS'higher'
p2977
I4287
sS'covetous'
p2978
I2937
sS'used'
p2979
I245
sS'forced'
p2980
I1408
sS'restraint'
p2981
I3860
sS'shinedst'
p2982
I3809
sS'moment'
p2983
I654
sS"th'anvil"
p2984
I3706
sS'moving'
p2985
I997
sS'user'
p2986
I459
sS'wretchcd'
p2987
I2309
sS'mavis'
p2988
I4322
sS'broils'
p2989
I1683
sS'lower'
p2990
I3899
sS'task'
p2991
I1998
sS'sacred'
p2992
I349
sS'accumulate'
p2993
I2692
sS'try'
p2994
I2561
sS'knowen'
p2995
I3958
sS'dancing'
p2996
I2868
sS'lacking'
p2997
I1141
sS'spent'
p2998
I2070
sS"frown'st"
p2999
I3133
sS'honor'
p3000
I3287
sS'morrow'
p3001
I2283
sS'cheer'
p3002
I2399
sS'edge'
p3003
I1700
sS'services'
p3004
I1723
sS'unspotted'
p3005
I4370
sS'starved'
p3006
I2051
sS'rears'
p3007
I3408
sS'stoures'
p3008
I4026
sS'steeled'
p3009
I2591
sS'things'
p3010
I863
sS'watching'
p3011
I3121
sS'abstain'
p3012
I3856
sS'bearer'
p3013
I1600
sS'misintended'
p3014
I3477
sS'chaste'
p3015
I3189
sS'salve'
p3016
I1238
sS'shape'
p3017
I450
sS'hercules'
p3018
I4255
sS'madding'
p3019
I2734
sS'unto'
p3020
I1518
sS'gems'
p3021
I858
sS'tables'
p3022
I2770
sS'cut'
p3023
I1842
sS'reflex'
p3024
I4149
sS'cup'
p3025
I2636
sS'reap'
p3026
I2861
sS'decayed'
p3027
I2118
sS'danger'
p3028
I3691
sS'eager'
p3029
I2699
sS'bred'
p3030
I2535
sS'lifts'
p3031
I344
sS'crying'
p3032
I3052
sS'tormented'
p3033
I3351
sS"either's"
p3034
I1054
sS"tongue's"
p3035
I3013
sS'march'
p3036
I1178
sS'awakes'
p3037
I1531
sS'big'
p3038
I2385
sS'bid'
p3039
I1729
sS'advocate'
p3040
I1281
sS'displace'
p3041
I3545
sS'rondure'
p3042
I867
sS'judgement'
p3043
I614
sS'halt'
p3044
I2266
sS'game'
p3045
I4152
sS'fulness'
p3046
I1708
sS'private'
p3047
I448
sS'dearly'
p3048
I1411
sS'bit'
p3049
I3824
sS'sharpened'
p3050
I1705
sS'wings'
p3051
I3265
sS'like'
p3052
I371
sS'outright'
p3053
I2995
sS'lost'
p3054
I2032
sS'baseness'
p3055
I3246
sS"children's"
p3056
I452
sS'follows'
p3057
I1394
sS'message'
p3058
I3527
sS'dun'
p3059
I2889
sS'strife'
p3060
I2041
sS'shapes'
p3061
I2618
sS'pensiveness'
p3062
I3739
sS'eek'
p3063
I4230
sS'divining'
p3064
I2502
sS'tribes'
p3065
I2519
sS'witness'
p3066
I988
sS'foolish'
p3067
I3018
sS'twixt'
p3068
I4243
sS'canst'
p3069
I225
sS'wrack'
p3070
I3788
sS"janus'"
p3071
I3257
sS'methods'
p3072
I2062
sS'wombs'
p3073
I2391
sS'spring'
p3074
I57
sS'creation'
p3075
I2326
sS'some'
p3076
I162
sS'back'
p3077
I185
sS'saints'
p3078
I4070
sS'sighs'
p3079
I1521
sS'lips'
p3080
I2677
sS'added'
p3081
I2109
sS'mighty'
p3082
I3322
sS'ornaments'
p3083
I3025
sS'apply'
p3084
I3704
sS'priefe'
p3085
I3937
sS'pale'
p3086
I1195
sS'sauces'
p3087
I2707
sS'senseless'
p3088
I3683
sS'savage'
p3089
I2875
sS'sheen'
p3090
I3454
sS'perfection'
p3091
I656
sS'twinkle'
p3092
I3475
sS'fairing'
p3093
I2844
sS'affects'
p3094
I3316
sS'shall'
p3095
I84
sS'oblivion'
p3096
I2776
sS'balmy'
p3097
I2516
sS'modest'
p3098
I4312
sS'quickly'
p3099
I3173
sS'confounds'
p3100
I268
sS'barrenly'
p3101
I523
sS'posterity'
p3102
I177
sS'lark'
p3103
I1100
sS'desiring'
p3104
I1090
sS'forgets'
p3105
I4204
sS'be'
p3106
I71
sS'slept'
p3107
I2185
sS'patient'
p3108
I2576
sS'remembered'
p3109
I194
sS'word'
p3110
I2065
sS'odor'
p3111
I4120
sS'clay'
p3112
I1993
sS'virtues'
p3113
I3456
sS"'this"
p3114
I129
sS'rue'
p3115
I4298
sS'aloft'
p3116
I2104
sS'rent'
p3117
I2824
sS'fee'
p3118
I2754
sS'respite'
p3119
I3373
sS'hostages'
p3120
I3367
sS'nerves'
p3121
I2742
sS'eglantine'
p3122
I3615
sS"batt'ring"
p3123
I1872
sS'shine'
p3124
I1209
sS'saphires'
p3125
I3445
sS'goods'
p3126
I4015
sS'deserved'
p3127
I122
sS'constraint'
p3128
I4124
sS'cheered'
p3129
I673
sS'wrinkles'
p3130
I192
sS'deserves'
p3131
I2122
sS'ambush'
p3132
I1973
sS'pains'
p3133
I3954
sS'together'
p3134
I643
sS'hatred'
p3135
I2320
sS'behaviour'
p3136
I2125
sS'tenants'
p3137
I1508
sS'silence'
p3138
I2190
sS'misplaced'
p3139
I1897
sS'seeing'
p3140
I1952
sS'decease'
p3141
I14
sS'into'
p3142
I1334
sS'amazeth'
p3143
I837
sS'glooming'
p3144
I4086
sS'falsehood'
p3145
I1538
sS'ensue'
p3146
I4079
sS'nothing'
p3147
I207
sS'inconstant'
p3148
I682
sS'piteous'
p3149
I3837
sS'remembrance'
p3150
I288
sS'lesson'
p3151
I2720
sS"sharp'st"
p3152
I2651
sS'odorous'
p3153
I4119
sS'seen'
p3154
I1184
sS'sad'
p3155
I1131
sS'featureless'
p3156
I525
sS'few'
p3157
I2004
sS'spending'
p3158
I2072
sS'question'
p3159
I565
sS'long'
p3160
I779
sS'worshipped'
p3161
I4074
sS'whereto'
p3162
I2686
sS'exceed'
p3163
I2183
sS'suit'
p3164
I2918
sS'pictured'
p3165
I935
sS'translate'
p3166
I2377
sS'warried'
p3167
I3875
sS'himself'
p3168
I469
sS'arise'
p3169
I1693
sS'jacks'
p3170
I2859
sS'quenched'
p3171
I3200
sS'graciously'
p3172
I1002
sS'great'
p3173
I228
sS'healthful'
p3174
I2716
sS'frost'
p3175
I273
sS'vowing'
p3176
I3159
sS'state'
p3177
I679
sS'alive'
p3178
I749
sS'newer'
p3179
I2563
sS'filed'
p3180
I2210
sS'hopes'
p3181
I2728
sS"prince's"
p3182
I4144
sS'line'
p3183
I1990
sS'immortal'
p3184
I2153
sS'pain'
p3185
I1353
sS'dull'
p3186
I1445
sS'usury'
p3187
I310
sS'directed'
p3188
I1433
sS'bevel'
p3189
I2767
sS'immured'
p3190
I2193
sS'helicon'
p3191
I3222
sS"lover's"
p3192
I1843
sS'goodwill'
p3193
I4161
sS"monarch's"
p3194
I2623
sS'us'
p3195
I1357
sS'carefull'
p3196
I3738
sS'politic'
p3197
I2812
sS'betokening'
p3198
I4080
sS'covet'
p3199
I3787
sS'wicked'
p3200
I3392
sS'proves'
p3201
I1552
sS'consumed'
p3202
I2022
sS'vassalage'
p3203
I979
sS'repulse'
p3204
I3425
sS'archers'
p3205
I3472
sS'constant'
p3206
I641
sS'figured'
p3207
I2524
sS'raging'
p3208
I4011
sS'likewise'
p3209
I3561
sS'allayed'
p3210
I1701
sS'influence'
p3211
I664
sS"physicians'"
p3212
I3944
sS'deprive'
p3213
I4095
sS'scarlet'
p3214
I3026
sS'languishing'
p3215
I3934
sS'cure'
p3216
I2584
sS'doest'
p3217
I4227
sS'tuneless'
p3218
I3880
sS'diving'
p3219
I4241
sS'babe'
p3220
I891
sS'surmise'
p3221
I2693
sS'rainy'
p3222
I2284
sS'sullen'
p3223
I1103
sS'sunken'
p3224
I113
sS'impediments'
p3225
I2664
sS'peace'
p3226
I2042
sS'fears'
p3227
I1864
sS'dimmed'
p3228
I762
sS'charactered'
p3229
I2772
sS'dead-doing'
p3230
I3206
sS'altar'
p3231
I3567
sS'hove'
p3232
I4368
sS'confine'
p3233
I2194
sS'inclined'
p3234
I3559
sS'mock'
p3235
I1800
sS'wished'
p3236
I1718
sS'smiles'
p3237
I3491
sS'draw'
p3238
I808
sS'aright'
p3239
I3117
sS'clean'
p3240
I2052
sS'gross'
p3241
I2179
sS'passions'
p3242
I3876
sS'nay'
p3243
I1991
sS'assayed'
p3244
I3950
sS'meaning'
p3245
I3522
sS'lent'
p3246
I4137
sS'makeless'
p3247
I439
sS'wrinkle'
p3248
I2424
sS'sides'
p3249
I2985
sS'paps'
p3250
I4242
sS'bases'
p3251
I2820
sS'suffers'
p3252
I2804
sS'happier'
p3253
I320
sS'happies'
p3254
I315
sS"spend'st"
p3255
I2415
sS'vice'
p3256
I1969
sS'blend'
p3257
I4087
sS'age'
p3258
I188
sS'wards'
p3259
I1536
sS'oppress'
p3260
I4004
sS'implied'
p3261
I3279
sS'heats'
p3262
I3204
sS'came'
p3263
I2946
sS'enrolled'
p3264
I4171
sS'fresh'
p3265
I53
sS'marvel'
p3266
I3124
sS'sounded'
p3267
I3511
sS'once'
p3268
I969
sS'pervert'
p3269
I3851
sS'wilfulness'
p3270
I2691
sS'discontent'
p3271
I2805
sS'melts'
p3272
I3682
sS'highmost'
p3273
I367
sS'tombs'
p3274
I2521
sS"deformed'st"
p3275
I2616
sS'soften'
p3276
I3504
sS'cheerful'
p3277
I3818
sS'windy'
p3278
I2285
sS"work's"
p3279
I1020
sS'lend'
p3280
I205
sS'dainty'
p3281
I3796
sS'amiss'
p3282
I1272
sS"present'st"
p3283
I1972
sS'seemed'
p3284
I2393
sS'graves'
p3285
I2079
sS'tincture'
p3286
I1659
sS'uphold'
p3287
I602
sS'reckoned'
p3288
I2961
sS'young'
p3289
I815
sS'send'
p3290
I987
sS'breaches'
p3291
I4341
sS'obstinate'
p3292
I4009
sS'blaze'
p3293
I3667
sS'breach'
p3294
I3160
sS'pleasing'
p3295
I420
sS'sent'
p3296
I3895
sS'virtuous'
p3297
I705
sS'over-partial'
p3298
I2964
sS'random'
p3299
I3114
sS'assay'
p3300
I3433
sS'garden'
p3301
I4097
sS'torture'
p3302
I1056
sS'bale'
p3303
I3227
sS"'now"
p3304
I2659
sS'panting'
p3305
I4153
sS'confounding'
p3306
I1841
sS'rhyme'
p3307
I696
sS'languished'
p3308
I3070
sS'felicity'
p3309
I4164
sS'scanted'
p3310
I2683
sS'accuse'
p3311
I2684
sS'telling'
p3312
I2073
sS'kindled'
p3313
I3245
sS'timely'
p3314
I3266
sS'entire'
p3315
I3312
sS'false-speaking'
p3316
I2981
sS'meek'
p3317
I3243
sS'iniquity'
p3318
I1828
sS'bonds'
p3319
I2245
sS'queen'
p3320
I2365
sS"eve's"
p3321
I2330
sS'race'
p3322
I1609
sS'verdict'
p3323
I1511
sS'betwixt'
p3324
I1517
sS'noted'
p3325
I2064
sS'watchman'
p3326
I1810
sS"alt'ring"
p3327
I2653
sS'teachest'
p3328
I1365
sS'thereunto'
p3329
I4266
sS'crow'
p3330
I1966
sS'yourself'
p3331
I3274
sS'malice'
p3332
I3884
sS'mishap'
p3333
I4299
sS'waking'
p3334
I2255
sS'jump'
p3335
I1456
sS'ever-fixed'
p3336
I2670
sS'pour'
p3337
I3528
sS'go'
p3338
I566
sS'earth'
p3339
I786
sS'decrees'
p3340
I2647
sS'languor'
p3341
I3964
sS'pity-wanting'
p3342
I2997
sS'victor'
p3343
I1976
sS'precept'
p3344
I3526
sS'length'
p3345
I1073
sS"need'st"
p3346
I2991
sS'labour'
p3347
I3589
sS'saw'
p3348
I2182
sS'indias'
p3349
I3443
sS"man's"
p3350
I1089
sS'henceforth'
p3351
I3783
sS'paying'
p3352
I2825
sS'relent'
p3353
I4303
sS'surcease'
p3354
I3383
sS"seasons'"
p3355
I623
sS'attire'
p3356
I3632
sS'famoused'
p3357
I965
sS'nights'
p3358
I1443
sS"thund'ring"
p3359
I3806
sS'body'
p3360
I932
sS'rich-laden'
p3361
I4293
sS'melancholy'
p3362
I1480
sS"death's"
p3363
I334
sS'led'
p3364
I3956
sS'chose'
p3365
I2356
sS'desires'
p3366
I3334
sS'standeth'
p3367
I4044
sS'forgo'
p3368
I3834
sS'gathered'
p3369
I2798
sS"shadow's"
p3370
I1437
sS'sins'
p3371
I1275
sS'growing'
p3372
I1168
sS'scythe'
p3373
I576
sS'busy'
p3374
I3045
sS'poverty'
p3375
I1379
sS'separation'
p3376
I1358
sS'others'
p3377
I463
sS'dissuade'
p3378
I3019
sS'sing'
p3379
I418
sS'lends'
p3380
I214
sS'adulterate'
p3381
I2759
sS'extreme'
p3382
I2874
sS'convert'
p3383
I645
sS'likened'
p3384
I4000
sS'burthens'
p3385
I2455
sS'receive'
p3386
I2782
sS'metre'
p3387
I747
sS'leaving'
p3388
I330
sS'trusty'
p3389
I3725
sS'survey'
p3390
I1620
sS'defeat'
p3391
I1809
sS'requite'
p3392
I3923
sS'climb'
p3393
I3415
sS'vaunt'
p3394
I677
sS'makes'
p3395
I1042
sS'maker'
p3396
I3330
sS'composed'
p3397
I1769
sS'control'
p3398
I1736
sS'named'
p3399
I3838
sS'apple'
p3400
I2329
sS'heart'
p3401
I822
sS'forbid'
p3402
I805
sS'win'
p3403
I1854
sS"whoe'er"
p3404
I2930
sS'innocence'
p3405
I3289
sS'messengers'
p3406
I1488
sS'uprear'
p3407
I1568
sS'hardy'
p3408
I3430
sS'ran'
p3409
I3810
sS'wit'
p3410
I923
sS'decrease'
p3411
I674
sS'lodging'
p3412
I4215
sS'doubtfully'
p3413
I3605
sS'immortalize'
p3414
I4228
sS'imaginary'
p3415
I1033
sS'cloud'
p3416
I1217
sS'bent'
p3417
I2275
sS"lovers'"
p3418
I1695
sS'fed'
p3419
I3096
sS'sealed'
p3420
I3027
sS'from'
p3421
I6
sS'valorous'
p3422
I4173
sS'remains'
p3423
I2036
sS'hammered'
p3424
I2741
sS'next'
p3425
I2564
sS'saith'
p3426
I2624
sS'doubt'
p3427
I3066
sS'contentment'
p3428
I3743
sS'finishing'
p3429
I3714
sS'doom'
p3430
I649
sS'uneared'
p3431
I167
sS"sun's"
p3432
I958
sS'defendant'
p3433
I1502
sS'deepest'
p3434
I2749
sS'sort'
p3435
I1317
sS'pencil'
p3436
I712
sS'assailed'
p3437
I1397
sS'beauteous'
p3438
I218
sS'freezings'
p3439
I2382
sS'becomes'
p3440
I2755
sS'chide'
p3441
I406
sS'freedom'
p3442
I1498
sS'heir'
p3443
I25
sS'hied'
p3444
I3184
sS'infection'
p3445
I1913
sS'drawen'
p3446
I4187
sS'meant'
p3447
I533
sS'sore'
p3448
I4020
sS'insufficiency'
p3449
I3139
sS'train'
p3450
I3389
sS'sharply'
p3451
I4025
sS'tattered'
p3452
I103
sS'special-blest'
p3453
I1634
sS'harvest'
p3454
I2862
sS'entangle'
p3455
I3775
sS"none'"
p3456
I425
sS'account'
p3457
I1130
sS'works'
p3458
I2112
sS'augment'
p3459
I3759
sS'locks'
p3460
I3453
sS'this'
p3461
I73
sS'meed'
p3462
I4344
sS'challenge'
p3463
I3665
sS'tresses'
p3464
I1936
sS'sight'
p3465
I345
sS'crossed'
p3466
I2926
sS'praise'
p3467
I115
sS'executor'
p3468
I242
sS'meet'
p3469
I291
sS'drops'
p3470
I2517
sS'befits'
p3471
I1392
sS'proof'
p3472
I2562
sS'thralled'
p3473
I2806
sS'wearing'
p3474
I3643
sS'enfeebled'
p3475
I2240
sS'weaker'
p3476
I3780
sS'council'
p3477
I3598
sS'ushers'
p3478
I2913
sS'process'
p3479
I2473
sS'rapt'
p3480
I3814
sS'escaped'
p3481
I4151
sS'salving'
p3482
I1273
sS'unswept'
p3483
I1678
sS'bend'
p3484
I3926
sS'sought'
p3485
I1110
sS'purposed'
p3486
I2287
sS'paws'
p3487
I780
sS'trumpet'
p3488
I3513
sS'darkening'
p3489
I2416
sS'counterfeit'
p3490
I706
sS'lamb'
p3491
I2378
sS'amend'
p3492
I4081
sS'conceit'
p3493
I683
sS'compounded'
p3494
I1994
sS'falls'
p3495
I2801
sS'pure'
p3496
I1971
sS"sickle's"
p3497
I2680
sS'purpose'
p3498
I851
sS'holds'
p3499
I657
sS'thrall'
p3500
I3201
sS'moods'
p3501
I2324
sS'pleasance'
p3502
I3493
sS'blessings'
p3503
I2205
sS'fools'
p3504
I2815
sS'slandering'
p3505
I2851
sS'mightst'
p3506
I1402
sS'forsaken'
p3507
I2925
sS'sin'
p3508
I1815
sS'stock'
p3509
I3861
sS'watery'
p3510
I1853
sS'gainer'
p3511
I2260
sS'attend'
p3512
I1465
sS'watch'
p3513
I1725
sS'act'
p3514
I3158
sS'tied'
p3515
I2971
sS'bellamores'
p3516
I4105
sS'permanent'
p3517
I4270
sS'abuse'
p3518
I216
sS'ease'
p3519
I3234
sS'fits'
p3520
I2751
sS'yielded'
p3521
I3540
sS"worth's"
p3522
I2676
sS'tomb'
p3523
I173
sS'physic'
p3524
I1243
sS'bankrupt'
p3525
I1920
sS"bear'st"
p3526
I471
sS'hinders'
p3527
I3420
sS"blam'd"
p3528
I3801
sS'untrimmed'
p3529
I767
sS'bind'
p3530
I2940
sS'sit'
p3531
I1326
sS'lines'
p3532
I709
sS'feels'
p3533
I4126
sS'element'
p3534
I3999
sS'chief'
p3535
I487
sS'admiring'
p3536
I1773
sS'writ'
p3537
I920
sS'allow'
p3538
I809
sS'pyramids'
p3539
I2785
sS'favourites'
p3540
I956
sS'looking'
p3541
I1032
sS'counted'
p3542
I2839
sS'breast'
p3543
I882
sS'neglect'
p3544
I2432
sS'beauties'
p3545
I571
sS'stamped'
p3546
I2586
sS'transfix'
p3547
I1791
sS'attain'
p3548
I4317
sS'move'
p3549
I1530
sS'damsel'
p3550
I3478
sS'widowed'
p3551
I2392
sS'rebellious'
p3552
I3299
sS'briar'
p3553
I3612
sS'offences'
p3554
I2554
sS'beguile'
p3555
I164
sS'dearest'
p3556
I1321
sS'enclose'
p3557
I2349
sS'trophies'
p3558
I1153
sS'tyrant'
p3559
I693
sS'flattering'
p3560
I3906
sS'polished'
p3561
I2220
sS'thyself'
p3562
I885
sS'faileth'
p3563
I4041
sS'badges'
p3564
I1469
sS'bunch'
p3565
I4113
sS'perfect'
p3566
I908
sS'refusest'
p3567
I1374
sS'frailties'
p3568
I2544
sS'brood'
p3569
I784
sS'whereon'
p3570
I666
sS'unstained'
p3571
I1970
sS'meede'
p3572
I3611
sS'lo'
p3573
I338
sS'brook'
p3574
I3218
sS'whereof'
p3575
I1641
sS'banquet'
p3576
I1525
sS'themes'
p3577
I2490
sS'exceeding'
p3578
I3674
sS'restrain'
p3579
I3853
sS'tyrants'
p3580
I258
sS'distraction'
p3581
I2735
sS'attaint'
p3582
I2162
sS'endurence'
p3583
I4045
sS'tickled'
p3584
I2866
sS'ruined'
p3585
I2011
sS'fountains'
p3586
I1260
sS'assoyle'
p3587
I3378
sS'bolder'
p3588
I4198
sS'snaky'
p3589
I4332
sS'flattery'
p3590
I1428
sS'spell'
p3591
I3867
sS"th'author"
p3592
I3564
sS'ship'
p3593
I3723
sS'sweets'
p3594
I392
sS'stout'
p3595
I1875
sS'hands'
p3596
I1057
sS'front'
p3597
I2446
sS"owner's"
p3598
I2444
sS'kindness'
p3599
I1314
sS'cage'
p3600
I4127
sS'embaseth'
p3601
I3409
sS'damasked'
p3602
I2894
sS'strive'
p3603
I2589
sS'empress'
p3604
I3712
sS'comedy'
p3605
I3988
sS'footstool'
p3606
I3930
sS'profound'
p3607
I2594
sS'immoral'
p3608
I4305
sS'eased'
p3609
I1049
sS'feast'
p3610
I1522
sS'mouthed'
p3611
I2080
sS'trimmed'
p3612
I1891
sS'slide'
p3613
I1473
sS'truth'
p3614
I644
sS'beasts'
p3615
I3688
sS'accompanied'
p3616
I4315
sS'giving'
p3617
I2232
sS'gazing'
p3618
I2829
sS'medicines'
p3619
I3936
sS'legions'
p3620
I3195
sS'treads'
p3621
I2897
sS'lie'
p3622
I1150
sS'pitying'
p3623
I2908
sS'debarred'
p3624
I1048
sS'bondage'
p3625
I4123
sS'doing'
p3626
I2265
sS"princes'"
p3627
I957
sS'ills'
p3628
I2715
sS'alteration'
p3629
I2666
sS'society'
p3630
I1916
sS'decays'
p3631
I1878
sS'exceeded'
p3632
I1166
sS'our'
p3633
I1298
sS'bay'
p3634
I2966
sS'tenth'
p3635
I1346
sS'wander'
p3636
I3728
sS'special'
p3637
I1636
sS'might'
p3638
I9
sS'respects'
p3639
I1556
sS'captiving'
p3640
I3403
sS'mew'
p3641
I4285
sS'plods'
p3642
I1584
sS'confess'
p3643
I1295
sS'sufficed'
p3644
I1331
sS'bad'
p3645
I1928
sS'mate'
p3646
I4140
sS'messenger'
p3647
I3508
sS'wondrous'
p3648
I2484
sS'impart'
p3649
I2000
sS'poets'
p3650
I1179
sS'fondly'
p3651
I4121
sS'red'
p3652
I2887
sS"one's"
p3653
I4211
sS'afford'
p3654
I2126
sS'stare'
p3655
I3781
sS'await'
p3656
I4192
sS'perish'
p3657
I522
sS'heretics'
p3658
I3914
sS'walk'
p3659
I2871
sS'embrew'
p3660
I3695
sS'greedy'
p3661
I3741
sS'darkly'
p3662
I1435
sS'embassy'
p3663
I1478
sS'gaol'
p3664
I2931
sS'hew'
p3665
I3250
sS'canker'
p3666
I1267
sS'tempt'
p3667
I3907
sS'shun'
p3668
I2704
sS'yore'
p3669
I1944
sS'sdeigne'
p3670
I3282
sS'cured'
p3671
I2718
sS'her'
p3672
I182
sS'spill'
p3673
I3486
sS'misuse'
p3674
I3163
sS'overthrow'
p3675
I2286
sS'could'
p3676
I328
sS'times'
p3677
I321
sS'counterpart'
p3678
I2203
sS'keen'
p3679
I791
sS"sorrow's"
p3680
I3817
sS'cures'
p3681
I1239
sS'mortal'
p3682
I361
sS'hence'
p3683
I578
sS'wrongfully'
p3684
I1902
sS'designed'
p3685
I4218
sS'miser'
p3686
I2043
sS'rudely'
p3687
I1900
sS'soundless'
p3688
I2144
sS'finest'
p3689
I3452
sS'new-appearing'
p3690
I346
sS'blown'
p3691
I4035
sS'pitied'
p3692
I3034
sS'savour'
p3693
I2826
sS'juncats'
p3694
I4248
sS'powerful'
p3695
I1673
sS'loveliness'
p3696
I201
sS'feasts'
p3697
I1625
sS"learned's"
p3698
I2107
sS'mocks'
p3699
I3994
sS'presume'
p3700
I894
sS'such'
p3701
I468
sS'unworthy'
p3702
I3278
sS'reigned'
p3703
I2542
sS'quality'
p3704
I622
sS"run'st"
p3705
I3049
sS"love'"
p3706
I1181
sS'sadly'
p3707
I385
sS'humbless'
p3708
I3242
sS'bears'
p3709
I1252
sS'unknown'
p3710
I2675
sS'vulgar'
p3711
I1339
sS'seat'
p3712
I1401
sS'comes'
p3713
I2253
sS'fray'
p3714
I3975
sS'intelligence'
p3715
I2236
sS'prouder'
p3716
I2305
sS'felly'
p3717
I4005
sS'travelled'
p3718
I1836
sS'badness'
p3719
I2769
sS'fairest'
p3720
I5
sS'painful'
p3721
I967
sS'prone'
p3722
I3015
sS'malady'
p3723
I3933
sS'stars'
p3724
I615
sS'portrait'
p3725
I3480
sS"were't"
p3726
I2817
sS'dreary'
p3727
I3968
sS'perforce'
p3728
I2933
sS'woo'
p3729
I3033
sS'meeds'
p3730
I3658
sS'makest'
p3731
I3352
sS'gladness'
p3732
I3812
sS'herself'
p3733
I2919
sS'commence'
p3734
I1284
sS'remember'
p3735
I1989
sS'steel'
p3736
I1879
sS'lightening'
p3737
I3345
sS'unlooked'
p3738
I384
sS'beseen'
p3739
I3631
sS'beseem'
p3740
I2917
sS'steed'
p3741
I4281
sS'riches'
p3742
I2248
sS'see'
p3743
I148
sS'bed'
p3744
I1010
sS'wilfully'
p3745
I2140
sS'jollity'
p3746
I1890
sS'rack'
p3747
I1201
sS'transgression'
p3748
I2740
sS"body's"
p3749
I1021
sS'loves'
p3750
I1296
sS'light'
p3751
I335
sS'dumb'
p3752
I916
sS"lily's"
p3753
I2410
sS'counting'
p3754
I2048
sS'devotion'
p3755
I3560
sS'descriptions'
p3756
I2494
sS'drunk'
p3757
I2725
sS'accusing'
p3758
I1747
sS'enforced'
p3759
I2169
sS'beggared'
p3760
I1924
sS'false'
p3761
I825
sS"forget'st"
p3762
I2413
sS'beggar'
p3763
I1889
sS'trusting'
p3764
I4040
sS'gently'
p3765
I2856
sS'tide'
p3766
I4226
sS'presenteth'
p3767
I660
sS'thereto'
p3768
I3494
sS'prophetic'
p3769
I2504
sS'torment'
p3770
I1360
sS'have'
p3771
I617
sS're-survey'
p3772
I1160
sS'need'
p3773
I1601
sS'trembling'
p3774
I3211
sS'she'
p3775
I168
sS'sings'
p3776
I429
sS'bastard'
p3777
I1933
sS'afraid'
p3778
I3424
sS'thessalian'
p3779
I3648
sS'skillful'
p3780
I4216
sS'bough'
p3781
I2454
sS'reeks'
p3782
I2895
sS'able'
p3783
I2217
sS'gravity'
p3784
I1563
sS'outward'
p3785
I713
sS'adjunct'
p3786
I2298
sS'field'
p3787
I88
sS'which'
p3788
I246
sS'deprave'
p3789
I3653
sS'willful'
p3790
I3707
sS'lily'
p3791
I3205
sS'adieu'
p3792
I1727
sS'unless'
p3793
I382
sS'storm'
p3794
I3335
sS'centre'
p3795
I3081
sS'tenure'
p3796
I1807
sS'privilage'
p3797
I1750
sS"time's"
p3798
I577
sS'harmful'
p3799
I2565
sS'offend'
p3800
I403
sS'lust'
p3801
I2872
sS'vengeance'
p3802
I3361
sS'amongst'
p3803
I3573
sS'darts'
p3804
I3264
sS'durefull'
p3805
I3306
sS'device'
p3806
I3685
sS'gait'
p3807
I2870
sS'expired'
p3808
I1019
sS'fervent'
p3809
I3699
sS"husband's"
p3810
I451
sS'statute'
p3811
I2943
sS'deny'
p3812
I472
sS'weene'
p3813
I3449
sS'wherewith'
p3814
I1785
sS'gather'
p3815
I4279
sS'stronger'
p3816
I1072
sS'disease'
p3817
I3101
sS'face'
p3818
I150
sS'looked'
p3819
I2503
sS'occasion'
p3820
I3987
sS'constrain'
p3821
I4319
sS'boldened'
p3822
I3290
sS'painting'
p3823
I1830
sS'outlive'
p3824
I1350
sS'tear'
p3825
I1143
sS'impression'
p3826
I2585
sS'slandered'
p3827
I2841
sS"th'utmost"
p3828
I3928
sS'wilful'
p3829
I1376
sS'couldst'
p3830
I131
sS"th'image"
p3831
I3340
sS'burden'
p3832
I2388
sS'poesy'
p3833
I2102
sS'portliness'
p3834
I3288
sS'bring'
p3835
I1278
sS"many's"
p3836
I2322
sS'changeful'
p3837
I4038
sS'utter'
p3838
I3921
sS'fear'
p3839
I432
sS'obsequious'
p3840
I1144
sS'filthy'
p3841
I4309
sS'pleased'
p3842
I3010
sS'handmaid'
p3843
I4289
sS'envy'
p3844
I1978
sS'untimely'
p3845
I4274
sS'knowledge'
p3846
I638
sS'chiding'
p3847
I3073
sS'philomel'
p3848
I2447
sS'mute'
p3849
I2191
sS'unions'
p3850
I405
sS'rash'
p3851
I3283
sS'intreat'
p3852
I3601
sS'baser'
p3853
I3301
sS"there's"
p3854
I3099
sS"poets'"
p3855
I3662
sS'tune'
p3856
I3012
sS'marriage'
p3857
I2663
sS'inhabit'
p3858
I1934
sS'inferior'
p3859
I2137
sS'exchanged'
p3860
I2540
sS'accessary'
p3861
I1289
sS'injuries'
p3862
I2262
sS'insight'
p3863
I4239
sS'handle'
p3864
I3209
sS'undivided'
p3865
I1297
sS'aread'
p3866
I3716
sS'wishing'
p3867
I1085
sS"the'accomplishment"
p3868
I3718
sS'lucky'
p3869
I4295
sS'bear'
p3870
I24
sS'sightless'
p3871
I1035
sS'six'
p3872
I4275
sS'abundance'
p3873
I42
sS'made'
p3874
I141
sS"o'erlook"
p3875
I2161
sS'words'
p3876
I990
sS'durst'
p3877
I1935
sS"maker's"
p3878
I3592
sS'leases'
p3879
I2811
sS'chips'
p3880
I2867
sS'rite'
p3881
I906
sS'nearly'
p3882
I1414
sS'endless'
p3883
I2513
sS'heretic'
p3884
I2809
sS"stick'st"
p3885
I482
sS'glory'
p3886
I962
sS'ended'
p3887
I4018
sS'gust'
p3888
I2635
sS'imperious'
p3889
I3925
sS'married'
p3890
I404
sS'calling'
p3891
I3260
sS'overflowing'
p3892
I3858
sS'painter'
p3893
I927
sS'dangerous'
p3894
I4090
sS'cruelness'
p3895
I3538
sS'fixed'
p3896
I871
sS'deceived'
p3897
I2318
sS'spotted'
p3898
I3973
sS'strengthened'
p3899
I2440
sS'sluttish'
p3900
I1675
sS'untrue'
p3901
I2002
sS'outbraves'
p3902
I2341
sS'farthest'
p3903
I1453
sS'prayers'
p3904
I2528
sS'frame'
p3905
I247
sS'shake'
p3906
I755
sS'accord'
p3907
I3697
sS'freeze'
p3908
I3998
sS'legacy'
p3909
I203
sS'merits'
p3910
I3024
sS'changes'
p3911
I2590
sS'desperate'
p3912
I3109
sS'greece'
p3913
I3870
sS'sleeping'
p3914
I3198
sS'despoiled'
p3915
I3961
sS"intermixed'"
p3916
I2436
sS'allured'
p3917
I3795
sS'battery'
p3918
I3434
sS'creating'
p3919
I2629
sS'tripping'
p3920
I3192
sS'error'
p3921
I2682
sS'closet'
p3922
I1501
sS'placed'
p3923
I1627
sS"master's"
p3924
I3918
sS'joys'
p3925
I3331
sS'vows'
p3926
I2648
sS'brunt'
p3927
I3399
sS'worship'
p3928
I3137
sS'favor'
p3929
I4051
sS'written'
p3930
I986
sS'converted'
p3931
I372
sS'boughs'
p3932
I2006
sS'progress'
p3933
I2085
sS'neither'
p3934
I715
sS'besmeared'
p3935
I1676
sS'complement'
p3936
I3591
sS'wiry'
p3937
I2858
sS'stoutly'
p3938
I4282
sS'attention'
p3939
I4283
sS'weighing'
p3940
I4166
sS'plenteous'
p3941
I4135
sS'amen'
p3942
I2213
sS'dressings'
p3943
I2787
sS'joy'
p3944
I389
sS'sorrow'
p3945
I1248
sS'eschew'
p3946
I4082
sS'beweep'
p3947
I1078
sS'within'
p3948
I65
sS'willing'
p3949
I313
sS'never-resting'
p3950
I265
sS'antick'
p3951
I4167
sS'spoil'
p3952
I1883
sS'precious'
p3953
I1118
sS'weary'
p3954
I365
sS'swift'
p3955
I1475
sS'thank'
p3956
I2127
sS'hits'
p3957
I2747
sS'weeks'
p3958
I2681
sS'instant'
p3959
I1635
sS'limits'
p3960
I1450
sS'trump'
p3961
I3668
sS'taking'
p3962
I3317
sS'tyraness'
p3963
I3358
sS'vanishing'
p3964
I1839
sS'minds'
p3965
I2654
sS'preyed'
p3966
I4037
sS'ruminate'
p3967
I1860
sS'assure'
p3968
I2583
sS'admit'
p3969
I2665
sS'devour'
p3970
I785
sS'figures'
p3971
I2412
sS'lordeth'
p3972
I3354
sS"store's"
p3973
I2963
sS'runneth'
p3974
I3496
sS'conquered'
p3975
I2281
sS'passing'
p3976
I3468
sS'lofty'
p3977
I553
sS"beds'"
p3978
I3030
sS'aye'
p3979
I2534
sS'comment'
p3980
I663
sS'castles'
p3981
I3427
sS'torn'
p3982
I3156
sS'statues'
p3983
I1680
sS'unfolding'
p3984
I1638
sS'shewed'
p3985
I3761
sS'melting'
p3986
I3811
sS'high'
p3987
I723
sS'commend'
p3988
I1948
sS"wretch's"
p3989
I2033
sS'laugh'
p3990
I3364
sS'forbear'
p3991
I1400
sS'kings'
p3992
I1106
sS'accursed'
p3993
I4336
sS'unclean'
p3994
I3627
sS'blinded'
p3995
I3332
sS'grind'
p3996
I2559
sS'death-bed'
p3997
I2020
sS'second'
p3998
I1762
sS'addition'
p3999
I850
sS'wills'
p4000
I2764
sS'endite'
p4001
I3256
sS"friend'"
p4002
I1578
sS'gaze'
p4003
I255
sS'slowly'
p4004
I4346
sS'certain'
p4005
I2661
sS'poet'
p4006
I732
sS'waste'
p4007
I68
sS'tillage'
p4008
I171
sS'divinely'
p4009
I4068
sS'tyranny'
p4010
I2656
sS'senses'
p4011
I3017
sS'proudest'
p4012
I2135
sS"war's"
p4013
I1685
sS'painted'
p4014
I707
sS'deer'
p4015
I4155
sS'sufficient'
p4016
I3719
sS'releasing'
p4017
I2243
sS'queene'
p4018
I4288
sS'cockatrices'
p4019
I3929
sS"hear'st"
p4020
I387
sS'lets'
p4021
I601
sS'love-suit'
p4022
I2959
sS'pageants'
p4023
I3982
sS'last'
p4024
I1929
sS'general'
p4025
I2302
sS'present'
p4026
I1529
sS"fram'd"
p4027
I4217
sS'debtor'
p4028
I2945
sS'main'
p4029
I1783
sS'sourly'
p4030
I1291
sS'surety-like'
p4031
I2938
sS'fearful'
p4032
I1882
sS'coals'
p4033
I4338
sS'means'
p4034
I698
sS'addeth'
p4035
I2955
sS'as'
p4036
I20
sS'three-fold'
p4037
I2927
sS'harden'
p4038
I3681
sS'riper'
p4039
I18
sS'wild'
p4040
I2456
sS'damsels'
p4041
I4102
sS'at'
p4042
I498
sS'sith'
p4043
I3628
sS'dight'
p4044
I3262
sS'goodness'
p4045
I2719
sS'ripe'
p4046
I2226
sS'self-pleasing'
p4047
I3296
sS'almost'
p4048
I1094
sS'ne'
p4049
I3285
sS'up-locked'
p4050
I1619
sS'thus'
p4051
I1043
sS'entice'
p4052
I4256
sS'over-goes'
p4053
I2458
sS'pleasauns'
p4054
I4369
sS'askew'
p4055
I3325
sS'turns'
p4056
I941
sS'lambs'
p4057
I2376
sS'sits'
p4058
I461
sS'new-fangled'
p4059
I2294
sS'stands'
p4060
I1797
sS'all-eating'
p4061
I118
sS'scorneth'
p4062
I4031
sS'dilate'
p4063
I4146
sS'perhaps'
p4064
I1995
sS'began'
p4065
I4061
sS'cross'
p4066
I1250
sS'spends'
p4067
I2131
sS'largess'
p4068
I221
sS'adverse'
p4069
I1283
sS'concealed'
p4070
I2259
sS'strange'
p4071
I1643
sS'duteous'
p4072
I373
sS'merciful'
p4073
I3932
sS'kingly'
p4074
I2633
sS'party'
p4075
I1282
sS'nursed'
p4076
I2091
sS'well-contented'
p4077
I1156
sS'blooms'
p4078
I1658
sS'witless'
p4079
I4324
sS'toil'
p4080
I1012
sS'flesh'
p4081
I1444
sS'shames'
p4082
I1805
sS'huntsman'
p4083
I4150
sS'lurkest'
p4084
I3232
sS'upon'
p4085
I204
sS'effect'
p4086
I286
sS'outcast'
p4087
I1077
sS'beast'
p4088
I1581
sS'weigh'
p4089
I2746
sS"december's"
p4090
I2384
sS'fierce'
p4091
I789
sS'judgment'
p4092
I1694
sS'betray'
p4093
I2373
sS'shamed'
p4094
I2003
sS'keep'
p4095
I445
sS'audit'
p4096
I236
sS'scarcely'
p4097
I1562
sS'possesseth'
p4098
I1814
sS'off'
p4099
I1060
sS'mention'
p4100
I3636
sS'i'
p4101
I489
sS'approve'
p4102
I1421
sS'colour'
p4103
I2434
sS'love-afamished'
p4104
I4360
sS'lodwick'
p4105
I3717
sS'thought'
p4106
I490
sS'amends'
p4107
I2429
sS'spectator'
p4108
I3981
sS'drowns'
p4109
I2814
sS'tibey'
p4110
I2337
sS'fail'
p4111
I3439
sS'builded'
p4112
I2800
sS'twire'
p4113
I1068
sS'bending'
p4114
I2261
sS'restore'
p4115
I2936
sS'feathered'
p4116
I3041
sS'stores'
p4117
I1927
sS'kiss'
p4118
I2860
sS'liker'
p4119
I708
sS'discord'
p4120
I4128
sS"o'erpressed"
p4121
I2992
sS'boot'
p4122
I2952
sS"circle's"
p4123
I4058
sS'debateth'
p4124
I687
sS'should'
p4125
I17
sS'interim'
p4126
I1714
sS'books'
p4127
I3556
sS"lookers'"
p4128
I3547
sS'laurel'
p4129
I3640
sS'skill'
p4130
I717
sS'thither'
p4131
I3185
sS'warrantise'
p4132
I3142
sS'afflicted'
p4133
I3241
sS'web'
p4134
I3577
sS'now'
p4135
I55
sS'panther'
p4136
I3974
sS'pompous'
p4137
I4250
sS'bell'
p4138
I1983
sS'smith'
p4139
I3700
sS'day'
p4140
I368
sS'reasons'
p4141
I1565
sS'add'
p4142
I1959
sS'book'
p4143
I973
sS'unmoved'
p4144
I2332
sS'wet'
p4145
I431
sS'destroy'
p4146
I4017
sS"infant's"
p4147
I3047
sS'smart'
p4148
I3233
sS'rearward'
p4149
I2282
sS'match'
p4150
I4367
sS'raven'
p4151
I2847
sS'long-lacked'
p4152
I3224
sS'wooed'
p4153
I1968
sS'gods'
p4154
I3599
sS'increased'
p4155
I4148
sS'fate'
p4156
I1083
sS'worlds'
p4157
I3971
sS'testy'
p4158
I2999
sS'devised'
p4159
I2173
sS'recure'
p4160
I3552
sS"who's"
p4161
I1344
sS'rind'
p4162
I3619
sS'crushed'
p4163
I1832
sS'smother'
p4164
I1520
sS'royalty'
p4165
I4249
sS'five'
p4166
I1766
sS'know'
p4167
I608
sS'knot'
p4168
I3318
sS'press'
p4169
I2996
sS'incessant'
p4170
I3435
sS'woeful'
p4171
I3071
sS'loss'
p4172
I1244
sS'necessary'
p4173
I2532
sS"garments'"
p4174
I2304
sS'inviting'
p4175
I2808
sS'redound'
p4176
I3498
sS'starry'
p4177
I3213
sS'perpetual'
p4178
I1711
sS'rich-proud'
p4179
I1847
sS'admitted'
p4180
I2957
sS'dove'
p4181
I2619
sS'arising'
p4182
I1098
sS'heed'
p4183
I2360
sS'lose'
p4184
I774
sS'bane'
p4185
I3844
sS'become'
p4186
I2915
sS'dispraise'
p4187
I2351
sS'soft'
p4188
I3208
sS'indigest'
p4189
I2625
sS'overcast'
p4190
I3730
sS'therein'
p4191
I943
sS'fruitless'
p4192
I3590
sS'shed'
p4193
I4114
sS'because'
p4194
I1419
sS'workings'
p4195
I2327
sS'portly'
p4196
I3276
sS'peer'
p4197
I4143
sS'thief'
p4198
I1292
sS'authority'
p4199
I1906
sS'self'
p4200
I49
sS'hair'
p4201
I3773
sS'shew'
p4202
I3886
sS'growth'
p4203
I2448
sS'home'
p4204
I1803
sS'transport'
p4205
I2690
sS'affections'
p4206
I2553
sS"heaven's"
p4207
I869
sS'leaf'
p4208
I3639
sS'lead'
p4209
I1406
sS'broad'
p4210
I2141
sS'lean'
p4211
I2199
sS'eternize'
p4212
I4232
sS'whole'
p4213
I2948
sS'leap'
p4214
I1463
sS'does'
p4215
I4292
sS'passion'
p4216
I818
sS'masked'
p4217
I1216
sS"o'ertake"
p4218
I1228
sS'ensample'
p4219
I3329
sS'thinly'
p4220
I1628
sS'noise'
p4221
I3517
sS'obey'
p4222
I3897
sS'slight'
p4223
I1352
sS'rock'
p4224
I4013
sS'how'
p4225
I125
sS'expire'
p4226
I2019
sS'belay'
p4227
I3428
sS'worthy'
p4228
I1008
sS'instinct'
p4229
I1586
sS'choked'
p4230
I3859
sS'stay'
p4231
I681
sS"travel's"
p4232
I1573
sS'worths'
p4233
I1821
sS'hiding'
p4234
I1233
sS'gained'
p4235
I3762
sS'waving'
p4236
I4291
sS'throng'
p4237
I3396
sS"murd'rous"
p4238
I467
sS'rare'
p4239
I862
sS'engines'
p4240
I3438
sS'linger'
p4241
I2288
sS'universe'
p4242
I2547
sS'harder'
p4243
I2924
sS'swear'
p4244
I2903
sS'sweat'
p4245
I3677
sS'entrapped'
p4246
I3784
sS"adorn'd"
p4247
I4177
sS'fearless'
p4248
I3388
sS'beshrew'
p4249
I2920
sS'outstripped'
p4250
I1164
sS'reckoning'
p4251
I2646
sS'ways'
p4252
I4064
sS'letters'
p4253
I3865
sS'depart'
p4254
I324
sS'owe'
p4255
I1980
sS'wakened'
p4256
I2695
sS'repair'
p4257
I159
sS'guard'
p4258
I1569
sS'weather'
p4259
I4050
sS'promise'
p4260
I1224
sS'captived'
p4261
I3846
sS'female'
p4262
I3058
sS'lawful'
p4263
I1286
sS'prefixed'
p4264
I3892
sS'monuments'
p4265
I1670
sS'thence'
p4266
I1549
sS'gazeth'
p4267
I829
sS'suborned'
p4268
I2837
sS'fired'
p4269
I3327
sS'lasting'
p4270
I2771
sS'degree'
p4271
I4076
sS'whom'
p4272
I521
sS'friends'
p4273
I1086
sS'pitty'
p4274
I3799
sS'soil'
p4275
I1855
sS'hush'
p4276
I2452
sS'trenches'
p4277
I89
sS'smit'
p4278
I3709
sS'spread'
p4279
I955
sS'dropping'
p4280
I3503
sS'inner'
p4281
I3230
sS'heresy'
p4282
I3915
sS"lov'd"
p4283
I4077
sS"grief's"
p4284
I1074
sS'function'
p4285
I2605
sS'ivory'
p4286
I3450
sS'buy'
p4287
I3095
sS'well-tuned'
p4288
I399
sS'hoisted'
p4289
I2689
sS'surpassing'
p4290
I4139
sS'brand'
p4291
I2570
sS'close-bleeding'
p4292
I3217
sS'invocate'
p4293
I1347
sS"wand'ring"
p4294
I2673
sS'hated'
p4295
I2881
sS'prophecies'
p4296
I2500
sS'plague'
p4297
I2622
sS'gain'
p4298
I1423
sS'captives'
p4299
I3212
sS'beat'
p4300
I3602
sS'delivers'
p4301
I2607
sS'highest'
p4302
I4043
sS'eat'
p4303
I81
sS'bud'
p4304
I64
sS'he'
p4305
I175
sS'count'
p4306
I137
sS'allurement'
p4307
I3694
sS'tossed'
p4308
I3722
sS'supposeth'
p4309
I4032
sS'evident'
p4310
I476
sS'whether'
p4311
I1325
sS'flit'
p4312
I3829
sS'grieve'
p4313
I1127
sS'signed'
p4314
I4262
sS"eyes'"
p4315
I2970
sS'record'
p4316
I1688
sS'cruel'
p4317
I47
sS'catching'
p4318
I4340
sS'limit'
p4319
I2166
sS'conceive'
p4320
I3308
sS'monument'
p4321
I2156
sS'minutes'
p4322
I626
sS'display'
p4323
I4245
sS'whylest'
p4324
I3815
sS'furies'
p4325
I4330
sS'rightly'
p4326
I2334
sS'play'
p4327
I259
sS'deaths'
p4328
I1668
sS'devise'
p4329
I1999
sS'accounts'
p4330
I3656
sS'measure'
p4331
I1953
sS'dearth'
p4332
I3085
sS'denote'
p4333
I3120
sS'beats'
p4334
I4008
sS'lived'
p4335
I1931
sS'liberties'
p4336
I4122
sS'dyed'
p4337
I2431
sS'preposterously'
p4338
I2546
sS'sparks'
p4339
I4339
sS'partly'
p4340
I2604
sS'self-killed'
p4341
I309
sS'proceeds'
p4342
I2907
sS'endeared'
p4343
I1138
sS'love-pined'
p4344
I3226
sS'bones'
p4345
I1159
sS'renowned'
p4346
I3873
sS'compared'
p4347
I2293
sS'didst'
p4348
I1225
sS'deadly'
p4349
I3263
sS'oak'
p4350
I3305
sS'forests'
p4351
I2470
sS'smiling'
p4352
I2803
sS'slumbers'
p4353
I1799
sS'other'
p4354
I589
sS'prizing'
p4355
I3048
sS'sick'
p4356
I2119
sS'unlettered'
p4357
I2215
sS'behold'
p4358
I545
sS'out'
p4359
I678
sS'scandal'
p4360
I2587
sS'illusion'
p4361
I3463
sS'dresses'
p4362
I3769
sS'pupil'
p4363
I711
sS'semblance'
p4364
I590
sS'kinds'
p4365
I2543
sS'secretly'
p4366
I3863
sS'ears'
p4367
I3006
sS'oppression'
p4368
I1050
sS'variation'
p4369
I2058
sS'insults'
p4370
I2520
sS'methinks'
p4371
I618
sS'chance'
p4372
I770
sS'longing'
p4373
I3100
sS'earthly'
p4374
I734
sS'pacify'
p4375
I3379
sS'gloriously'
p4376
I4181
sS'astronomy'
p4377
I616
sS'veil'
p4378
I2358
sS'tan'
p4379
I2652
sS'ghost'
p4380
I2233
sS'stirred'
p4381
I855
sS'misdeem'
p4382
I4047
sS'self-example'
p4383
I3037
sS'ranks'
p4384
I1177
sS"he's"
p4385
I1838
sS'love-kindling'
p4386
I3174
sS'jewel'
p4387
I1040
sS'abhor'
p4388
I3144
sS'entreat'
p4389
I3244
sS'look'
p4390
I153
sS'lift'
p4391
I3832
sS'thrivers'
p4392
I2830
sS"sway'st"
p4393
I2855
sS'vassal'
p4394
I1739
sS'understand'
p4395
I3911
sS'accidents'
p4396
I2644
sS'indirectly'
p4397
I1919
sS'augmented'
p4398
I3679
ssS'rhymepairs'
p4399
(lp4400
(lp4401
S'increase'
p4402
aS'decease'
p4403
aa(lp4404
S'die'
p4405
aS'memory'
p4406
aa(lp4407
S'eyes'
p4408
aS'lies'
p4409
aa(lp4410
S'fuel'
p4411
aS'cruel'
p4412
aa(lp4413
S'ornament'
p4414
aS'content'
p4415
aa(lp4416
S'spring'
p4417
aS'niggarding'
p4418
aa(lp4419
S'be'
p4420
aS'thee'
p4421
aa(lp4422
S'brow'
p4423
aS'now'
p4424
aa(lp4425
S'field'
p4426
aS'held'
p4427
aa(lp4428
S'lies'
p4429
aS'eyes'
p4430
aa(lp4431
S'days'
p4432
aS'praise'
p4433
aa(lp4434
S'use'
p4435
aS"excuse'"
p4436
aa(lp4437
S'mine'
p4438
aS'thine'
p4439
aa(lp4440
S'old'
p4441
aS'cold'
p4442
aa(lp4443
S'viewest'
p4444
aS'renewest'
p4445
aa(lp4446
S'another'
p4447
aS'mother'
p4448
aa(lp4449
S'womb'
p4450
aS'tomb'
p4451
aa(lp4452
S'husbandry'
p4453
aS'posterity'
p4454
aa(lp4455
S'thee'
p4456
aS'see'
p4457
aa(lp4458
S'prime'
p4459
aS'time'
p4460
aa(lp4461
S'be'
p4462
aS'thee'
p4463
aa(lp4464
S'spend'
p4465
aS'lend'
p4466
aa(lp4467
S'legacy'
p4468
aS'free'
p4469
aa(lp4470
S'abuse'
p4471
aS'use'
p4472
aa(lp4473
S'give'
p4474
aS'live'
p4475
aa(lp4476
S'alone'
p4477
aS'gone'
p4478
aa(lp4479
S'deceive'
p4480
aS'leave'
p4481
aa(lp4482
S'thee'
p4483
aS'be'
p4484
aa(lp4485
S'frame'
p4486
aS'same'
p4487
aa(lp4488
S'dwell'
p4489
aS'excel'
p4490
aa(lp4491
S'on'
p4492
aS'gone'
p4493
aa(lp4494
S'there'
p4495
aS'where'
p4496
aa(lp4497
S'left'
p4498
aS'bereft'
p4499
aa(lp4500
S'glass'
p4501
aS'was'
p4502
aa(lp4503
S'meet'
p4504
aS'sweet'
p4505
aa(lp4506
S'deface'
p4507
aS'place'
p4508
aa(lp4509
S'distilled'
p4510
aS'self-killed'
p4511
aa(lp4512
S'usury'
p4513
aS'thee'
p4514
aa(lp4515
S'loan'
p4516
aS'one'
p4517
aa(lp4518
S'art'
p4519
aS'depart'
p4520
aa(lp4521
S'thee'
p4522
aS'posterity'
p4523
aa(lp4524
S'fair'
p4525
aS'heir'
p4526
aa(lp4527
S'light'
p4528
aS'sight'
p4529
aa(lp4530
S'eye'
p4531
aS'majesty'
p4532
aa(lp4533
S'hill'
p4534
aS'still'
p4535
aa(lp4536
S'age'
p4537
aS'pilgrimage'
p4538
aa(lp4539
S'car'
p4540
aS'are'
p4541
aa(lp4542
S'day'
p4543
aS'way'
p4544
aa(lp4545
S'noon'
p4546
aS'son'
p4547
aa(lp4548
S'sadly'
p4549
aS'gladly'
p4550
aa(lp4551
S'joy'
p4552
aS'annoy'
p4553
aa(lp4554
S'sounds'
p4555
aS'confounds'
p4556
aa(lp4557
S'ear'
p4558
aS'bear'
p4559
aa(lp4560
S'another'
p4561
aS'mother'
p4562
aa(lp4563
S'ordering'
p4564
aS'sing'
p4565
aa(lp4566
S'one'
p4567
aS"none'"
p4568
aa(lp4569
S'eye'
p4570
aS'die'
p4571
aa(lp4572
S'life'
p4573
aS'wife'
p4574
aa(lp4575
S'weep'
p4576
aS'keep'
p4577
aa(lp4578
S'behind'
p4579
aS'mind'
p4580
aa(lp4581
S'spend'
p4582
aS'end'
p4583
aa(lp4584
S'it'
p4585
aS'it'
p4586
aa(lp4587
S'sits'
p4588
aS'commits'
p4589
aa(lp4590
S'any'
p4591
aS'many'
p4592
aa(lp4593
S'unprovident'
p4594
aS'evident'
p4595
aa(lp4596
S'hate'
p4597
aS'ruinate'
p4598
aa(lp4599
S'conspire'
p4600
aS'desire'
p4601
aa(lp4602
S'mind'
p4603
aS'kind'
p4604
aa(lp4605
S'love'
p4606
aS'prove'
p4607
aa(lp4608
S'me'
p4609
aS'thee'
p4610
aa(lp4611
S"grow'st"
p4612
aS"bestow'st"
p4613
aa(lp4614
S'departest'
p4615
aS'convertest'
p4616
aa(lp4617
S'increase'
p4618
aS'cease'
p4619
aa(lp4620
S'decay'
p4621
aS'away'
p4622
aa(lp4623
S'store'
p4624
aS'more'
p4625
aa(lp4626
S'perish'
p4627
aS'cherish'
p4628
aa(lp4629
S'thereby'
p4630
aS'die'
p4631
aa(lp4632
S'time'
p4633
aS'prime'
p4634
aa(lp4635
S'night'
p4636
aS'white'
p4637
aa(lp4638
S'leaves'
p4639
aS'sheaves'
p4640
aa(lp4641
S'herd'
p4642
aS'beard'
p4643
aa(lp4644
S'make'
p4645
aS'forsake'
p4646
aa(lp4647
S'go'
p4648
aS'grow'
p4649
aa(lp4650
S'defence'
p4651
aS'hence'
p4652
aa(lp4653
S'are'
p4654
aS'prepare'
p4655
aa(lp4656
S'live'
p4657
aS'give'
p4658
aa(lp4659
S'lease'
p4660
aS'decease'
p4661
aa(lp4662
S'were'
p4663
aS'bear'
p4664
aa(lp4665
S'decay'
p4666
aS'day'
p4667
aa(lp4668
S'uphold'
p4669
aS'cold'
p4670
aa(lp4671
S'know'
p4672
aS'so'
p4673
aa(lp4674
S'pluck'
p4675
aS'luck'
p4676
aa(lp4677
S'astronomy'
p4678
aS'quality'
p4679
aa(lp4680
S'tell'
p4681
aS'well'
p4682
aa(lp4683
S'wind'
p4684
aS'find'
p4685
aa(lp4686
S'derive'
p4687
aS'thrive'
p4688
aa(lp4689
S'art'
p4690
aS'convert'
p4691
aa(lp4692
S'prognosticate'
p4693
aS'date'
p4694
aa(lp4695
S'grows'
p4696
aS'shows'
p4697
aa(lp4698
S'moment'
p4699
aS'comment'
p4700
aa(lp4701
S'increase'
p4702
aS'decrease'
p4703
aa(lp4704
S'sky'
p4705
aS'memory'
p4706
aa(lp4707
S'stay'
p4708
aS'decay'
p4709
aa(lp4710
S'sight'
p4711
aS'night'
p4712
aa(lp4713
S'you'
p4714
aS'new'
p4715
aa(lp4716
S'way'
p4717
aS'decay'
p4718
aa(lp4719
S'Time'
p4720
aS'rhyme'
p4721
aa(lp4722
S'hours'
p4723
aS'flowers'
p4724
aa(lp4725
S'unset'
p4726
aS'counterfeit'
p4727
aa(lp4728
S'repair'
p4729
aS'fair'
p4730
aa(lp4731
S'pen'
p4732
aS'men'
p4733
aa(lp4734
S'still'
p4735
aS'skill'
p4736
aa(lp4737
S'come'
p4738
aS'tomb'
p4739
aa(lp4740
S'deserts'
p4741
aS'parts'
p4742
aa(lp4743
S'eyes'
p4744
aS'lies'
p4745
aa(lp4746
S'graces'
p4747
aS'faces'
p4748
aa(lp4749
S'age'
p4750
aS'rage'
p4751
aa(lp4752
S'tongue'
p4753
aS'song'
p4754
aa(lp4755
S'time'
p4756
aS'rhyme'
p4757
aa(lp4758
S'day'
p4759
aS'May'
p4760
aa(lp4761
S'temperate'
p4762
aS'date'
p4763
aa(lp4764
S'shines'
p4765
aS'declines'
p4766
aa(lp4767
S'dimmed'
p4768
aS'untrimmed'
p4769
aa(lp4770
S'fade'
p4771
aS'shade'
p4772
aa(lp4773
S"ow'st"
p4774
aS"grow'st"
p4775
aa(lp4776
S'see'
p4777
aS'thee'
p4778
aa(lp4779
S'paws'
p4780
aS'jaws'
p4781
aa(lp4782
S'brood'
p4783
aS'blood'
p4784
aa(lp4785
S"fleet'st"
p4786
aS'sweets'
p4787
aa(lp4788
S'Time'
p4789
aS'crime'
p4790
aa(lp4791
S'brow'
p4792
aS'allow'
p4793
aa(lp4794
S'pen'
p4795
aS'men'
p4796
aa(lp4797
S'wrong'
p4798
aS'young'
p4799
aa(lp4800
S'painted'
p4801
aS'acquainted'
p4802
aa(lp4803
S'passion'
p4804
aS'fashion'
p4805
aa(lp4806
S'rolling'
p4807
aS'controlling'
p4808
aa(lp4809
S'gazeth'
p4810
aS'amazeth'
p4811
aa(lp4812
S'created'
p4813
aS'defeated'
p4814
aa(lp4815
S'a-doting'
p4816
aS'nothing'
p4817
aa(lp4818
S'pleasure'
p4819
aS'treasure'
p4820
aa(lp4821
S'muse'
p4822
aS'use'
p4823
aa(lp4824
S'verse'
p4825
aS'rehearse'
p4826
aa(lp4827
S'compare'
p4828
aS'rare'
p4829
aa(lp4830
S'gems'
p4831
aS'hems'
p4832
aa(lp4833
S'write'
p4834
aS'bright'
p4835
aa(lp4836
S'fair'
p4837
aS'air'
p4838
aa(lp4839
S'well'
p4840
aS'sell'
p4841
aa(lp4842
S'old'
p4843
aS'behold'
p4844
aa(lp4845
S'date'
p4846
aS'expiate'
p4847
aa(lp4848
S'thee'
p4849
aS'me'
p4850
aa(lp4851
S'heart'
p4852
aS'art'
p4853
aa(lp4854
S'wary'
p4855
aS'chary'
p4856
aa(lp4857
S'will'
p4858
aS'ill'
p4859
aa(lp4860
S'slain'
p4861
aS'again'
p4862
aa(lp4863
S'stage'
p4864
aS'rage'
p4865
aa(lp4866
S'part'
p4867
aS'heart'
p4868
aa(lp4869
S'say'
p4870
aS'decay'
p4871
aa(lp4872
S'rite'
p4873
aS'might'
p4874
aa(lp4875
S'eloquence'
p4876
aS'recompense'
p4877
aa(lp4878
S'breast'
p4879
aS'expressed'
p4880
aa(lp4881
S'writ'
p4882
aS'wit'
p4883
aa(lp4884
S'stelled'
p4885
aS'held'
p4886
aa(lp4887
S'heart'
p4888
aS'art'
p4889
aa(lp4890
S'skill'
p4891
aS'still'
p4892
aa(lp4893
S'lies'
p4894
aS'eyes'
p4895
aa(lp4896
S'done'
p4897
aS'sun'
p4898
aa(lp4899
S'me'
p4900
aS'thee'
p4901
aa(lp4902
S'art'
p4903
aS'heart'
p4904
aa(lp4905
S'stars'
p4906
aS'bars'
p4907
aa(lp4908
S'boast'
p4909
aS'most'
p4910
aa(lp4911
S'spread'
p4912
aS'buried'
p4913
aa(lp4914
S'eye'
p4915
aS'die'
p4916
aa(lp4917
S'fight'
p4918
aS'quite'
p4919
aa(lp4920
S'foiled'
p4921
aS'toiled'
p4922
aa(lp4923
S'beloved'
p4924
aS'removed'
p4925
aa(lp4926
S'vassalage'
p4927
aS'embassage'
p4928
aa(lp4929
S'knit'
p4930
aS'wit'
p4931
aa(lp4932
S'mine'
p4933
aS'thine'
p4934
aa(lp4935
S'it'
p4936
aS'it'
p4937
aa(lp4938
S'moving'
p4939
aS'loving'
p4940
aa(lp4941
S'aspect'
p4942
aS'respect'
p4943
aa(lp4944
S'thee'
p4945
aS'me'
p4946
aa(lp4947
S'bed'
p4948
aS'head'
p4949
aa(lp4950
S'tired'
p4951
aS'expired'
p4952
aa(lp4953
S'abide'
p4954
aS'wide'
p4955
aa(lp4956
S'thee'
p4957
aS'see'
p4958
aa(lp4959
S'sight'
p4960
aS'night'
p4961
aa(lp4962
S'view'
p4963
aS'new'
p4964
aa(lp4965
S'mind'
p4966
aS'find'
p4967
aa(lp4968
S'plight'
p4969
aS'night'
p4970
aa(lp4971
S'rest'
p4972
aS'oppressed'
p4973
aa(lp4974
S'reign'
p4975
aS'complain'
p4976
aa(lp4977
S'me'
p4978
aS'thee'
p4979
aa(lp4980
S'bright'
p4981
aS'night'
p4982
aa(lp4983
S'heaven'
p4984
aS'even'
p4985
aa(lp4986
S'longer'
p4987
aS'stronger'
p4988
aa(lp4989
S'eyes'
p4990
aS'cries'
p4991
aa(lp4992
S'state'
p4993
aS'fate'
p4994
aa(lp4995
S'hope'
p4996
aS'scope'
p4997
aa(lp4998
S'possessed'
p4999
aS'least'
p5000
aa(lp5001
S'despising'
p5002
aS'arising'
p5003
aa(lp5004
S'state'
p5005
aS'gate'
p5006
aa(lp5007
S'brings'
p5008
aS'kings'
p5009
aa(lp5010
S'thought'
p5011
aS'sought'
p5012
aa(lp5013
S'past'
p5014
aS'waste'
p5015
aa(lp5016
S'flow'
p5017
aS'woe'
p5018
aa(lp5019
S'night'
p5020
aS'sight'
p5021
aa(lp5022
S'foregone'
p5023
aS'moan'
p5024
aa(lp5025
S"o'er"
p5026
aS'before'
p5027
aa(lp5028
S'friend'
p5029
aS'end'
p5030
aa(lp5031
S'hearts'
p5032
aS'parts'
p5033
aa(lp5034
S'dead'
p5035
aS'buried'
p5036
aa(lp5037
S'tear'
p5038
aS'appear'
p5039
aa(lp5040
S'eye'
p5041
aS'lie'
p5042
aa(lp5043
S'live'
p5044
aS'give'
p5045
aa(lp5046
S'gone'
p5047
aS'alone'
p5048
aa(lp5049
S'thee'
p5050
aS'me'
p5051
aa(lp5052
S'day'
p5053
aS're-survey'
p5054
aa(lp5055
S'cover'
p5056
aS'lover'
p5057
aa(lp5058
S'time'
p5059
aS'rhyme'
p5060
aa(lp5061
S'pen'
p5062
aS'men'
p5063
aa(lp5064
S'thought'
p5065
aS'brought'
p5066
aa(lp5067
S'age'
p5068
aS'equipage'
p5069
aa(lp5070
S'prove'
p5071
aS"love'"
p5072
aa(lp5073
S'seen'
p5074
aS'green'
p5075
aa(lp5076
S'eye'
p5077
aS'alchemy'
p5078
aa(lp5079
S'ride'
p5080
aS'hide'
p5081
aa(lp5082
S'face'
p5083
aS'disgrace'
p5084
aa(lp5085
S'shine'
p5086
aS'mine'
p5087
aa(lp5088
S'brow'
p5089
aS'now'
p5090
aa(lp5091
S'disdaineth'
p5092
aS'staineth'
p5093
aa(lp5094
S'day'
p5095
aS'way'
p5096
aa(lp5097
S'cloak'
p5098
aS'smoke'
p5099
aa(lp5100
S'break'
p5101
aS'speak'
p5102
aa(lp5103
S'face'
p5104
aS'disgrace'
p5105
aa(lp5106
S'grief'
p5107
aS'relief'
p5108
aa(lp5109
S'loss'
p5110
aS'cross'
p5111
aa(lp5112
S'sheds'
p5113
aS'deeds'
p5114
aa(lp5115
S'done'
p5116
aS'sun'
p5117
aa(lp5118
S'mud'
p5119
aS'bud'
p5120
aa(lp5121
S'this'
p5122
aS'amiss'
p5123
aa(lp5124
S'compare'
p5125
aS'are'
p5126
aa(lp5127
S'sense'
p5128
aS'commence'
p5129
aa(lp5130
S'advocate'
p5131
aS'hate'
p5132
aa(lp5133
S'be'
p5134
aS'me'
p5135
aa(lp5136
S'twain'
p5137
aS'remain'
p5138
aa(lp5139
S'one'
p5140
aS'alone'
p5141
aa(lp5142
S'respect'
p5143
aS'effect'
p5144
aa(lp5145
S'spite'
p5146
aS'delight'
p5147
aa(lp5148
S'thee'
p5149
aS'me'
p5150
aa(lp5151
S'shame'
p5152
aS'name'
p5153
aa(lp5154
S'sort'
p5155
aS'report'
p5156
aa(lp5157
S'delight'
p5158
aS'spite'
p5159
aa(lp5160
S'youth'
p5161
aS'truth'
p5162
aa(lp5163
S'wit'
p5164
aS'sit'
p5165
aa(lp5166
S'more'
p5167
aS'store'
p5168
aa(lp5169
S'despised'
p5170
aS'sufficed'
p5171
aa(lp5172
S'give'
p5173
aS'live'
p5174
aa(lp5175
S'thee'
p5176
aS'me'
p5177
aa(lp5178
S'invent'
p5179
aS'excellent'
p5180
aa(lp5181
S'verse'
p5182
aS'rehearse'
p5183
aa(lp5184
S'me'
p5185
aS'thee'
p5186
aa(lp5187
S'sight'
p5188
aS'light'
p5189
aa(lp5190
S'worth'
p5191
aS'forth'
p5192
aa(lp5193
S'invocate'
p5194
aS'date'
p5195
aa(lp5196
S'days'
p5197
aS'praise'
p5198
aa(lp5199
S'sing'
p5200
aS'bring'
p5201
aa(lp5202
S'me'
p5203
aS'thee'
p5204
aa(lp5205
S'live'
p5206
aS'give'
p5207
aa(lp5208
S'one'
p5209
aS'alone'
p5210
aa(lp5211
S'prove'
p5212
aS'love'
p5213
aa(lp5214
S'leave'
p5215
aS'deceive'
p5216
aa(lp5217
S'twain'
p5218
aS'remain'
p5219
aa(lp5220
S'all'
p5221
aS'call'
p5222
aa(lp5223
S'before'
p5224
aS'more'
p5225
aa(lp5226
S'receivest'
p5227
aS'deceivest'
p5228
aa(lp5229
S'usest'
p5230
aS'refusest'
p5231
aa(lp5232
S'thief'
p5233
aS'grief'
p5234
aa(lp5235
S'poverty'
p5236
aS'injury'
p5237
aa(lp5238
S'shows'
p5239
aS'foes'
p5240
aa(lp5241
S'commits'
p5242
aS'befits'
p5243
aa(lp5244
S'heart'
p5245
aS'art'
p5246
aa(lp5247
S'won'
p5248
aS'son'
p5249
aa(lp5250
S'assailed'
p5251
aS'prevailed'
p5252
aa(lp5253
S'forbear'
p5254
aS'there'
p5255
aa(lp5256
S'youth'
p5257
aS'truth'
p5258
aa(lp5259
S'thee'
p5260
aS'me'
p5261
aa(lp5262
S'grief'
p5263
aS'chief'
p5264
aa(lp5265
S'dearly'
p5266
aS'nearly'
p5267
aa(lp5268
S'ye'
p5269
aS'me'
p5270
aa(lp5271
S'her'
p5272
aS'her'
p5273
aa(lp5274
S'gain'
p5275
aS'twain'
p5276
aa(lp5277
S'loss'
p5278
aS'cross'
p5279
aa(lp5280
S'one'
p5281
aS'alone'
p5282
aa(lp5283
S'see'
p5284
aS'thee'
p5285
aa(lp5286
S'unrespected'
p5287
aS'directed'
p5288
aa(lp5289
S'bright'
p5290
aS'light'
p5291
aa(lp5292
S'show'
p5293
aS'so'
p5294
aa(lp5295
S'made'
p5296
aS'shade'
p5297
aa(lp5298
S'day'
p5299
aS'stay'
p5300
aa(lp5301
S'thee'
p5302
aS'me'
p5303
aa(lp5304
S'thought'
p5305
aS'brought'
p5306
aa(lp5307
S'way'
p5308
aS'stay'
p5309
aa(lp5310
S'stand'
p5311
aS'land'
p5312
aa(lp5313
S'thee'
p5314
aS'be'
p5315
aa(lp5316
S'thought'
p5317
aS'wrought'
p5318
aa(lp5319
S'gone'
p5320
aS'moan'
p5321
aa(lp5322
S'slow'
p5323
aS'woe'
p5324
aa(lp5325
S'fire'
p5326
aS'desire'
p5327
aa(lp5328
S'abide'
p5329
aS'slide'
p5330
aa(lp5331
S'gone'
p5332
aS'alone'
p5333
aa(lp5334
S'thee'
p5335
aS'melancholy'
p5336
aa(lp5337
S'recured'
p5338
aS'assured'
p5339
aa(lp5340
S'thee'
p5341
aS'me'
p5342
aa(lp5343
S'glad'
p5344
aS'sad'
p5345
aa(lp5346
S'war'
p5347
aS'bar'
p5348
aa(lp5349
S'sight'
p5350
aS'right'
p5351
aa(lp5352
S'lie'
p5353
aS'deny'
p5354
aa(lp5355
S'eyes'
p5356
aS'lies'
p5357
aa(lp5358
S'impanelled'
p5359
aS'determined'
p5360
aa(lp5361
S'heart'
p5362
aS'part'
p5363
aa(lp5364
S'part'
p5365
aS'heart'
p5366
aa(lp5367
S'took'
p5368
aS'look'
p5369
aa(lp5370
S'other'
p5371
aS'smother'
p5372
aa(lp5373
S'feast'
p5374
aS'guest'
p5375
aa(lp5376
S'heart'
p5377
aS'part'
p5378
aa(lp5379
S'love'
p5380
aS'move'
p5381
aa(lp5382
S'me'
p5383
aS'thee'
p5384
aa(lp5385
S'sight'
p5386
aS'delight'
p5387
aa(lp5388
S'way'
p5389
aS'stay'
p5390
aa(lp5391
S'thrust'
p5392
aS'trust'
p5393
aa(lp5394
S'are'
p5395
aS'care'
p5396
aa(lp5397
S'grief'
p5398
aS'thief'
p5399
aa(lp5400
S'chest'
p5401
aS'breast'
p5402
aa(lp5403
S'art'
p5404
aS'part'
p5405
aa(lp5406
S'fear'
p5407
aS'dear'
p5408
aa(lp5409
S'come'
p5410
aS'sum'
p5411
aa(lp5412
S'defects'
p5413
aS'respects'
p5414
aa(lp5415
S'pass'
p5416
aS'was'
p5417
aa(lp5418
S'eye'
p5419
aS'gravity'
p5420
aa(lp5421
S'here'
p5422
aS'uprear'
p5423
aa(lp5424
S'desert'
p5425
aS'part'
p5426
aa(lp5427
S'laws'
p5428
aS'cause'
p5429
aa(lp5430
S'way'
p5431
aS'say'
p5432
aa(lp5433
S'end'
p5434
aS"friend'"
p5435
aa(lp5436
S'woe'
p5437
aS'know'
p5438
aa(lp5439
S'me'
p5440
aS'thee'
p5441
aa(lp5442
S'on'
p5443
aS'groan'
p5444
aa(lp5445
S'hide'
p5446
aS'side'
p5447
aa(lp5448
S'mind'
p5449
aS'behind'
p5450
aa(lp5451
S'offence'
p5452
aS'thence'
p5453
aa(lp5454
S'speed'
p5455
aS'need'
p5456
aa(lp5457
S'find'
p5458
aS'wind'
p5459
aa(lp5460
S'slow'
p5461
aS'know'
p5462
aa(lp5463
S'pace'
p5464
aS'race'
p5465
aa(lp5466
S'made'
p5467
aS'jade'
p5468
aa(lp5469
S'wilful-slow'
p5470
aS'go'
p5471
aa(lp5472
S'key'
p5473
aS'survey'
p5474
aa(lp5475
S'treasure'
p5476
aS'pleasure'
p5477
aa(lp5478
S'rare'
p5479
aS'are'
p5480
aa(lp5481
S'set'
p5482
aS'carcanet'
p5483
aa(lp5484
S'chest'
p5485
aS'special-blest'
p5486
aa(lp5487
S'hide'
p5488
aS'pride'
p5489
aa(lp5490
S'scope'
p5491
aS'hope'
p5492
aa(lp5493
S'made'
p5494
aS'shade'
p5495
aa(lp5496
S'tend'
p5497
aS'lend'
p5498
aa(lp5499
S'counterfeit'
p5500
aS'set'
p5501
aa(lp5502
S'you'
p5503
aS'new'
p5504
aa(lp5505
S'year'
p5506
aS'appear'
p5507
aa(lp5508
S'show'
p5509
aS'know'
p5510
aa(lp5511
S'part'
p5512
aS'heart'
p5513
aa(lp5514
S'seem'
p5515
aS'deem'
p5516
aa(lp5517
S'give'
p5518
aS'live'
p5519
aa(lp5520
S'dye'
p5521
aS'wantonly'
p5522
aa(lp5523
S'roses'
p5524
aS'discloses'
p5525
aa(lp5526
S'show'
p5527
aS'so'
p5528
aa(lp5529
S'fade'
p5530
aS'made'
p5531
aa(lp5532
S'youth'
p5533
aS'truth'
p5534
aa(lp5535
S'monuments'
p5536
aS'contents'
p5537
aa(lp5538
S'rhyme'
p5539
aS'time'
p5540
aa(lp5541
S'overturn'
p5542
aS'burn'
p5543
aa(lp5544
S'masonry'
p5545
aS'memory'
p5546
aa(lp5547
S'enmity'
p5548
aS'posterity'
p5549
aa(lp5550
S'room'
p5551
aS'doom'
p5552
aa(lp5553
S'arise'
p5554
aS'eyes'
p5555
aa(lp5556
S'said'
p5557
aS'allayed'
p5558
aa(lp5559
S'appetite'
p5560
aS'might'
p5561
aa(lp5562
S'fill'
p5563
aS'kill'
p5564
aa(lp5565
S'fulness'
p5566
aS'dulness'
p5567
aa(lp5568
S'be'
p5569
aS'see'
p5570
aa(lp5571
S'new'
p5572
aS'view'
p5573
aa(lp5574
S'care'
p5575
aS'rare'
p5576
aa(lp5577
S'tend'
p5578
aS'spend'
p5579
aa(lp5580
S'desire'
p5581
aS'require'
p5582
aa(lp5583
S'hour'
p5584
aS'sour'
p5585
aa(lp5586
S'you'
p5587
aS'adieu'
p5588
aa(lp5589
S'thought'
p5590
aS'nought'
p5591
aa(lp5592
S'suppose'
p5593
aS'those'
p5594
aa(lp5595
S'will'
p5596
aS'ill'
p5597
aa(lp5598
S'slave'
p5599
aS'crave'
p5600
aa(lp5601
S'pleasure'
p5602
aS'leisure'
p5603
aa(lp5604
S'beck'
p5605
aS'check'
p5606
aa(lp5607
S'liberty'
p5608
aS'injury'
p5609
aa(lp5610
S'strong'
p5611
aS'belong'
p5612
aa(lp5613
S'time'
p5614
aS'crime'
p5615
aa(lp5616
S'hell'
p5617
aS'well'
p5618
aa(lp5619
S'is'
p5620
aS'amis'
p5621
aa(lp5622
S'beguiled'
p5623
aS'child'
p5624
aa(lp5625
S'look'
p5626
aS'book'
p5627
aa(lp5628
S'sun'
p5629
aS'done'
p5630
aa(lp5631
S'say'
p5632
aS'they'
p5633
aa(lp5634
S'frame'
p5635
aS'same'
p5636
aa(lp5637
S'days'
p5638
aS'praise'
p5639
aa(lp5640
S'shore'
p5641
aS'before'
p5642
aa(lp5643
S'end'
p5644
aS'contend'
p5645
aa(lp5646
S'light'
p5647
aS'fight'
p5648
aa(lp5649
S'crowned'
p5650
aS'confound'
p5651
aa(lp5652
S'youth'
p5653
aS'truth'
p5654
aa(lp5655
S'brow'
p5656
aS'mow'
p5657
aa(lp5658
S'stand'
p5659
aS'hand'
p5660
aa(lp5661
S'open'
p5662
aS'broken'
p5663
aa(lp5664
S'night'
p5665
aS'sight'
p5666
aa(lp5667
S'thee'
p5668
aS'me'
p5669
aa(lp5670
S'pry'
p5671
aS'jealousy'
p5672
aa(lp5673
S'great'
p5674
aS'defeat'
p5675
aa(lp5676
S'awake'
p5677
aS'sake'
p5678
aa(lp5679
S'elsewhere'
p5680
aS'near'
p5681
aa(lp5682
S'eye'
p5683
aS'remedy'
p5684
aa(lp5685
S'part'
p5686
aS'heart'
p5687
aa(lp5688
S'mine'
p5689
aS'define'
p5690
aa(lp5691
S'account'
p5692
aS'surmount'
p5693
aa(lp5694
S'indeed'
p5695
aS'read'
p5696
aa(lp5697
S'antiquity'
p5698
aS'iniquity'
p5699
aa(lp5700
S'praise'
p5701
aS'days'
p5702
aa(lp5703
S'now'
p5704
aS'brow'
p5705
aa(lp5706
S"o'erworn"
p5707
aS'morn'
p5708
aa(lp5709
S'night'
p5710
aS'sight'
p5711
aa(lp5712
S'king'
p5713
aS'spring'
p5714
aa(lp5715
S'fortify'
p5716
aS'memory'
p5717
aa(lp5718
S'knife'
p5719
aS'life'
p5720
aa(lp5721
S'seen'
p5722
aS'green'
p5723
aa(lp5724
S'defaced'
p5725
aS'down-rased'
p5726
aa(lp5727
S'age'
p5728
aS'rage'
p5729
aa(lp5730
S'gain'
p5731
aS'main'
p5732
aa(lp5733
S'shore'
p5734
aS'store'
p5735
aa(lp5736
S'State'
p5737
aS'ruminate'
p5738
aa(lp5739
S'decay'
p5740
aS'away'
p5741
aa(lp5742
S'choose'
p5743
aS'lose'
p5744
aa(lp5745
S'sea'
p5746
aS'plea'
p5747
aa(lp5748
S'power'
p5749
aS'flower'
p5750
aa(lp5751
S'out'
p5752
aS'stout'
p5753
aa(lp5754
S'days'
p5755
aS'decays'
p5756
aa(lp5757
S'alack'
p5758
aS'back'
p5759
aa(lp5760
S'hid'
p5761
aS'forbid'
p5762
aa(lp5763
S'might'
p5764
aS'bright'
p5765
aa(lp5766
S'cry'
p5767
aS'jollity'
p5768
aa(lp5769
S'born'
p5770
aS'forsworn'
p5771
aa(lp5772
S'misplaced'
p5773
aS'disgraced'
p5774
aa(lp5775
S'strumpeted'
p5776
aS'disabled'
p5777
aa(lp5778
S'authority'
p5779
aS'simplicity'
p5780
aa(lp5781
S'skill'
p5782
aS'ill'
p5783
aa(lp5784
S'gone'
p5785
aS'alone'
p5786
aa(lp5787
S'live'
p5788
aS'achieve'
p5789
aa(lp5790
S'impiety'
p5791
aS'society'
p5792
aa(lp5793
S'cheek'
p5794
aS'seek'
p5795
aa(lp5796
S'hue'
p5797
aS'true'
p5798
aa(lp5799
S'is'
p5800
aS'his'
p5801
aa(lp5802
S'veins'
p5803
aS'gains'
p5804
aa(lp5805
S'had'
p5806
aS'bad'
p5807
aa(lp5808
S'outworn'
p5809
aS'born'
p5810
aa(lp5811
S'now'
p5812
aS'brow'
p5813
aa(lp5814
S'dead'
p5815
aS'head'
p5816
aa(lp5817
S'away'
p5818
aS'gay'
p5819
aa(lp5820
S'seen'
p5821
aS'green'
p5822
aa(lp5823
S'true'
p5824
aS'new'
p5825
aa(lp5826
S'store'
p5827
aS'yore'
p5828
aa(lp5829
S'view'
p5830
aS'due'
p5831
aa(lp5832
S'mend'
p5833
aS'commend'
p5834
aa(lp5835
S'crowned'
p5836
aS'confound'
p5837
aa(lp5838
S'own'
p5839
aS'shown'
p5840
aa(lp5841
S'mind'
p5842
aS'kind'
p5843
aa(lp5844
S'deeds'
p5845
aS'weeds'
p5846
aa(lp5847
S'show'
p5848
aS'grow'
p5849
aa(lp5850
S'defect'
p5851
aS'suspect'
p5852
aa(lp5853
S'fair'
p5854
aS'air'
p5855
aa(lp5856
S'approve'
p5857
aS'love'
p5858
aa(lp5859
S'time'
p5860
aS'prime'
p5861
aa(lp5862
S'days'
p5863
aS'praise'
p5864
aa(lp5865
S'charged'
p5866
aS'enlarged'
p5867
aa(lp5868
S'show'
p5869
aS'owe'
p5870
aa(lp5871
S'dead'
p5872
aS'fled'
p5873
aa(lp5874
S'bell'
p5875
aS'dwell'
p5876
aa(lp5877
S'not'
p5878
aS'forgot'
p5879
aa(lp5880
S'so'
p5881
aS'woe'
p5882
aa(lp5883
S'verse'
p5884
aS'rehearse'
p5885
aa(lp5886
S'clay'
p5887
aS'decay'
p5888
aa(lp5889
S'moan'
p5890
aS'gone'
p5891
aa(lp5892
S'recite'
p5893
aS'quite'
p5894
aa(lp5895
S'love'
p5896
aS'prove'
p5897
aa(lp5898
S'lie'
p5899
aS'I'
p5900
aa(lp5901
S'desert'
p5902
aS'impart'
p5903
aa(lp5904
S'this'
p5905
aS'is'
p5906
aa(lp5907
S'untrue'
p5908
aS'you'
p5909
aa(lp5910
S'forth'
p5911
aS'worth'
p5912
aa(lp5913
S'behold'
p5914
aS'cold'
p5915
aa(lp5916
S'hang'
p5917
aS'sang'
p5918
aa(lp5919
S'day'
p5920
aS'away'
p5921
aa(lp5922
S'west'
p5923
aS'rest'
p5924
aa(lp5925
S'fire'
p5926
aS'expire'
p5927
aa(lp5928
S'lie'
p5929
aS'by'
p5930
aa(lp5931
S'strong'
p5932
aS'long'
p5933
aa(lp5934
S'arrest'
p5935
aS'interest'
p5936
aa(lp5937
S'away'
p5938
aS'stay'
p5939
aa(lp5940
S'review'
p5941
aS'due'
p5942
aa(lp5943
S'thee'
p5944
aS'me'
p5945
aa(lp5946
S'life'
p5947
aS'knife'
p5948
aa(lp5949
S'dead'
p5950
aS'remembered'
p5951
aa(lp5952
S'contains'
p5953
aS'remains'
p5954
aa(lp5955
S'life'
p5956
aS'strife'
p5957
aa(lp5958
S'ground'
p5959
aS'found'
p5960
aa(lp5961
S'anon'
p5962
aS'alone'
p5963
aa(lp5964
S'treasure'
p5965
aS'pleasure'
p5966
aa(lp5967
S'sight'
p5968
aS'delight'
p5969
aa(lp5970
S'look'
p5971
aS'took'
p5972
aa(lp5973
S'day'
p5974
aS'away'
p5975
aa(lp5976
S'pride'
p5977
aS'aside'
p5978
aa(lp5979
S'change'
p5980
aS'strange'
p5981
aa(lp5982
S'same'
p5983
aS'name'
p5984
aa(lp5985
S'weed'
p5986
aS'proceed'
p5987
aa(lp5988
S'you'
p5989
aS'new'
p5990
aa(lp5991
S'argument'
p5992
aS'spent'
p5993
aa(lp5994
S'old'
p5995
aS'told'
p5996
aa(lp5997
S'wear'
p5998
aS'bear'
p5999
aa(lp6000
S'waste'
p6001
aS'taste'
p6002
aa(lp6003
S'show'
p6004
aS'know'
p6005
aa(lp6006
S'memory'
p6007
aS'eternity'
p6008
aa(lp6009
S'contain'
p6010
aS'brain'
p6011
aa(lp6012
S'find'
p6013
aS'mind'
p6014
aa(lp6015
S'look'
p6016
aS'book'
p6017
aa(lp6018
S'muse'
p6019
aS'use'
p6020
aa(lp6021
S'verse'
p6022
aS'disperse'
p6023
aa(lp6024
S'sing'
p6025
aS'wing'
p6026
aa(lp6027
S'fly'
p6028
aS'majesty'
p6029
aa(lp6030
S'compile'
p6031
aS'style'
p6032
aa(lp6033
S'thee'
p6034
aS'be'
p6035
aa(lp6036
S'advance'
p6037
aS'ignorance'
p6038
aa(lp6039
S'aid'
p6040
aS'decayed'
p6041
aa(lp6042
S'grace'
p6043
aS'place'
p6044
aa(lp6045
S'argument'
p6046
aS'invent'
p6047
aa(lp6048
S'pen'
p6049
aS'again'
p6050
aa(lp6051
S'word'
p6052
aS'afford'
p6053
aa(lp6054
S'give'
p6055
aS'live'
p6056
aa(lp6057
S'say'
p6058
aS'pay'
p6059
aa(lp6060
S'write'
p6061
aS'might'
p6062
aa(lp6063
S'name'
p6064
aS'fame'
p6065
aa(lp6066
S'is'
p6067
aS'his'
p6068
aa(lp6069
S'bear'
p6070
aS'appear'
p6071
aa(lp6072
S'afloat'
p6073
aS'boat'
p6074
aa(lp6075
S'ride'
p6076
aS'pride'
p6077
aa(lp6078
S'away'
p6079
aS'decay'
p6080
aa(lp6081
S'make'
p6082
aS'take'
p6083
aa(lp6084
S'rotten'
p6085
aS'forgotten'
p6086
aa(lp6087
S'have'
p6088
aS'grave'
p6089
aa(lp6090
S'die'
p6091
aS'lie'
p6092
aa(lp6093
S'verse'
p6094
aS'rehearse'
p6095
aa(lp6096
S"o'er-read"
p6097
aS'dead'
p6098
aa(lp6099
S'pen'
p6100
aS'men'
p6101
aa(lp6102
S'muse'
p6103
aS'use'
p6104
aa(lp6105
S"o'erlook"
p6106
aS'book'
p6107
aa(lp6108
S'hue'
p6109
aS'anew'
p6110
aa(lp6111
S'praise'
p6112
aS'days'
p6113
aa(lp6114
S'devised'
p6115
aS'sympathized'
p6116
aa(lp6117
S'lend'
p6118
aS'friend'
p6119
aa(lp6120
S'used'
p6121
aS'abused'
p6122
aa(lp6123
S'need'
p6124
aS'exceed'
p6125
aa(lp6126
S'set'
p6127
aS'debt'
p6128
aa(lp6129
S'report'
p6130
aS'short'
p6131
aa(lp6132
S'show'
p6133
aS'grow'
p6134
aa(lp6135
S'impute'
p6136
aS'mute'
p6137
aa(lp6138
S'dumb'
p6139
aS'tomb'
p6140
aa(lp6141
S'eyes'
p6142
aS'devise'
p6143
aa(lp6144
S'more'
p6145
aS'store'
p6146
aa(lp6147
S'you'
p6148
aS'grew'
p6149
aa(lp6150
S'dwell'
p6151
aS'tell'
p6152
aa(lp6153
S'glory'
p6154
aS'story'
p6155
aa(lp6156
S'writ'
p6157
aS'wit'
p6158
aa(lp6159
S'clear'
p6160
aS'where'
p6161
aa(lp6162
S'curse'
p6163
aS'worse'
p6164
aa(lp6165
S'still'
p6166
aS'quill'
p6167
aa(lp6168
S'compiled'
p6169
aS'filed'
p6170
aa(lp6171
S'words'
p6172
aS'affords'
p6173
aa(lp6174
S'Amen'
p6175
aS'pen'
p6176
aa(lp6177
S'true'
p6178
aS'you'
p6179
aa(lp6180
S'more'
p6181
aS'before'
p6182
aa(lp6183
S'respect'
p6184
aS'effect'
p6185
aa(lp6186
S'verse'
p6187
aS'inhearse'
p6188
aa(lp6189
S'you'
p6190
aS'grew'
p6191
aa(lp6192
S'write'
p6193
aS'night'
p6194
aa(lp6195
S'dead'
p6196
aS'astonished'
p6197
aa(lp6198
S'ghost'
p6199
aS'boast'
p6200
aa(lp6201
S'intelligence'
p6202
aS'thence'
p6203
aa(lp6204
S'line'
p6205
aS'mine'
p6206
aa(lp6207
S'possessing'
p6208
aS'releasing'
p6209
aa(lp6210
S'estimate'
p6211
aS'determinate'
p6212
aa(lp6213
S'granting'
p6214
aS'wanting'
p6215
aa(lp6216
S'deserving'
p6217
aS'swerving'
p6218
aa(lp6219
S'knowing'
p6220
aS'growing'
p6221
aa(lp6222
S'mistaking'
p6223
aS'making'
p6224
aa(lp6225
S'flatter'
p6226
aS'matter'
p6227
aa(lp6228
S'light'
p6229
aS'fight'
p6230
aa(lp6231
S'scorn'
p6232
aS'forsworn'
p6233
aa(lp6234
S'acquainted'
p6235
aS'attainted'
p6236
aa(lp6237
S'story'
p6238
aS'glory'
p6239
aa(lp6240
S'too'
p6241
aS'do'
p6242
aa(lp6243
S'thee'
p6244
aS'me'
p6245
aa(lp6246
S'belong'
p6247
aS'wrong'
p6248
aa(lp6249
S'fault'
p6250
aS'halt'
p6251
aa(lp6252
S'offence'
p6253
aS'defence'
p6254
aa(lp6255
S'ill'
p6256
aS'will'
p6257
aa(lp6258
S'change'
p6259
aS'strange'
p6260
aa(lp6261
S'tongue'
p6262
aS'wronk'
p6263
aa(lp6264
S'dwell'
p6265
aS'tell'
p6266
aa(lp6267
S'debate'
p6268
aS'hate'
p6269
aa(lp6270
S'now'
p6271
aS'bow'
p6272
aa(lp6273
S'cross'
p6274
aS'after-loss'
p6275
aa(lp6276
S'sorrow'
p6277
aS'morrow'
p6278
aa(lp6279
S'woe'
p6280
aS'overthrow'
p6281
aa(lp6282
S'last'
p6283
aS'taste'
p6284
aa(lp6285
S'spite'
p6286
aS'might'
p6287
aa(lp6288
S'woe'
p6289
aS'so'
p6290
aa(lp6291
S'skill'
p6292
aS'ill'
p6293
aa(lp6294
S'force'
p6295
aS'horse'
p6296
aa(lp6297
S'pleasure'
p6298
aS'measure'
p6299
aa(lp6300
S'rest'
p6301
aS'best'
p6302
aa(lp6303
S'me'
p6304
aS'be'
p6305
aa(lp6306
S'costs'
p6307
aS'boast'
p6308
aa(lp6309
S'take'
p6310
aS'make'
p6311
aa(lp6312
S'away'
p6313
aS'stay'
p6314
aa(lp6315
S'mine'
p6316
aS'thine'
p6317
aa(lp6318
S'wrongs'
p6319
aS'belongs'
p6320
aa(lp6321
S'end'
p6322
aS'depend'
p6323
aa(lp6324
S'mind'
p6325
aS'find'
p6326
aa(lp6327
S'lie'
p6328
aS'die'
p6329
aa(lp6330
S'blot'
p6331
aS'not'
p6332
aa(lp6333
S'true'
p6334
aS'new'
p6335
aa(lp6336
S'face'
p6337
aS'place'
p6338
aa(lp6339
S'eye'
p6340
aS'history'
p6341
aa(lp6342
S'change'
p6343
aS'strange'
p6344
aa(lp6345
S'decree'
p6346
aS'be'
p6347
aa(lp6348
S'dwell'
p6349
aS'tell'
p6350
aa(lp6351
S'grow'
p6352
aS'show'
p6353
aa(lp6354
S'none'
p6355
aS'stone'
p6356
aa(lp6357
S'show'
p6358
aS'slow'
p6359
aa(lp6360
S'graces'
p6361
aS'faces'
p6362
aa(lp6363
S'expense'
p6364
aS'excellence'
p6365
aa(lp6366
S'sweet'
p6367
aS'meet'
p6368
aa(lp6369
S'die'
p6370
aS'dignity'
p6371
aa(lp6372
S'deeds'
p6373
aS'weeds'
p6374
aa(lp6375
S'shame'
p6376
aS'name'
p6377
aa(lp6378
S'rose'
p6379
aS'enclose'
p6380
aa(lp6381
S'days'
p6382
aS'praise'
p6383
aa(lp6384
S'sport'
p6385
aS'report'
p6386
aa(lp6387
S'got'
p6388
aS'blot'
p6389
aa(lp6390
S'thee'
p6391
aS'see'
p6392
aa(lp6393
S'privilege'
p6394
aS'edge'
p6395
aa(lp6396
S'wantonness'
p6397
aS'less'
p6398
aa(lp6399
S'sport'
p6400
aS'resort'
p6401
aa(lp6402
S'queen'
p6403
aS'seen'
p6404
aa(lp6405
S'esteemed'
p6406
aS'deemed'
p6407
aa(lp6408
S'betray'
p6409
aS'away'
p6410
aa(lp6411
S'translate'
p6412
aS'state'
p6413
aa(lp6414
S'sort'
p6415
aS'report'
p6416
aa(lp6417
S'been'
p6418
aS'seen'
p6419
aa(lp6420
S'year'
p6421
aS'everywhere'
p6422
aa(lp6423
S'time'
p6424
aS'prime'
p6425
aa(lp6426
S'increase'
p6427
aS'decease'
p6428
aa(lp6429
S'me'
p6430
aS'thee'
p6431
aa(lp6432
S'fruit'
p6433
aS'mute'
p6434
aa(lp6435
S'cheer'
p6436
aS'near'
p6437
aa(lp6438
S'spring'
p6439
aS'thing'
p6440
aa(lp6441
S'trim'
p6442
aS'him'
p6443
aa(lp6444
S'smell'
p6445
aS'tell'
p6446
aa(lp6447
S'hue'
p6448
aS'grew'
p6449
aa(lp6450
S'white'
p6451
aS'delight'
p6452
aa(lp6453
S'rose'
p6454
aS'those'
p6455
aa(lp6456
S'away'
p6457
aS'play'
p6458
aa(lp6459
S'long'
p6460
aS'song'
p6461
aa(lp6462
S'might'
p6463
aS'light'
p6464
aa(lp6465
S'redeem'
p6466
aS'esteem'
p6467
aa(lp6468
S'spent'
p6469
aS'argument'
p6470
aa(lp6471
S'survey'
p6472
aS'decay'
p6473
aa(lp6474
S'there'
p6475
aS'everywhere'
p6476
aa(lp6477
S'life'
p6478
aS'knife'
p6479
aa(lp6480
S'amends'
p6481
aS'depends'
p6482
aa(lp6483
S'dyed'
p6484
aS'dignified'
p6485
aa(lp6486
S'say'
p6487
aS'lay'
p6488
aa(lp6489
S'fixed'
p6490
aS"intermixed'"
p6491
aa(lp6492
S'dumb'
p6493
aS'tomb'
p6494
aa(lp6495
S'thee'
p6496
aS'be'
p6497
aa(lp6498
S'how'
p6499
aS'now'
p6500
aa(lp6501
S'seeming'
p6502
aS'esteeming'
p6503
aa(lp6504
S'appear'
p6505
aS'where'
p6506
aa(lp6507
S'spring'
p6508
aS'sing'
p6509
aa(lp6510
S'lays'
p6511
aS'days'
p6512
aa(lp6513
S'now'
p6514
aS'bough'
p6515
aa(lp6516
S'night'
p6517
aS'delight'
p6518
aa(lp6519
S'tongue'
p6520
aS'song'
p6521
aa(lp6522
S'forth'
p6523
aS'worth'
p6524
aa(lp6525
S'pride'
p6526
aS'beside'
p6527
aa(lp6528
S'write'
p6529
aS'quite'
p6530
aa(lp6531
S'face'
p6532
aS'disgrace'
p6533
aa(lp6534
S'mend'
p6535
aS'tend'
p6536
aa(lp6537
S'well'
p6538
aS'tell'
p6539
aa(lp6540
S'sit'
p6541
aS'it'
p6542
aa(lp6543
S'old'
p6544
aS'cold'
p6545
aa(lp6546
S'eyed'
p6547
aS'pride'
p6548
aa(lp6549
S'turned'
p6550
aS'burned'
p6551
aa(lp6552
S'seen'
p6553
aS'green'
p6554
aa(lp6555
S'hand'
p6556
aS'stand'
p6557
aa(lp6558
S'perceived'
p6559
aS'deceived'
p6560
aa(lp6561
S'unbred'
p6562
aS'dead'
p6563
aa(lp6564
S'idolatry'
p6565
aS'be'
p6566
aa(lp6567
S'show'
p6568
aS'so'
p6569
aa(lp6570
S'kind'
p6571
aS'confined'
p6572
aa(lp6573
S'excellence'
p6574
aS'difference'
p6575
aa(lp6576
S'argument'
p6577
aS'spent'
p6578
aa(lp6579
S'words'
p6580
aS'affords'
p6581
aa(lp6582
S'alone'
p6583
aS'one'
p6584
aa(lp6585
S'time'
p6586
aS'rhyme'
p6587
aa(lp6588
S'wights'
p6589
aS'knights'
p6590
aa(lp6591
S'best'
p6592
aS'expressed'
p6593
aa(lp6594
S'brow'
p6595
aS'now'
p6596
aa(lp6597
S'prophecies'
p6598
aS'eyes'
p6599
aa(lp6600
S'prefiguring'
p6601
aS'sing'
p6602
aa(lp6603
S'days'
p6604
aS'praise'
p6605
aa(lp6606
S'soul'
p6607
aS'control'
p6608
aa(lp6609
S'come'
p6610
aS'doom'
p6611
aa(lp6612
S'endured'
p6613
aS'assured'
p6614
aa(lp6615
S'presage'
p6616
aS'age'
p6617
aa(lp6618
S'time'
p6619
aS'rhyme'
p6620
aa(lp6621
S'subscribes'
p6622
aS'tribes'
p6623
aa(lp6624
S'monument'
p6625
aS'spent'
p6626
aa(lp6627
S'character'
p6628
aS'register'
p6629
aa(lp6630
S'spirit'
p6631
aS'merit'
p6632
aa(lp6633
S'divine'
p6634
aS'thine'
p6635
aa(lp6636
S'same'
p6637
aS'name'
p6638
aa(lp6639
S'case'
p6640
aS'place'
p6641
aa(lp6642
S'age'
p6643
aS'page'
p6644
aa(lp6645
S'bred'
p6646
aS'dead'
p6647
aa(lp6648
S'heart'
p6649
aS'depart'
p6650
aa(lp6651
S'qualify'
p6652
aS'lie'
p6653
aa(lp6654
S'ranged'
p6655
aS'exchanged'
p6656
aa(lp6657
S'again'
p6658
aS'stain'
p6659
aa(lp6660
S'reigned'
p6661
aS'stained'
p6662
aa(lp6663
S'blood'
p6664
aS'good'
p6665
aa(lp6666
S'call'
p6667
aS'all'
p6668
aa(lp6669
S'there'
p6670
aS'dear'
p6671
aa(lp6672
S'view'
p6673
aS'new'
p6674
aa(lp6675
S'truth'
p6676
aS'youth'
p6677
aa(lp6678
S'above'
p6679
aS'love'
p6680
aa(lp6681
S'end'
p6682
aS'friend'
p6683
aa(lp6684
S'grind'
p6685
aS'confined'
p6686
aa(lp6687
S'best'
p6688
aS'breast'
p6689
aa(lp6690
S'chide'
p6691
aS'provide'
p6692
aa(lp6693
S'deeds'
p6694
aS'breeds'
p6695
aa(lp6696
S'brand'
p6697
aS'hand'
p6698
aa(lp6699
S'subdued'
p6700
aS'renewed'
p6701
aa(lp6702
S'drink'
p6703
aS'think'
p6704
aa(lp6705
S'infection'
p6706
aS'correction'
p6707
aa(lp6708
S'ye'
p6709
aS'me'
p6710
aa(lp6711
S'fill'
p6712
aS'ill'
p6713
aa(lp6714
S'brow'
p6715
aS'allow'
p6716
aa(lp6717
S'strive'
p6718
aS'alive'
p6719
aa(lp6720
S'tongue'
p6721
aS'wrong'
p6722
aa(lp6723
S'care'
p6724
aS'are'
p6725
aa(lp6726
S'sense'
p6727
aS'dispense'
p6728
aa(lp6729
S'bred'
p6730
aS'dead'
p6731
aa(lp6732
S'mind'
p6733
aS'blind'
p6734
aa(lp6735
S'about'
p6736
aS'out'
p6737
aa(lp6738
S'heart'
p6739
aS'part'
p6740
aa(lp6741
S'latch'
p6742
aS'catch'
p6743
aa(lp6744
S'sight'
p6745
aS'night'
p6746
aa(lp6747
S'creature'
p6748
aS'feature'
p6749
aa(lp6750
S'you'
p6751
aS'untrue'
p6752
aa(lp6753
S'you'
p6754
aS'true'
p6755
aa(lp6756
S'flattery'
p6757
aS'alchemy'
p6758
aa(lp6759
S'indigest'
p6760
aS'best'
p6761
aa(lp6762
S'resemble'
p6763
aS'assemble'
p6764
aa(lp6765
S'seeing'
p6766
aS"'greeing"
p6767
aa(lp6768
S'up'
p6769
aS'cup'
p6770
aa(lp6771
S'sin'
p6772
aS'begin'
p6773
aa(lp6774
S'lie'
p6775
aS'why'
p6776
aa(lp6777
S'dearer'
p6778
aS'clearer'
p6779
aa(lp6780
S'accidents'
p6781
aS'intents'
p6782
aa(lp6783
S'kings'
p6784
aS'things'
p6785
aa(lp6786
S'tyranny'
p6787
aS'incertainty'
p6788
aa(lp6789
S"best'"
p6790
aS'rest'
p6791
aa(lp6792
S'so'
p6793
aS'grow'
p6794
aa(lp6795
S'minds'
p6796
aS'finds'
p6797
aa(lp6798
S'love'
p6799
aS'remove'
p6800
aa(lp6801
S'mark'
p6802
aS'bark'
p6803
aa(lp6804
S'shaken'
p6805
aS'taken'
p6806
aa(lp6807
S'cheeks'
p6808
aS'weeks'
p6809
aa(lp6810
S'come'
p6811
aS'doom'
p6812
aa(lp6813
S'proved'
p6814
aS'loved'
p6815
aa(lp6816
S'all'
p6817
aS'call'
p6818
aa(lp6819
S'repay'
p6820
aS'day'
p6821
aa(lp6822
S'minds'
p6823
aS'winds'
p6824
aa(lp6825
S'right'
p6826
aS'sight'
p6827
aa(lp6828
S'down'
p6829
aS'frown'
p6830
aa(lp6831
S'accumulate'
p6832
aS'hate'
p6833
aa(lp6834
S'prove'
p6835
aS'love'
p6836
aa(lp6837
S'keen'
p6838
aS'unseen'
p6839
aa(lp6840
S'urge'
p6841
aS'purge'
p6842
aa(lp6843
S'sweetness'
p6844
aS'meetness'
p6845
aa(lp6846
S'feeding'
p6847
aS'needing'
p6848
aa(lp6849
S'anticipate'
p6850
aS'state'
p6851
aa(lp6852
S'assured'
p6853
aS'cured'
p6854
aa(lp6855
S'true'
p6856
aS'you'
p6857
aa(lp6858
S'tears'
p6859
aS'fears'
p6860
aa(lp6861
S'within'
p6862
aS'win'
p6863
aa(lp6864
S'committed'
p6865
aS'fitted'
p6866
aa(lp6867
S'never'
p6868
aS'fever'
p6869
aa(lp6870
S'true'
p6871
aS'anew'
p6872
aa(lp6873
S'better'
p6874
aS'greater'
p6875
aa(lp6876
S'content'
p6877
aS'spent'
p6878
aa(lp6879
S'now'
p6880
aS'bow'
p6881
aa(lp6882
S'feel'
p6883
aS'steel'
p6884
aa(lp6885
S'shaken'
p6886
aS'taken'
p6887
aa(lp6888
S'time'
p6889
aS'crime'
p6890
aa(lp6891
S'remembered'
p6892
aS'tendered'
p6893
aa(lp6894
S'hits'
p6895
aS'fits'
p6896
aa(lp6897
S'fee'
p6898
aS'me'
p6899
aa(lp6900
S'esteemed'
p6901
aS'deemed'
p6902
aa(lp6903
S'being'
p6904
aS'seeing'
p6905
aa(lp6906
S'eyes'
p6907
aS'spies'
p6908
aa(lp6909
S'blood'
p6910
aS'good'
p6911
aa(lp6912
S'level'
p6913
aS'bevel'
p6914
aa(lp6915
S'own'
p6916
aS'shown'
p6917
aa(lp6918
S'maintain'
p6919
aS'reign'
p6920
aa(lp6921
S'brain'
p6922
aS'remain'
p6923
aa(lp6924
S'memory'
p6925
aS'eternity'
p6926
aa(lp6927
S'heart'
p6928
aS'part'
p6929
aa(lp6930
S'subsist'
p6931
aS'missed'
p6932
aa(lp6933
S'hold'
p6934
aS'bold'
p6935
aa(lp6936
S'score'
p6937
aS'more'
p6938
aa(lp6939
S'thee'
p6940
aS'me'
p6941
aa(lp6942
S'change'
p6943
aS'strange'
p6944
aa(lp6945
S'might'
p6946
aS'sight'
p6947
aa(lp6948
S'admire'
p6949
aS'desire'
p6950
aa(lp6951
S'old'
p6952
aS'told'
p6953
aa(lp6954
S'defy'
p6955
aS'lie'
p6956
aa(lp6957
S'past'
p6958
aS'haste'
p6959
aa(lp6960
S'be'
p6961
aS'thee'
p6962
aa(lp6963
S'state'
p6964
aS'hate'
p6965
aa(lp6966
S'unfathered'
p6967
aS'gathered'
p6968
aa(lp6969
S'accident'
p6970
aS'discontent'
p6971
aa(lp6972
S'falls'
p6973
aS'calls'
p6974
aa(lp6975
S'heretic'
p6976
aS'politic'
p6977
aa(lp6978
S'hours'
p6979
aS'showers'
p6980
aa(lp6981
S'time'
p6982
aS'crime'
p6983
aa(lp6984
S'canopy'
p6985
aS'eternity'
p6986
aa(lp6987
S'honouring'
p6988
aS'ruining'
p6989
aa(lp6990
S'favour'
p6991
aS'savour'
p6992
aa(lp6993
S'rent'
p6994
aS'spent'
p6995
aa(lp6996
S'heart'
p6997
aS'art'
p6998
aa(lp6999
S'free'
p7000
aS'thee'
p7001
aa(lp7002
S'soul'
p7003
aS'control'
p7004
aa(lp7005
S'fair'
p7006
aS'heir'
p7007
aa(lp7008
S'name'
p7009
aS'shame'
p7010
aa(lp7011
S'power'
p7012
aS'bower'
p7013
aa(lp7014
S'face'
p7015
aS'disgrace'
p7016
aa(lp7017
S'black'
p7018
aS'lack'
p7019
aa(lp7020
S'seem'
p7021
aS'esteem'
p7022
aa(lp7023
S'woe'
p7024
aS'so'
p7025
aa(lp7026
S"play'st"
p7027
aS"sway'st"
p7028
aa(lp7029
S'sounds'
p7030
aS'confounds'
p7031
aa(lp7032
S'leap'
p7033
aS'reap'
p7034
aa(lp7035
S'hand'
p7036
aS'stand'
p7037
aa(lp7038
S'state'
p7039
aS'gait'
p7040
aa(lp7041
S'chips'
p7042
aS'lips'
p7043
aa(lp7044
S'this'
p7045
aS'kiss'
p7046
aa(lp7047
S'shame'
p7048
aS'blame'
p7049
aa(lp7050
S'lust'
p7051
aS'trust'
p7052
aa(lp7053
S'straight'
p7054
aS'bait'
p7055
aa(lp7056
S'had'
p7057
aS'mad'
p7058
aa(lp7059
S'so'
p7060
aS'woe'
p7061
aa(lp7062
S'extreme'
p7063
aS'dream'
p7064
aa(lp7065
S'well'
p7066
aS'hell'
p7067
aa(lp7068
S'sun'
p7069
aS'dun'
p7070
aa(lp7071
S'red'
p7072
aS'head'
p7073
aa(lp7074
S'white'
p7075
aS'delight'
p7076
aa(lp7077
S'cheeks'
p7078
aS'reeks'
p7079
aa(lp7080
S'know'
p7081
aS'go'
p7082
aa(lp7083
S'sound'
p7084
aS'ground'
p7085
aa(lp7086
S'rare'
p7087
aS'compare'
p7088
aa(lp7089
S'art'
p7090
aS'heart'
p7091
aa(lp7092
S'cruel'
p7093
aS'jewel'
p7094
aa(lp7095
S'behold'
p7096
aS'bold'
p7097
aa(lp7098
S'groan'
p7099
aS'alone'
p7100
aa(lp7101
S'swear'
p7102
aS'bear'
p7103
aa(lp7104
S'face'
p7105
aS'place'
p7106
aa(lp7107
S'deeds'
p7108
aS'proceeds'
p7109
aa(lp7110
S'me'
p7111
aS'be'
p7112
aa(lp7113
S'disdain'
p7114
aS'pain'
p7115
aa(lp7116
S'heaven'
p7117
aS'even'
p7118
aa(lp7119
S'east'
p7120
aS'west'
p7121
aa(lp7122
S'face'
p7123
aS'grace'
p7124
aa(lp7125
S'heart'
p7126
aS'part'
p7127
aa(lp7128
S'black'
p7129
aS'lack'
p7130
aa(lp7131
S'groan'
p7132
aS'alone'
p7133
aa(lp7134
S'me'
p7135
aS'be'
p7136
aa(lp7137
S'taken'
p7138
aS'forsaken'
p7139
aa(lp7140
S'engrossed'
p7141
aS'crossed'
p7142
aa(lp7143
S'ward'
p7144
aS'guard'
p7145
aa(lp7146
S'bail'
p7147
aS'gaol'
p7148
aa(lp7149
S'thee'
p7150
aS'me'
p7151
aa(lp7152
S'thine'
p7153
aS'mine'
p7154
aa(lp7155
S'will'
p7156
aS'still'
p7157
aa(lp7158
S'free'
p7159
aS'me'
p7160
aa(lp7161
S'kind'
p7162
aS'bind'
p7163
aa(lp7164
S'take'
p7165
aS'sake'
p7166
aa(lp7167
S'use'
p7168
aS'abuse'
p7169
aa(lp7170
S'me'
p7171
aS'free'
p7172
aa(lp7173
S'will'
p7174
aS'still'
p7175
aa(lp7176
S'over-plus'
p7177
aS'thus'
p7178
aa(lp7179
S'spacious'
p7180
aS'gracious'
p7181
aa(lp7182
S'thine'
p7183
aS'shine'
p7184
aa(lp7185
S'still'
p7186
aS'will'
p7187
aa(lp7188
S'store'
p7189
aS'more'
p7190
aa(lp7191
S'kill'
p7192
aS"'Will'"
p7193
aa(lp7194
S'near'
p7195
aS'there'
p7196
aa(lp7197
S"'Will'"
p7198
aS'fulfil'
p7199
aa(lp7200
S'love'
p7201
aS'prove'
p7202
aa(lp7203
S'one'
p7204
aS'none'
p7205
aa(lp7206
S'untold'
p7207
aS'hold'
p7208
aa(lp7209
S'be'
p7210
aS'thee'
p7211
aa(lp7212
S'still'
p7213
aS'Will'
p7214
aa(lp7215
S'eyes'
p7216
aS'lies'
p7217
aa(lp7218
S'see'
p7219
aS'be'
p7220
aa(lp7221
S'looks'
p7222
aS'hooks'
p7223
aa(lp7224
S'ride'
p7225
aS'tied'
p7226
aa(lp7227
S'plot'
p7228
aS'not'
p7229
aa(lp7230
S'place'
p7231
aS'face'
p7232
aa(lp7233
S'erred'
p7234
aS'transferred'
p7235
aa(lp7236
S'truth'
p7237
aS'youth'
p7238
aa(lp7239
S'lies'
p7240
aS'subtleties'
p7241
aa(lp7242
S'young'
p7243
aS'tongue'
p7244
aa(lp7245
S'best'
p7246
aS'suppressed'
p7247
aa(lp7248
S'unjust'
p7249
aS'trust'
p7250
aa(lp7251
S'old'
p7252
aS'told'
p7253
aa(lp7254
S'me'
p7255
aS'be'
p7256
aa(lp7257
S'wrong'
p7258
aS'tongue'
p7259
aa(lp7260
S'heart'
p7261
aS'art'
p7262
aa(lp7263
S'sight'
p7264
aS'might'
p7265
aa(lp7266
S'aside'
p7267
aS'bide'
p7268
aa(lp7269
S'knows'
p7270
aS'foes'
p7271
aa(lp7272
S'enemies'
p7273
aS'injuries'
p7274
aa(lp7275
S'slain'
p7276
aS'pain'
p7277
aa(lp7278
S'press'
p7279
aS'express'
p7280
aa(lp7281
S'disdain'
p7282
aS'pain'
p7283
aa(lp7284
S'were'
p7285
aS'near'
p7286
aa(lp7287
S'so'
p7288
aS'know'
p7289
aa(lp7290
S'mad'
p7291
aS'bad'
p7292
aa(lp7293
S'thee'
p7294
aS'be'
p7295
aa(lp7296
S'belied'
p7297
aS'wide'
p7298
aa(lp7299
S'eyes'
p7300
aS'despise'
p7301
aa(lp7302
S'note'
p7303
aS'dote'
p7304
aa(lp7305
S'delighted'
p7306
aS'invited'
p7307
aa(lp7308
S'prone'
p7309
aS'alone'
p7310
aa(lp7311
S'can'
p7312
aS'man'
p7313
aa(lp7314
S'thee'
p7315
aS'be'
p7316
aa(lp7317
S'gain'
p7318
aS'pain'
p7319
aa(lp7320
S'hate'
p7321
aS'state'
p7322
aa(lp7323
S'loving'
p7324
aS'reproving'
p7325
aa(lp7326
S'thine'
p7327
aS'mine'
p7328
aa(lp7329
S'ornaments'
p7330
aS'rents'
p7331
aa(lp7332
S'those'
p7333
aS'grows'
p7334
aa(lp7335
S'thee'
p7336
aS'be'
p7337
aa(lp7338
S'hide'
p7339
aS'denied'
p7340
aa(lp7341
S'catch'
p7342
aS'dispatch'
p7343
aa(lp7344
S'away'
p7345
aS'stay'
p7346
aa(lp7347
S'chase'
p7348
aS'face'
p7349
aa(lp7350
S'bent'
p7351
aS'discontent'
p7352
aa(lp7353
S'thee'
p7354
aS'me'
p7355
aa(lp7356
S'behind'
p7357
aS'kind'
p7358
aa(lp7359
S'Will'
p7360
aS'still'
p7361
aa(lp7362
S'despair'
p7363
aS'fair'
p7364
aa(lp7365
S'still'
p7366
aS'ill'
p7367
aa(lp7368
S'evil'
p7369
aS'devil'
p7370
aa(lp7371
S'side'
p7372
aS'pride'
p7373
aa(lp7374
S'fiend'
p7375
aS'friend'
p7376
aa(lp7377
S'tell'
p7378
aS'hell'
p7379
aa(lp7380
S'doubt'
p7381
aS'out'
p7382
aa(lp7383
S'make'
p7384
aS'sake'
p7385
aa(lp7386
S"hate'"
p7387
aS'state'
p7388
aa(lp7389
S'come'
p7390
aS'doom'
p7391
aa(lp7392
S'sweet'
p7393
aS'greet'
p7394
aa(lp7395
S'end'
p7396
aS'fiend'
p7397
aa(lp7398
S'day'
p7399
aS'away'
p7400
aa(lp7401
S'threw'
p7402
aS"you'"
p7403
aa(lp7404
S'earth'
p7405
aS'dearth'
p7406
aa(lp7407
S'array'
p7408
aS'gay'
p7409
aa(lp7410
S'lease'
p7411
aS'excess'
p7412
aa(lp7413
S'spend'
p7414
aS'end'
p7415
aa(lp7416
S'loss'
p7417
aS'dross'
p7418
aa(lp7419
S'store'
p7420
aS'more'
p7421
aa(lp7422
S'men'
p7423
aS'then'
p7424
aa(lp7425
S'still'
p7426
aS'ill'
p7427
aa(lp7428
S'disease'
p7429
aS'please'
p7430
aa(lp7431
S'love'
p7432
aS'approve'
p7433
aa(lp7434
S'kept'
p7435
aS'except'
p7436
aa(lp7437
S'care'
p7438
aS'are'
p7439
aa(lp7440
S'unrest'
p7441
aS'expressed'
p7442
aa(lp7443
S'bright'
p7444
aS'night'
p7445
aa(lp7446
S'head'
p7447
aS'fled'
p7448
aa(lp7449
S'sight'
p7450
aS'aright'
p7451
aa(lp7452
S'dote'
p7453
aS'denote'
p7454
aa(lp7455
S'so'
p7456
aS'no'
p7457
aa(lp7458
S'true'
p7459
aS'view'
p7460
aa(lp7461
S'tears'
p7462
aS'clears'
p7463
aa(lp7464
S'blind'
p7465
aS'find'
p7466
aa(lp7467
S'not'
p7468
aS'forgot'
p7469
aa(lp7470
S'partake'
p7471
aS'sake'
p7472
aa(lp7473
S'friend'
p7474
aS'spend'
p7475
aa(lp7476
S'upon'
p7477
aS'moan'
p7478
aa(lp7479
S'respect'
p7480
aS'defect'
p7481
aa(lp7482
S'despise'
p7483
aS'eyes'
p7484
aa(lp7485
S'mind'
p7486
aS'blind'
p7487
aa(lp7488
S'might'
p7489
aS'sight'
p7490
aa(lp7491
S'sway'
p7492
aS'day'
p7493
aa(lp7494
S'ill'
p7495
aS'skill'
p7496
aa(lp7497
S'deeds'
p7498
aS'exceeds'
p7499
aa(lp7500
S'more'
p7501
aS'abhor'
p7502
aa(lp7503
S'hate'
p7504
aS'state'
p7505
aa(lp7506
S'me'
p7507
aS'thee'
p7508
aa(lp7509
S'is'
p7510
aS'amiss'
p7511
aa(lp7512
S'love'
p7513
aS'prove'
p7514
aa(lp7515
S'betray'
p7516
aS'may'
p7517
aa(lp7518
S'treason'
p7519
aS'reason'
p7520
aa(lp7521
S'thee'
p7522
aS'be'
p7523
aa(lp7524
S'pride'
p7525
aS'side'
p7526
aa(lp7527
S'call'
p7528
aS'fall'
p7529
aa(lp7530
S'forsworn'
p7531
aS'torn'
p7532
aa(lp7533
S'swearing'
p7534
aS'bearing'
p7535
aa(lp7536
S'thee'
p7537
aS'thee'
p7538
aa(lp7539
S'most'
p7540
aS'lost'
p7541
aa(lp7542
S'kindness'
p7543
aS'blindness'
p7544
aa(lp7545
S'constancy'
p7546
aS'see'
p7547
aa(lp7548
g5900
aS'be'
p7549
aa(lp7550
S'asleep'
p7551
aS'steep'
p7552
aa(lp7553
S'found'
p7554
aS'ground'
p7555
aa(lp7556
S'Love'
p7557
aS'prove'
p7558
aa(lp7559
S'endure'
p7560
aS'cure'
p7561
aa(lp7562
S'new-fired'
p7563
aS'desired'
p7564
aa(lp7565
S'breast'
p7566
aS'guest'
p7567
aa(lp7568
S'lies'
p7569
aS'eyes'
p7570
aa(lp7571
S'asleep'
p7572
aS'keep'
p7573
aa(lp7574
S'brand'
p7575
aS'hand'
p7576
aa(lp7577
S'fire'
p7578
aS'desire'
p7579
aa(lp7580
S'warmed'
p7581
aS'disarmed'
p7582
aa(lp7583
S'by'
p7584
aS'remedy'
p7585
aa(lp7586
S'perpetual'
p7587
aS'thrall'
p7588
aa(lp7589
S'prove'
p7590
aS'love'
p7591
aa(lp7592
S'hands'
p7593
aS'bands'
p7594
aa(lp7595
S'might'
p7596
aS'sight'
p7597
aa(lp7598
S'light'
p7599
aS'sprite'
p7600
aa(lp7601
S'look'
p7602
aS'book'
p7603
aa(lp7604
S'brook'
p7605
aS'look'
p7606
aa(lp7607
S'is'
p7608
aS'bliss'
p7609
aa(lp7610
S'alone'
p7611
aS'none'
p7612
aa(lp7613
S'bred'
p7614
aS'fed'
p7615
aa(lp7616
S'heart'
p7617
aS'art'
p7618
aa(lp7619
S'part'
p7620
aS'smart'
p7621
aa(lp7622
S'brood'
p7623
aS'food'
p7624
aa(lp7625
S'proud'
p7626
aS'mood'
p7627
aa(lp7628
S'feet'
p7629
aS'entreat'
p7630
aa(lp7631
S'cherish'
p7632
aS'perish'
p7633
aa(lp7634
S'admire'
p7635
aS'fire'
p7636
aa(lp7637
S'praised'
p7638
aS'raised'
p7639
aa(lp7640
S'dazed'
p7641
aS'amazed'
p7642
aa(lp7643
S'view'
p7644
aS'hew'
p7645
aa(lp7646
S'due'
p7647
aS'true'
p7648
aa(lp7649
S'astonishment'
p7650
aS'wonderment'
p7651
aa(lp7652
S'write'
p7653
aS'endite'
p7654
aa(lp7655
S'gate'
p7656
aS'date'
p7657
aa(lp7658
S'delight'
p7659
aS'sprite'
p7660
aa(lp7661
S'night'
p7662
aS'dight'
p7663
aa(lp7664
S'bower'
p7665
aS'power'
p7666
aa(lp7667
S'hour'
p7668
aS'flower'
p7669
aa(lp7670
S'receive'
p7671
aS'weave'
p7672
aa(lp7673
S'rain'
p7674
aS'entertain'
p7675
aa(lp7676
S'desire'
p7677
aS'admire'
p7678
aa(lp7679
S'pride'
p7680
aS'envied'
p7681
aa(lp7682
S'implied'
p7683
aS'wide'
p7684
aa(lp7685
S'dishonor'
p7686
aS'her'
p7687
aa(lp7688
S'honor'
p7689
aS'banner'
p7690
aa(lp7691
S'eyes'
p7692
aS'enemies'
p7693
aa(lp7694
S'tried'
p7695
aS'pride'
p7696
aa(lp7697
S'mind'
p7698
aS'kind'
p7699
aa(lp7700
S'pride'
p7701
aS'abide'
p7702
aa(lp7703
S'dried'
p7704
aS'divide'
p7705
aa(lp7706
S'fire'
p7707
aS'aspire'
p7708
aa(lp7709
S'desire'
p7710
aS'entire'
p7711
aa(lp7712
S'ever'
p7713
aS'sever'
p7714
aa(lp7715
S'pain'
p7716
aS'remain'
p7717
aa(lp7718
S'heart'
p7719
aS'dart'
p7720
aa(lp7721
S'you'
p7722
aS'view'
p7723
aa(lp7724
S'hew'
p7725
aS'askew'
p7726
aa(lp7727
S'inspired'
p7728
aS'fired'
p7729
aa(lp7730
S'desired'
p7731
aS'admired'
p7732
aa(lp7733
S'best'
p7734
aS'breast'
p7735
aa(lp7736
S'light'
p7737
aS'might'
p7738
aa(lp7739
S'fire'
p7740
aS'conspire'
p7741
aa(lp7742
S'near'
p7743
aS'dear'
p7744
aa(lp7745
S'guest'
p7746
aS'rest'
p7747
aa(lp7748
S'wound'
p7749
aS'bound'
p7750
aa(lp7751
S'within'
p7752
aS'begin'
p7753
aa(lp7754
S'speak'
p7755
aS'weak'
p7756
aa(lp7757
S'never'
p7758
aS'ever'
p7759
aa(lp7760
S'compare'
p7761
aS'dare'
p7762
aa(lp7763
S'sprite'
p7764
aS'light'
p7765
aa(lp7766
S'night'
p7767
aS'sight'
p7768
aa(lp7769
S'never'
p7770
aS'ever'
p7771
aa(lp7772
S'persever'
p7773
aS'sever'
p7774
aa(lp7775
S'tender'
p7776
aS'her'
p7777
aa(lp7778
S'be'
p7779
aS'see'
p7780
aa(lp7781
S'this'
p7782
aS'bliss'
p7783
aa(lp7784
S'be'
p7785
aS'me'
p7786
aa(lp7787
S'see'
p7788
aS'thee'
p7789
aa(lp7790
S'make'
p7791
aS'take'
p7792
aa(lp7793
S'shake'
p7794
aS'make'
p7795
aa(lp7796
S'comptroll'
p7797
aS'enroll'
p7798
aa(lp7799
S'sort'
p7800
aS'sport'
p7801
aa(lp7802
S'peace'
p7803
aS'address'
p7804
aa(lp7805
S'truth'
p7806
aS"renew'th"
p7807
aa(lp7808
S'ruth'
p7809
aS'persueth'
p7810
aa(lp7811
S'toil'
p7812
aS'spoil'
p7813
aa(lp7814
S'assoyle'
p7815
aS'turmoil'
p7816
aa(lp7817
S'pacify'
p7818
aS'die'
p7819
aa(lp7820
S'peace'
p7821
aS'surcease'
p7822
aa(lp7823
S'eyes'
p7824
aS'enemies'
p7825
aa(lp7826
S'entertain'
p7827
aS'train'
p7828
aa(lp7829
S'remain'
p7830
aS'eyen'
p7831
aa(lp7832
S'long'
p7833
aS'throng'
p7834
aa(lp7835
S'strong'
p7836
aS'wrong'
p7837
aa(lp7838
S'hands'
p7839
aS'bands'
p7840
aa(lp7841
S'complain'
p7842
aS'gain'
p7843
aa(lp7844
S'graceth'
p7845
aS'embaseth'
p7846
aa(lp7847
S'sky'
p7848
aS'descry'
p7849
aa(lp7850
S'majesty'
p7851
aS'mortality'
p7852
aa(lp7853
S'born'
p7854
aS'return'
p7855
aa(lp7856
S'scorn'
p7857
aS'forlorn'
p7858
aa(lp7859
S'climb'
p7860
aS'slime'
p7861
aa(lp7862
S'me'
p7863
aS'be'
p7864
aa(lp7865
S'dismayed'
p7866
aS'afraid'
p7867
aa(lp7868
S'quite'
p7869
aS'light'
p7870
aa(lp7871
S'might'
p7872
aS'fight'
p7873
aa(lp7874
S'belay'
p7875
aS'assay'
p7876
aa(lp7877
S'may'
p7878
aS'dismay'
p7879
aa(lp7880
S'heart'
p7881
aS'convert'
p7882
aa(lp7883
S'her'
p7884
aS'her'
p7885
aa(lp7886
S'toil'
p7887
aS'spoil'
p7888
aa(lp7889
S'gain'
p7890
aS'vain'
p7891
aa(lp7892
S'contain'
p7893
aS'plain'
p7894
aa(lp7895
S'found'
p7896
aS'sound'
p7897
aa(lp7898
S'round'
p7899
aS'ground'
p7900
aa(lp7901
S'weene'
p7902
aS'sheen'
p7903
aa(lp7904
S'behold'
p7905
aS'manifold'
p7906
aa(lp7907
S'gaze'
p7908
aS'amaze'
p7909
aa(lp7910
S'light'
p7911
aS'delight'
p7912
aa(lp7913
S'sight'
p7914
aS'bright'
p7915
aa(lp7916
S'fly'
p7917
aS'by'
p7918
aa(lp7919
S'spy'
p7920
aS'eye'
p7921
aa(lp7922
S'heart'
p7923
aS'dart'
p7924
aa(lp7925
S'slain'
p7926
aS'pain'
p7927
aa(lp7928
S'face'
p7929
aS'embase'
p7930
aa(lp7931
S'skill'
p7932
aS'fill'
p7933
aa(lp7934
S'will'
p7935
aS'spill'
p7936
aa(lp7937
S'guide'
p7938
aS'beside'
p7939
aa(lp7940
S'glide'
p7941
aS'pride'
p7942
aa(lp7943
S'heart'
p7944
aS'art'
p7945
aa(lp7946
S'need'
p7947
aS'indeed'
p7948
aa(lp7949
S'round'
p7950
aS'redound'
p7951
aa(lp7952
S'tear'
p7953
aS'wear'
p7954
aa(lp7955
S'tear'
p7956
aS'hear'
p7957
aa(lp7958
S'heart'
p7959
aS'smart'
p7960
aa(lp7961
S'part'
p7962
aS'art'
p7963
aa(lp7964
S'water'
p7965
aS'laughter'
p7966
aa(lp7967
S'vain'
p7968
aS'remain'
p7969
aa(lp7970
S'spring'
p7971
aS'king'
p7972
aa(lp7973
S'sounded'
p7974
aS'crowned'
p7975
aa(lp7976
S'resounded'
p7977
aS'rebounded'
p7978
aa(lp7979
S'praise'
p7980
aS'lays'
p7981
aa(lp7982
S'raise'
p7983
aS'disobeys'
p7984
aa(lp7985
S'ought'
p7986
aS'nought'
p7987
aa(lp7988
S'thee'
p7989
aS'be'
p7990
aa(lp7991
S'grace'
p7992
aS'place'
p7993
aa(lp7994
S'pour'
p7995
aS'floor'
p7996
aa(lp7997
S'power'
p7998
aS'devour'
p7999
aa(lp8000
S'field'
p8001
aS'yield'
p8002
aa(lp8003
S'wild'
p8004
aS'defiled'
p8005
aa(lp8006
S'lioness'
p8007
aS'cruelness'
p8008
aa(lp8009
S'say'
p8010
aS'prey'
p8011
aa(lp8012
S'art'
p8013
aS'part'
p8014
aa(lp8015
S'face'
p8016
aS'grace'
p8017
aa(lp8018
S'displace'
p8019
aS'chase'
p8020
aa(lp8021
S'allure'
p8022
aS'impure'
p8023
aa(lp8024
S'inure'
p8025
aS'recure'
p8026
aa(lp8027
S'dismay'
p8028
aS'away'
p8029
aa(lp8030
S'looks'
p8031
aS'books'
p8032
aa(lp8033
S'pray'
p8034
aS'day'
p8035
aa(lp8036
S'inclined'
p8037
aS'find'
p8038
aa(lp8039
S'mind'
p8040
aS'attend'
p8041
aa(lp8042
S'is'
p8043
aS'amiss'
p8044
aa(lp8045
S'bliss'
p8046
aS'sacrifice'
p8047
aa(lp8048
S'ire'
p8049
aS'desire'
p8050
aa(lp8051
S'accept'
p8052
aS'kept'
p8053
aa(lp8054
S'sake'
p8055
aS'make'
p8056
aa(lp8057
S'deceive'
p8058
aS'unreave'
p8059
aa(lp8060
S'conceive'
p8061
aS'weave'
p8062
aa(lp8063
S'shun'
p8064
aS'undone'
p8065
aa(lp8066
S'begun'
p8067
aS'spun'
p8068
aa(lp8069
S'end'
p8070
aS'rend'
p8071
aa(lp8072
S'find'
p8073
aS'wind'
p8074
aa(lp8075
S'wonderment'
p8076
aS'complement'
p8077
aa(lp8078
S'part'
p8079
aS'art'
p8080
aa(lp8081
S'smart'
p8082
aS'dart'
p8083
aa(lp8084
S'me'
p8085
aS'see'
p8086
aa(lp8087
S'agree'
p8088
aS'be'
p8089
aa(lp8090
S'send'
p8091
aS'offend'
p8092
aa(lp8093
S'intreat'
p8094
aS'beat'
p8095
aa(lp8096
S'endure'
p8097
aS'unsure'
p8098
aa(lp8099
S'mystery'
p8100
aS'doubtfully'
p8101
aa(lp8102
S'die'
p8103
aS'cruelty'
p8104
aa(lp8105
S'pride'
p8106
aS'tried'
p8107
aa(lp8108
S'hide'
p8109
aS'abide'
p8110
aa(lp8111
S'grace'
p8112
aS'embrace'
p8113
aa(lp8114
S'be'
p8115
aS'me'
p8116
aa(lp8117
S'briar'
p8118
aS'near'
p8119
aa(lp8120
S'bough'
p8121
aS'rough'
p8122
aa(lp8123
S'tough'
p8124
aS'enough'
p8125
aa(lp8126
S'pill'
p8127
aS'ill'
p8128
aa(lp8129
S'still'
p8130
aS'will'
p8131
aa(lp8132
S'more'
p8133
aS'store'
p8134
aa(lp8135
S'pain'
p8136
aS'gain'
p8137
aa(lp8138
S'proud'
p8139
aS'shroud'
p8140
aa(lp8141
S'unclean'
p8142
aS'weene'
p8143
aa(lp8144
S'beseen'
p8145
aS'been'
p8146
aa(lp8147
S'attire'
p8148
aS'admire'
p8149
aa(lp8150
S'inquire'
p8151
aS'expire'
p8152
aa(lp8153
S'remain'
p8154
aS'pain'
p8155
aa(lp8156
S'perish'
p8157
aS'cherish'
p8158
aa(lp8159
S'wear'
p8160
aS'bear'
p8161
aa(lp8162
S'mind'
p8163
aS'inclined'
p8164
aa(lp8165
S'find'
p8166
aS'mind'
p8167
aa(lp8168
S'inspire'
p8169
aS'attire'
p8170
aa(lp8171
S'fire'
p8172
aS'ire'
p8173
aa(lp8174
S'fly'
p8175
aS'tree'
p8176
aa(lp8177
S'chace'
p8178
aS'embrace'
p8179
aa(lp8180
S'deprave'
p8181
aS'gave'
p8182
aa(lp8183
S'scorn'
p8184
aS'forlorn'
p8185
aa(lp8186
S'borne'
p8187
aS'adorn'
p8188
aa(lp8189
S'meeds'
p8190
aS'deeds'
p8191
aa(lp8192
S'needs'
p8193
aS'exceeds'
p8194
aa(lp8195
S'thrall'
p8196
aS'all'
p8197
aa(lp8198
S'bays'
p8199
aS'praise'
p8200
aa(lp8201
S'fire'
p8202
aS'desire'
p8203
aa(lp8204
S'great'
p8205
aS'intreat'
p8206
aa(lp8207
S'heat'
p8208
aS'sweat'
p8209
aa(lp8210
S'cold'
p8211
aS'manifold'
p8212
aa(lp8213
S'told'
p8214
aS'cold'
p8215
aa(lp8216
S'ice'
p8217
aS'device'
p8218
aa(lp8219
S'mind'
p8220
aS'kind'
p8221
aa(lp8222
S'heart'
p8223
aS'part'
p8224
aa(lp8225
S'grace'
p8226
aS'deface'
p8227
aa(lp8228
S'race'
p8229
aS'chase'
p8230
aa(lp8231
S'hath'
p8232
aS'wrath'
p8233
aa(lp8234
S'scath'
p8235
aS'bath'
p8236
aa(lp8237
S'hue'
p8238
aS'embrew'
p8239
aa(lp8240
S'accord'
p8241
aS'abhored'
p8242
aa(lp8243
S'heat'
p8244
aS'beat'
p8245
aa(lp8246
S'mollify'
p8247
aS'apply'
p8248
aa(lp8249
S'fry'
p8250
ag5900
aa(lp8251
S'whit'
p8252
aS'wit'
p8253
aa(lp8254
S'fit'
p8255
aS'smit'
p8256
aa(lp8257
S'pride'
p8258
aS'applied'
p8259
aa(lp8260
S'burn'
p8261
aS'turn'
p8262
aa(lp8263
S'deny'
p8264
aS'Fa&edry'
p8265
aa(lp8266
S'dread'
p8267
aS'dead'
p8268
aa(lp8269
S'aread'
p8270
aS'head'
p8271
aa(lp8272
S'it'
p8273
aS'writ'
p8274
aa(lp8275
S'wit'
p8276
aS'fit'
p8277
aa(lp8278
S'toil'
p8279
aS'spoil'
p8280
aa(lp8281
S'rest'
p8282
aS'breast'
p8283
aa(lp8284
S'wide'
p8285
aS'guide'
p8286
aa(lp8287
S'way'
p8288
aS'astray'
p8289
aa(lp8290
S'ray'
p8291
aS'dismay'
p8292
aa(lp8293
S'overcast'
p8294
aS'plast'
p8295
aa(lp8296
S'past'
p8297
aS'last'
p8298
aa(lp8299
S'life'
p8300
aS'grief'
p8301
aa(lp8302
S'comfortless'
p8303
aS'pensiveness'
p8304
aa(lp8305
S'covetize'
p8306
aS'suffice'
p8307
aa(lp8308
S'pain'
p8309
aS'complain'
p8310
aa(lp8311
S'sustain'
p8312
aS'vain'
p8313
aa(lp8314
S'more'
p8315
aS'poor'
p8316
aa(lp8317
S'store'
p8318
aS'before'
p8319
aa(lp8320
S'brook'
p8321
aS'look'
p8322
aa(lp8323
S'me'
p8324
aS'she'
p8325
aa(lp8326
S'end'
p8327
aS'spend'
p8328
aa(lp8329
S'cease'
p8330
aS'release'
p8331
aa(lp8332
S'peace'
p8333
aS'increase'
p8334
aa(lp8335
S'eyes'
p8336
aS'miseries'
p8337
aa(lp8338
S'extermities'
p8339
aS'dispise'
p8340
aa(lp8341
S'gained'
p8342
aS'maintained'
p8343
aa(lp8344
S'moan'
p8345
aS'one'
p8346
aa(lp8347
S'tresses'
p8348
aS'dresses'
p8349
aa(lp8350
S'gold'
p8351
aS'told'
p8352
aa(lp8353
S'bold'
p8354
aS'enfold'
p8355
aa(lp8356
S'snare'
p8357
aS'aware'
p8358
aa(lp8359
S'stare'
p8360
aS'are'
p8361
aa(lp8362
S'net'
p8363
aS'get'
p8364
aa(lp8365
S'free'
p8366
aS'be'
p8367
aa(lp8368
S'wrack'
p8369
aS'make'
p8370
aa(lp8371
S'seas'
p8372
aS'ease'
p8373
aa(lp8374
S'please'
p8375
aS'appease'
p8376
aa(lp8377
S'skill'
p8378
aS'will'
p8379
aa(lp8380
S'still'
p8381
aS'spill'
p8382
aa(lp8383
S'decays'
p8384
aS'praise'
p8385
aa(lp8386
S'good'
p8387
aS'blood'
p8388
aa(lp8389
S'love'
p8390
aS'Jove'
p8391
aa(lp8392
S'art'
p8393
aS'dart'
p8394
aa(lp8395
S'art'
p8396
aS'part'
p8397
aa(lp8398
S'sadness'
p8399
aS'gladness'
p8400
aa(lp8401
S'madness'
p8402
aS'sadness'
p8403
aa(lp8404
S'trance'
p8405
aS'glance'
p8406
aa(lp8407
S'meat'
p8408
aS'eat'
p8409
aa(lp8410
S'cheer'
p8411
aS'appear'
p8412
aa(lp8413
S'it'
p8414
aS'sit'
p8415
aa(lp8416
S'wit'
p8417
aS'flit'
p8418
aa(lp8419
S'day'
p8420
aS'ray'
p8421
aa(lp8422
S'spray'
p8423
aS'dismay'
p8424
aa(lp8425
S'fled'
p8426
aS'head'
p8427
aa(lp8428
S'cheered'
p8429
aS'cleared'
p8430
aa(lp8431
S'will'
p8432
aS'skill'
p8433
aa(lp8434
S'foe'
p8435
aS'forgo'
p8436
aa(lp8437
S'so'
p8438
aS'woe'
p8439
aa(lp8440
S'most'
p8441
aS'lost'
p8442
aa(lp8443
S'boast'
p8444
aS'tossed'
p8445
aa(lp8446
S'beguile'
p8447
aS'spoil'
p8448
aa(lp8449
S'named'
p8450
aS'shamed'
p8451
aa(lp8452
S'tormenteth'
p8453
aS'augmenteth'
p8454
aa(lp8455
S'pain'
p8456
aS'bane'
p8457
aa(lp8458
S'vain'
p8459
aS'remain'
p8460
aa(lp8461
S'smart'
p8462
aS'heart'
p8463
aa(lp8464
S'start'
p8465
aS'pervert'
p8466
aa(lp8467
S'chain'
p8468
aS'restrain'
p8469
aa(lp8470
S'cruelty'
p8471
aS'die'
p8472
aa(lp8473
S'speak'
p8474
aS'break'
p8475
aa(lp8476
S'shall'
p8477
aS'gall'
p8478
aa(lp8479
S'thrall'
p8480
aS'all'
p8481
aa(lp8482
S'tie'
p8483
aS'die'
p8484
aa(lp8485
S'secretly'
p8486
aS'humility'
p8487
aa(lp8488
S'plead'
p8489
aS'read'
p8490
aa(lp8491
S'spell'
p8492
aS'well'
p8493
aa(lp8494
S'Greece'
p8495
aS'fleece'
p8496
aa(lp8497
S'war'
p8498
aS'bar'
p8499
aa(lp8500
S'war'
p8501
aS'are'
p8502
aa(lp8503
S'make'
p8504
aS'aslake'
p8505
aa(lp8506
S'take'
p8507
aS'awake'
p8508
aa(lp8509
S'despight'
p8510
aS'fight'
p8511
aa(lp8512
S'peace'
p8513
aS'increase'
p8514
aa(lp8515
S'clean'
p8516
aS'mean'
p8517
aa(lp8518
S'view'
p8519
aS'true'
p8520
aa(lp8521
S'shew'
p8522
aS'hue'
p8523
aa(lp8524
S'eye'
p8525
aS'immortally'
p8526
aa(lp8527
S'cruelty'
p8528
aS'visnomy'
p8529
aa(lp8530
S'were'
p8531
aS'appear'
p8532
aa(lp8533
S'see'
p8534
aS'be'
p8535
aa(lp8536
S'spent'
p8537
aS'sent'
p8538
aa(lp8539
S'way'
p8540
aS'stay'
p8541
aa(lp8542
S'obey'
p8543
aS'sway'
p8544
aa(lp8545
S'form'
p8546
aS'be'
p8547
aa(lp8548
S'see'
p8549
aS'she'
p8550
aa(lp8551
S'back'
p8552
aS'wrack'
p8553
aa(lp8554
S'sustain'
p8555
aS'rain'
p8556
aa(lp8557
S'looks'
p8558
aS'hooks'
p8559
aa(lp8560
S'tried'
p8561
aS'hide'
p8562
aa(lp8563
S'guide'
p8564
aS'pride'
p8565
aa(lp8566
S'decay'
p8567
aS'pray'
p8568
aa(lp8569
S'slay'
p8570
aS'play'
p8571
aa(lp8572
S'smile'
p8573
aS'beguile'
p8574
aa(lp8575
S'bane'
p8576
aS'pain'
p8577
aa(lp8578
S'hand'
p8579
aS'understand'
p8580
aa(lp8581
S'ire'
p8582
aS'fire'
p8583
aa(lp8584
S'hire'
p8585
aS'conspire'
p8586
aa(lp8587
S'ordained'
p8588
aS'pained'
p8589
aa(lp8590
S'contrained'
p8591
aS'complained'
p8592
aa(lp8593
S'heart'
p8594
aS'smart'
p8595
aa(lp8596
S'will'
p8597
aS'ill'
p8598
aa(lp8599
S'cruel'
p8600
aS'jewel'
p8601
aa(lp8602
S'kill'
p8603
aS'spill'
p8604
aa(lp8605
S'will'
p8606
aS'ill'
p8607
aa(lp8608
S'eyes'
p8609
aS'enemies'
p8610
aa(lp8611
S'cruelties'
p8612
aS'lies'
p8613
aa(lp8614
S'do'
p8615
aS'to'
p8616
aa(lp8617
S'be'
p8618
aS'me'
p8619
aa(lp8620
S'malady'
p8621
aS'apply'
p8622
aa(lp8623
S'grief'
p8624
aS'relief'
p8625
aa(lp8626
S'priefe'
p8627
aS'chief'
p8628
aa(lp8629
S'disease'
p8630
aS'please'
p8631
aa(lp8632
S'appease'
p8633
aS'ease'
p8634
aa(lp8635
S'heart'
p8636
aS'art'
p8637
aa(lp8638
S'reveal'
p8639
aS'heal'
p8640
aa(lp8641
S'images'
p8642
aS'ages'
p8643
aa(lp8644
S'made'
p8645
aS'fade'
p8646
aa(lp8647
S'trade'
p8648
aS'assayed'
p8649
aa(lp8650
S'commend'
p8651
aS'end'
p8652
aa(lp8653
S'attend'
p8654
aS'bend'
p8655
aa(lp8656
S'allure'
p8657
aS'endure'
p8658
aa(lp8659
S'her'
p8660
aS'greater'
p8661
aa(lp8662
S'depart'
p8663
aS'heart'
p8664
aa(lp8665
S'field'
p8666
aS'shield'
p8667
aa(lp8668
S'yield'
p8669
aS'exiled'
p8670
aa(lp8671
S'pain'
p8672
aS'remain'
p8673
aa(lp8674
S'vain'
p8675
aS'disdain'
p8676
aa(lp8677
S'breed'
p8678
aS'feed'
p8679
aa(lp8680
S'make'
p8681
aS'take'
p8682
aa(lp8683
S'hide'
p8684
aS'hide'
p8685
aa(lp8686
S'fray'
p8687
aS'prey'
p8688
aa(lp8689
S'play'
p8690
aS'decay'
p8691
aa(lp8692
S'hue'
p8693
aS'shew'
p8694
aa(lp8695
S'view'
p8696
aS'enbrew'
p8697
aa(lp8698
S'ornament'
p8699
aS'instrument'
p8700
aa(lp8701
S'agree'
p8702
aS'see'
p8703
aa(lp8704
S'stay'
p8705
aS'play'
p8706
aa(lp8707
S'sits'
p8708
aS'wits'
p8709
aa(lp8710
S'fits'
p8711
aS'flits'
p8712
aa(lp8713
S'comedy'
p8714
aS'tragedy'
p8715
aa(lp8716
S'eye'
p8717
aS'cry'
p8718
aa(lp8719
S'smart'
p8720
aS'heart'
p8721
aa(lp8722
S'moan'
p8723
aS'stone'
p8724
aa(lp8725
S'behold'
p8726
aS'mould'
p8727
aa(lp8728
S'compare'
p8729
aS'fair'
p8730
aa(lp8731
S'are'
p8732
aS'rare'
p8733
aa(lp8734
S'fire'
p8735
aS'desire'
p8736
aa(lp8737
S'inquire'
p8738
aS'aspire'
p8739
aa(lp8740
S'sky'
p8741
aS'high'
p8742
aa(lp8743
S'best'
p8744
aS'rest'
p8745
aa(lp8746
S'unkind'
p8747
aS'find'
p8748
aa(lp8749
S'greediness'
p8750
aS'oppress'
p8751
aa(lp8752
S'pityless'
p8753
aS'comfortless'
p8754
aa(lp8755
S'prostrate'
p8756
aS'ruinate'
p8757
aa(lp8758
S'obstinate'
p8759
aS'desolate'
p8760
aa(lp8761
S'floods'
p8762
aS'goods'
p8763
aa(lp8764
g5900
aS'destroy'
p8765
aa(lp8766
S'you'
p8767
aS'sue'
p8768
aa(lp8769
S'were'
p8770
aS'bear'
p8771
aa(lp8772
S'appear'
p8773
aS'everywhere'
p8774
aa(lp8775
S'jot'
p8776
aS'shot'
p8777
aa(lp8778
S'not'
p8779
aS'got'
p8780
aa(lp8781
S'stoures'
p8782
aS'yours'
p8783
aa(lp8784
S'grace'
p8785
aS'space'
p8786
aa(lp8787
S'herself'
p8788
aS'aid'
p8789
aa(lp8790
S'reposeth'
p8791
aS'supposeth'
p8792
aa(lp8793
S'afraid'
p8794
aS'air'
p8795
aa(lp8796
S'unstayed'
p8797
aS'preyed'
p8798
aa(lp8799
S'repair'
p8800
aS'assurance'
p8801
aa(lp8802
S'fair'
p8803
aS'stair'
p8804
aa(lp8805
S'endurence'
p8806
aS'far'
p8807
aa(lp8808
S'are'
p8809
aS'heart'
p8810
aa(lp8811
S'assured'
p8812
aS'allured'
p8813
aa(lp8814
S'start'
p8815
aS'aright'
p8816
aa(lp8817
S'part'
p8818
aS'depart'
p8819
aa(lp8820
S'delight'
p8821
aS'friends'
p8822
aa(lp8823
S'spite'
p8824
aS'might'
p8825
aa(lp8826
S'bends'
p8827
aS'rest'
p8828
aa(lp8829
S'best'
p8830
aS'year'
p8831
aa(lp8832
S'skilled'
p8833
aS'fulfilled'
p8834
aa(lp8835
S'sphere'
p8836
aS'spent'
p8837
aa(lp8838
S'clear'
p8839
aS'appear'
p8840
aa(lp8841
S'outwent'
p8842
aS'contains'
p8843
aa(lp8844
S'invent'
p8845
aS'languishment'
p8846
aa(lp8847
S'pains'
p8848
aS'ways'
p8849
aa(lp8850
S'days'
p8851
aS'thought'
p8852
aa(lp8853
S'beauty'
p8854
aS'duty'
p8855
aa(lp8856
S'aught'
p8857
aS'born'
p8858
aa(lp8859
S'wrought'
p8860
aS'upbrought'
p8861
aa(lp8862
S'adorn'
p8863
aS'admire'
p8864
aa(lp8865
S'morn'
p8866
aS'scorn'
p8867
aa(lp8868
S'aspire'
p8869
aS'be'
p8870
aa(lp8871
S'degree'
p8872
aS'anew'
p8873
aa(lp8874
S'run'
p8875
aS'begun'
p8876
aa(lp8877
S'ensue'
p8878
aS'amend'
p8879
aa(lp8880
S'view'
p8881
aS'eschew'
p8882
aa(lp8883
S'offend'
p8884
aS'ray'
p8885
aa(lp8886
S'send'
p8887
aS'blend'
p8888
aa(lp8889
S'away'
p8890
aS'sprite'
p8891
aa(lp8892
S'delight'
p8893
aS'heretofore'
p8894
aa(lp8895
S'assay'
p8896
aS'dismay'
p8897
aa(lp8898
S'sore'
p8899
aS'arrive'
p8900
aa(lp8901
S'shore'
p8902
aS'store'
p8903
aa(lp8904
S'alive'
p8905
aS'rest'
p8906
aa(lp8907
S'achieve'
p8908
aS'deprive'
p8909
aa(lp8910
S'oppressed'
p8911
aS'this'
p8912
aa(lp8913
S'bliss'
p8914
aS'flowers'
p8915
aa(lp8916
S'found'
p8917
aS'around'
p8918
aa(lp8919
S'bowers'
p8920
aS'red'
p8921
aa(lp8922
S'Gillyflowers'
p8923
aS'Bellamores'
p8924
aa(lp8925
S'spread'
p8926
aS'Columbines'
p8927
aa(lp8928
S'bed'
p8929
aS'shed'
p8930
aa(lp8931
S'Jasmines'
p8932
aS'smell'
p8933
aa(lp8934
S'excel'
p8935
aS'liberty'
p8936
aa(lp8937
S'vain'
p8938
aS'gain'
p8939
aa(lp8940
S'fly'
p8941
aS'ill'
p8942
aa(lp8943
S'tie'
p8944
aS'captivity'
p8945
aa(lp8946
S'fill'
p8947
aS'bound'
p8948
aa(lp8949
S'spill'
p8950
aS'will'
p8951
aa(lp8952
S'wound'
p8953
aS'tower'
p8954
aa(lp8955
S'bower'
p8956
aS'thrown'
p8957
aa(lp8958
S'have'
p8959
aS'gave'
p8960
aa(lp8961
S'one'
p8962
aS'mate'
p8963
aa(lp8964
S'paragon'
p8965
aS'none'
p8966
aa(lp8967
S'state'
p8968
aS'peer'
p8969
aa(lp8970
S'gate'
p8971
aS'dilate'
p8972
aa(lp8973
S'appear'
p8974
aS'me'
p8975
aa(lp8976
S'be'
p8977
aS'away'
p8978
aa(lp8979
S'chase'
p8980
aS'place'
p8981
aa(lp8982
S'pray'
p8983
aS'forsook'
p8984
aa(lp8985
S'assay'
p8986
aS'way'
p8987
aa(lp8988
S'brook'
p8989
aS'bide'
p8990
aa(lp8991
S'look'
p8992
aS'took'
p8993
aa(lp8994
S'tied'
p8995
aS'wild'
p8996
aa(lp8997
S'beguiled'
p8998
aS'sin'
p8999
aa(lp9000
S'day'
p9001
aS'away'
p9002
aa(lp9003
S'win'
p9004
aS'die'
p9005
aa(lp9006
S'begin'
p9007
aS'sin'
p9008
aa(lp9009
S'felicity'
p9010
aS'again'
p9011
aa(lp9012
S'worthily'
p9013
aS'buy'
p9014
aa(lp9015
S'entertain'
p9016
aS'ought'
p9017
aa(lp9018
S'taught'
p9019
aS'wise'
p9020
aa(lp9021
S'world'
p9022
aS'enrolled'
p9023
aa(lp9024
S'emprize'
p9025
aS'memory'
p9026
aa(lp9027
S'devise'
p9028
aS'prize'
p9029
aa(lp9030
S'chastity'
p9031
aS'monument'
p9032
aa(lp9033
S'eternity'
p9034
aS'posterity'
p9035
aa(lp9036
S'wonderment'
p9037
aS'spoil'
p9038
aa(lp9039
S'toil'
p9040
aS'displayed'
p9041
aa(lp9042
S'king'
p9043
aS'spring'
p9044
aa(lp9045
S'displayed'
p9046
aS'awake'
p9047
aa(lp9048
S'laid'
p9049
aS'staid'
p9050
aa(lp9051
S'take'
p9052
aS'crew'
p9053
aa(lp9054
S'make'
p9055
aS'make'
p9056
aa(lp9057
S'due'
p9058
aS'prime'
p9059
aa(lp9060
S'time'
p9061
aS'compare'
p9062
aa(lp9063
S'work'
p9064
aS'lurk'
p9065
aa(lp9066
S'unaware'
p9067
aS'love'
p9068
aa(lp9069
S'snare'
p9070
aS'are'
p9071
aa(lp9072
S'remove'
p9073
aS'Eglantine'
p9074
aa(lp9075
S'above'
p9076
aS'prove'
p9077
aa(lp9078
S'fine'
p9079
aS'see'
p9080
aa(lp9081
S'bee'
p9082
aS'sky'
p9083
aa(lp9084
S'wings'
p9085
aS'things'
p9086
aa(lp9087
S'mortality'
p9088
aS'light'
p9089
aa(lp9090
S'spy'
p9091
aS'fly'
p9092
aa(lp9093
S'flight'
p9094
aS'ease'
p9095
aa(lp9096
S'delight'
p9097
aS'might'
p9098
aa(lp9099
S'please'
p9100
aS'happiness'
p9101
aa(lp9102
S'bliss'
p9103
aS'tie'
p9104
aa(lp9105
S'care'
p9106
aS'hair'
p9107
aa(lp9108
S'fly'
p9109
aS'flight'
p9110
aa(lp9111
S'spy'
p9112
aS'eye'
p9113
aa(lp9114
S'sight'
p9115
aS'thrall'
p9116
aa(lp9117
S'bright'
p9118
aS'delight'
p9119
aa(lp9120
S'all'
p9121
aS'repent'
p9122
aa(lp9123
S'lent'
p9124
aS'designed'
p9125
aa(lp9126
S'trade'
p9127
aS'made'
p9128
aa(lp9129
S'mind'
p9130
aS'descent'
p9131
aa(lp9132
S'kind'
p9133
aS'kind'
p9134
aa(lp9135
S'lent'
p9136
aS'raised'
p9137
aa(lp9138
S'ornament'
p9139
aS'excellent'
p9140
aa(lp9141
S'praised'
p9142
aS'live'
p9143
aa(lp9144
S'give'
p9145
aS'away'
p9146
aa(lp9147
S'strand'
p9148
aS'hand'
p9149
aa(lp9150
S'prey'
p9151
aS'immortalize'
p9152
aa(lp9153
S'assay'
p9154
aS'decay'
p9155
aa(lp9156
S'likewise'
p9157
aS'fame'
p9158
aa(lp9159
S'devise'
p9160
aS'eternize'
p9161
aa(lp9162
S'name'
p9163
aS'subdue'
p9164
aa(lp9165
S'renew'
p9166
aS'delight'
p9167
aa(lp9168
S'treasure'
p9169
aS'pleasure'
p9170
aa(lp9171
S'sprite'
p9172
aS'astray'
p9173
aa(lp9174
S'sight'
p9175
aS'insight'
p9176
aa(lp9177
S'prey'
p9178
aS'apace'
p9179
aa(lp9180
S'May'
p9181
aS'display'
p9182
aa(lp9183
S'place'
p9184
aS'rest'
p9185
aa(lp9186
S'blest'
p9187
aS'ivory'
p9188
aa(lp9189
S'plain'
p9190
aS'entertain'
p9191
aa(lp9192
S'royalty'
p9193
aS'price'
p9194
aa(lp9195
S'lie'
p9196
aS'by'
p9197
aa(lp9198
S'entice'
p9199
aS'taste'
p9200
aa(lp9201
S'vice'
p9202
aS'paradise'
p9203
aa(lp9204
S'placed'
p9205
aS'spread'
p9206
aa(lp9207
S'fed'
p9208
aS'hind'
p9209
aa(lp9210
S'place'
p9211
aS'face'
p9212
aa(lp9213
S'mind'
p9214
aS'decked'
p9215
aa(lp9216
S'signed'
p9217
aS'find'
p9218
aa(lp9219
S'aspect'
p9220
aS'again'
p9221
aa(lp9222
S'direct'
p9223
aS'object'
p9224
aa(lp9225
S'vain'
p9226
aS'see'
p9227
aa(lp9228
S'me'
p9229
aS'see'
p9230
aa(lp9231
S'it'
p9232
aS'wit'
p9233
aa(lp9234
S'me'
p9235
aS'hue'
p9236
aa(lp9237
S'be'
p9238
aS'free'
p9239
aa(lp9240
S'ensue'
p9241
aS'seed'
p9242
aa(lp9243
S'you'
p9244
aS'true'
p9245
aa(lp9246
S'proceed'
p9247
aS'made'
p9248
aa(lp9249
S'fade'
p9250
aS'compile'
p9251
aa(lp9252
S'run'
p9253
aS'fordone'
p9254
aa(lp9255
S'awhile'
p9256
aS'anew'
p9257
aa(lp9258
S'toil'
p9259
aS'assoyle'
p9260
aa(lp9261
S'due'
p9262
aS'praise'
p9263
aa(lp9264
S'mew'
p9265
aS'hue'
p9266
aa(lp9267
S'raise'
p9268
aS'mean'
p9269
aa(lp9270
S'Queene'
p9271
aS'mark'
p9272
aa(lp9273
S'heares'
p9274
aS'appears'
p9275
aa(lp9276
S'spark'
p9277
aS'lay'
p9278
aa(lp9279
S'bark'
p9280
aS'dark'
p9281
aa(lp9282
S'away'
p9283
aS'dight'
p9284
aa(lp9285
S'display'
p9286
aS'way'
p9287
aa(lp9288
S'sprite'
p9289
aS'wonderment'
p9290
aa(lp9291
S'astonishment'
p9292
aS'placed'
p9293
aa(lp9294
S'you'
p9295
aS'rue'
p9296
aa(lp9297
S'debased'
p9298
aS'invent'
p9299
aa(lp9300
S'graced'
p9301
aS'enchased'
p9302
aa(lp9303
S'monument'
p9304
aS'worth'
p9305
aa(lp9306
S'relent'
p9307
aS'spent'
p9308
aa(lp9309
S'forth'
p9310
aS'me'
p9311
aa(lp9312
S'degree'
p9313
aS'pain'
p9314
aa(lp9315
S'covetize'
p9316
aS'suffice'
p9317
aa(lp9318
S'complain'
p9319
aS'more'
p9320
aa(lp9321
S'sustain'
p9322
aS'vain'
p9323
aa(lp9324
S'poor'
p9325
aS'brook'
p9326
aa(lp9327
S'store'
p9328
aS'before'
p9329
aa(lp9330
S'look'
p9331
aS'me'
p9332
aa(lp9333
S'she'
p9334
aS'desire'
p9335
aa(lp9336
S'fire'
p9337
aS'unrest'
p9338
aa(lp9339
S'breast'
p9340
aS'rest'
p9341
aa(lp9342
S'sprites'
p9343
aS'delights'
p9344
aa(lp9345
S'sights'
p9346
aS'plights'
p9347
aa(lp9348
S'attain'
p9349
aS'constrain'
p9350
aa(lp9351
S'perfection'
p9352
aS'election'
p9353
aa(lp9354
S'things'
p9355
aS'sings'
p9356
aa(lp9357
S'flatter'
p9358
aS'clatter'
p9359
aa(lp9360
S'matter'
p9361
aS'her'
p9362
aa(lp9363
S'admire'
p9364
aS'aspire'
p9365
aa(lp9366
S'entire'
p9367
aS'inspire'
p9368
aa(lp9369
S'quill'
p9370
aS'fill'
p9371
aa(lp9372
S'thunder'
p9373
aS'wonder'
p9374
aa(lp9375
S'sting'
p9376
aS'spring'
p9377
aa(lp9378
S'fell'
p9379
aS'well'
p9380
aa(lp9381
S'hell'
p9382
aS'tell'
p9383
aa(lp9384
S'hire'
p9385
aS'ire'
p9386
aa(lp9387
S'fire'
p9388
aS'conspire'
p9389
aa(lp9390
S'head'
p9391
aS'bred'
p9392
aa(lp9393
S'reward'
p9394
aS'prepared'
p9395
aa(lp9396
S'love'
p9397
aS'move'
p9398
aa(lp9399
S'outworn'
p9400
aS'morn'
p9401
aa(lp9402
S'adorn'
p9403
aS'forlorn'
p9404
aa(lp9405
S'end'
p9406
aS'reascend'
p9407
aa(lp9408
S'spend'
p9409
aS'extend'
p9410
aa(lp9411
S'beguile'
p9412
aS'mile'
p9413
aa(lp9414
S'last'
p9415
aS'fast'
p9416
aa(lp9417
S'light'
p9418
aS'night'
p9419
aa(lp9420
S'astray'
p9421
aS'dismay'
p9422
aa(lp9423
S'day'
p9424
aS'ray'
p9425
aa(lp9426
S'vain'
p9427
aS'remain'
p9428
aa(lp9429
S'plain'
p9430
aS'sustain'
p9431
aa(lp9432
S'part'
p9433
aS'heart'
p9434
aa(lp9435
S'mind'
p9436
aS'blind'
p9437
aa(lp9438
S'bough'
p9439
aS'vow'
p9440
aa(lp9441
S'mate'
p9442
aS'late'
p9443
aa(lp9444
S'disconsolate'
p9445
aS'desolate'
p9446
aa(lp9447
S'love'
p9448
aS'dove'
p9449
aa(lp9450
S'hove'
p9451
aS'move'
p9452
aa(lp9453
S'sight'
p9454
aS'delight'
p9455
aa(lp9456
S'miss'
p9457
aS'bliss'
p9458
aasS'D'
p9459
I26
sS'L'
p9460
I20
sS'O'
p9461
(lp9462
(lp9463
F0.9998724215848989
aF4.35009107310918e-202
aF1.6791185055924444e-160
aF0.0
aF0.0
aF0.0
aF0.0
aF0.0
aF0.0
aF0.0
aF4.105341315870314e-127
aF0.0
aF0.0
aF0.0
aF1.5728833610851506e-14
aF8.115773794961783e-70
aF0.00012757841508647104
aF0.0
aF0.0
aF0.0
aF0.0
aF0.0
aF1.3081507493142476e-119
aF0.0
aF0.0
aF0.0
aa(lp9464
F0.9999999150033648
aF0.0
aF2.2226337332394783e-25
aF0.0
aF6.641554336402603e-114
aF9.369981472117878e-195
aF4.1813288656069145e-147
aF0.0
aF0.0
aF0.0
aF8.499663629228017e-08
aF0.0
aF5.389258570736156e-114
aF0.0
aF1.061905659395144e-177
aF2.319433906317978e-130
aF1.699637347e-314
aF0.0
aF0.0
aF0.0
aF0.0
aF0.0
aF8.250556179241662e-176
aF2.1958450125993425e-47
aF0.0
aF0.0
aa(lp9465
F0.12033577331263964
aF2.287033441943754e-303
aF0.01245161071778696
aF8.553122487764703e-172
aF5.250376320698697e-128
aF1.3848275e-317
aF1.9064885519605412e-15
aF1.3437119457623444e-222
aF0.0
aF7.098968e-317
aF0.058765042270612355
aF0.0
aF0.8083395920305912
aF0.0
aF3.09349977523545e-35
aF9.932150442101068e-88
aF3.4053511235014716e-167
aF1.9034774434264946e-239
aF0.0
aF0.0
aF3.793519001870491e-85
aF0.0
aF7.224944208626153e-73
aF0.00010798166836512728
aF3.445892214003164e-142
aF0.0
aa(lp9466
F0.7997550703915778
aF0.0
aF0.11081593278069538
aF0.0
aF1.8323869062057218e-93
aF4.204122928023656e-58
aF0.002477653189592874
aF0.0
aF0.0
aF0.0
aF0.05184147391863162
aF0.0
aF0.004793878357072762
aF0.0
aF2.5792751960375376e-88
aF0.025176226895110808
aF0.0
aF1.3072730357237977e-302
aF0.0
aF0.0
aF0.0
aF0.0
aF1.3261971232684034e-80
aF0.005139764467321294
aF0.0
aF0.0
aa(lp9467
F0.8380702822943336
aF3.6507e-319
aF0.13951417539800742
aF0.0
aF2.6940310509012993e-38
aF0.007400696456949602
aF3.121315660937559e-151
aF0.0
aF0.0
aF0.0
aF2.1634970732301618e-67
aF0.0
aF4.613929118664741e-288
aF0.0
aF0.013951020847434928
aF3.0409442135157004e-111
aF3.3088832026704e-311
aF1.1383598355154655e-240
aF0.0005183828141522036
aF0.0
aF0.0
aF3.3312255068050492e-307
aF0.00016906133144173723
aF0.0003763808576805738
aF0.0
aF0.0
aa(lp9468
F0.46700789930728
aF2.5999912288266625e-27
aF1.4714959899416209e-121
aF3.951770574076541e-251
aF7.7199554325707e-211
aF0.0
aF3.461946238245849e-285
aF0.011561640962690599
aF0.0
aF2.1903634857782467e-200
aF0.023045285773842867
aF0.0
aF3.998416405519457e-234
aF0.0
aF0.009824653835340128
aF0.4741775227226339
aF1.9106797290951796e-221
aF0.0
aF2.4196830436203257e-302
aF0.011934180422697541
aF0.0
aF0.0
aF0.0024488169755102615
aF0.0
aF0.0
aF0.0
aa(lp9469
F0.26674938827709405
aF5.378199943574415e-10
aF1.0347077364527684e-89
aF9.330513862051646e-95
aF0.05535088353120948
aF0.22615254059828738
aF0.019748212675880072
aF1.2849742512748454e-53
aF0.048217386233519205
aF1.8031757084072598e-130
aF0.006905314177991026
aF0.32325515661538784
aF1.2803169443461414e-74
aF0.0
aF6.676484352283135e-265
aF0.05025426800855423
aF1.2167100985759432e-260
aF0.0007767489198996404
aF0.0
aF0.0
aF1.6930173505416466e-269
aF0.0
aF0.0
aF0.002590100424359408
aF4.153111268602705e-133
aF0.0
aa(lp9470
F0.349423070243931
aF1.771075519350687e-53
aF0.6199546500320352
aF2.7595459973011503e-136
aF0.005695078523533084
aF3.459974352845448e-66
aF9.819783455619863e-50
aF5.820149160107511e-40
aF3.5498095279624225e-131
aF0.0
aF1.379601555479473e-27
aF0.0
aF2.5560288068548793e-117
aF9.102217851687585e-263
aF8.083036043665355e-43
aF7.666450260780788e-154
aF0.008102916983215367
aF2.5816334272203713e-197
aF0.0
aF1.0589564822362684e-204
aF0.0
aF2.041912415602395e-152
aF0.0168242364888551
aF4.772842832808288e-08
aF2.422130065413e-312
aF0.0
aa(lp9471
F0.9676666574893675
aF2.4062546559571794e-191
aF3.3377942720424715e-56
aF0.0
aF1.3470796454570174e-124
aF1.152537394539592e-66
aF1.4486212339535443e-51
aF0.010247563912419566
aF0.0
aF0.0
aF7.339989422109118e-150
aF0.0
aF5.977430381787672e-225
aF0.004743282784393846
aF0.01734249581381974
aF4.53455074354935e-164
aF6.78369762899414e-48
aF1.0262589066280202e-267
aF0.0
aF0.0
aF0.0
aF0.0
aF2.9183227082040493e-71
aF2.925310267471346e-22
aF0.0
aF0.0
aa(lp9472
F0.5267954190202712
aF0.0
aF1.7170883320865158e-07
aF0.001523337954824438
aF0.06391304755649493
aF2.1428630572190925e-134
aF0.00307130189061789
aF4.341254389198145e-10
aF0.0
aF1.6298124890564052e-90
aF0.2704618183567847
aF7.896806319017697e-228
aF0.05436995477929482
aF0.0
aF0.05153344575599382
aF0.0010839309728619846
aF0.007901960802408034
aF0.0
aF0.0006657269258481172
aF0.0
aF0.0
aF2.137457543362844e-245
aF0.008170887413829727
aF0.005369732593982819
aF0.005139263833828387
aF0.0
aa(lp9473
F0.4970859805833364
aF0.4484468803297305
aF0.000336498562897838
aF7.793053881028994e-75
aF3.196064995314891e-67
aF1.1035902939175575e-107
aF2.3472238862275303e-66
aF1.6293856542752978e-09
aF1.7216195419510413e-83
aF4.5638579671328385e-148
aF0.007459882795454081
aF0.0
aF4.545764041024767e-204
aF3.410176275943073e-182
aF0.0001641092047719087
aF0.0007320396164347796
aF0.0049212205773152985
aF6.956383906671541e-40
aF0.0
aF0.007582548971840908
aF0.0
aF0.03134017962403415
aF0.00193065810479816
aF3.832404397660697e-191
aF5.212493727079499e-207
aF0.0
aa(lp9474
F0.49416076936438413
aF0.06695360076122764
aF0.036575988029804704
aF1.243452039714188e-19
aF0.2212987153336628
aF0.03021343168431393
aF0.00546774966559681
aF0.00995753643380922
aF2.1791535860065427e-06
aF2.6214393364329324e-144
aF0.023759694214585778
aF0.0
aF0.012945455411916483
aF0.04415362522515435
aF0.02943953179777974
aF3.61491869481706e-08
aF7.90615568607595e-39
aF0.005901037560733245
aF0.0
aF0.011188343412076683
aF0.0
aF2.761006060525965e-47
aF0.0037098423364122332
aF0.0017716570909971012
aF0.002500806374774216
aF0.0
aa(lp9475
F1.3417583726892538e-21
aF0.017165814875931537
aF4.686472300752318e-06
aF0.5224449097839289
aF0.017680067479712555
aF2.402275200480124e-128
aF2.2113243311166223e-94
aF0.01084793492837722
aF0.34576898973947207
aF1.0193846911751252e-10
aF4.2459636683727036e-23
aF0.0021244601714648934
aF1.541196050270049e-105
aF0.032086654807852534
aF3.1726207569597395e-63
aF0.00819612865730231
aF8.871710940610865e-183
aF7.581535544221774e-66
aF0.0021277585486415523
aF0.015254266865360792
aF0.0006684367874878446
aF0.025629890780230424
aF1.8001957187280185e-93
aF5.167366290232511e-30
aF1.0195673514460117e-203
aF0.0
aa(lp9476
F0.30505856481121135
aF0.11899001395639659
aF6.876629666256716e-07
aF6.812935911446657e-75
aF0.42007770230401215
aF4.490389012673628e-254
aF0.006113677493317085
aF0.028160744417698367
aF3.0080998883742137e-73
aF1.1773942716309288e-84
aF0.04246947506330122
aF5.8881514840623124e-213
aF0.024648294831945486
aF0.0
aF0.005138549067519247
aF2.0114385537081133e-45
aF0.031599800033635606
aF0.0
aF0.0
aF0.0
aF1.190651271349249e-258
aF0.0
aF1.201902611237917e-138
aF0.015873591999444405
aF0.0018688983585391447
aF0.0
aa(lp9477
F0.12624308879956847
aF6.035450473804479e-27
aF0.010117042186899796
aF0.03145795507985909
aF0.02225807367481099
aF1.3974835052673694e-80
aF0.002052175245814206
aF0.3862014368107154
aF3.0349386639300067e-219
aF0.33653203967508866
aF0.037134657025233844
aF0.004991581738699011
aF1.67447614279114e-201
aF6.0307911811956325e-86
aF0.00436883426057339
aF0.0010534971720059664
aF0.0011512204172314478
aF4.0404631647232836e-119
aF0.0077815017381358716
aF0.0068871007143514
aF0.0
aF0.002606733438029948
aF0.013261814054106369
aF0.005901247968871277
aF1.2444694433480562e-301
aF0.0
aa(lp9478
F0.6181038516970544
aF0.0
aF0.08684162730090991
aF0.0
aF2.041967052663702e-71
aF0.0
aF0.0
aF0.0
aF0.0
aF0.0
aF0.11525920165142776
aF0.0
aF4.88572085053589e-30
aF0.0
aF3.2959225226274304e-186
aF0.10510884967103752
aF5.462990378799667e-275
aF0.0
aF0.0
aF0.0
aF0.05760201911942103
aF0.0
aF0.0
aF0.012207453247578973
aF0.0048769973125735114
aF0.0
aa(lp9479
F0.9008622611777388
aF0.0
aF1.1211935904461175e-22
aF7.026422511296829e-19
aF1.5561115842033396e-84
aF0.016366824488823387
aF0.011071947335003518
aF6.190085895794608e-22
aF1.2912891698665652e-209
aF0.0
aF3.077823417566646e-62
aF0.0
aF7.040615523713929e-186
aF1.5697332218329446e-31
aF4.676131517526987e-128
aF0.0017407201463076583
aF0.025157308512468595
aF8.971935537091685e-219
aF1.128612126476021e-270
aF0.001863500189787903
aF0.0
aF0.014263081349863663
aF9.41783004765854e-05
aF0.025035427142618243
aF0.003544751356914538
aF0.0
aa(lp9480
F0.15490233844907345
aF6.666354358114156e-222
aF0.04471742257827913
aF0.4762855606250957
aF0.045051712590385574
aF0.009608001078023178
aF0.011109921719164143
aF0.03702350604155423
aF3.9547989117361864e-176
aF4.846772582523581e-24
aF0.015983210139160108
aF0.05548713071866922
aF0.007801801926884372
aF0.030361551718035635
aF0.0313280705310534
aF0.01086564456724859
aF0.000508394711516775
aF0.03573320861375619
aF0.0
aF0.008976372216828345
aF0.003046275106598501
aF0.016459655370371175
aF0.0012119669088853369
aF0.0032168162647492793
aF1.1292048742871135e-29
aF0.0003214381246624706
aa(lp9481
F0.1585093363342477
aF0.0006673083960871331
aF0.05440735160941289
aF1.8647605204882218e-161
aF0.11490186590993474
aF0.06639161574961873
aF0.10623132286415447
aF2.2442201685701503e-171
aF4.600881053129118e-196
aF5.11528673309e-312
aF2.160135985474679e-16
aF2.0368543380127345e-226
aF0.005795615841127531
aF0.0
aF0.03555698834966432
aF0.2036363518771671
aF0.0147677720089012
aF0.14772275247123887
aF0.0
aF0.0
aF0.0757645261794229
aF4.926570879344385e-224
aF0.0
aF0.015647192409028152
aF2.0670391623496496e-295
aF0.0
aa(lp9482
F0.6514256419350516
aF0.0
aF9.685452853651927e-24
aF0.0008200714433626989
aF1.754994552211032e-101
aF1.8284719791918e-310
aF0.04189575173911913
aF2.5421632872298185e-126
aF0.0
aF0.0
aF0.24105919487872424
aF0.0
aF1.891195218316466e-60
aF0.0
aF0.03594307898299404
aF0.013931745331909702
aF0.004395395657820036
aF3.71283945123784e-29
aF0.0
aF0.0
aF1.0642645383839535e-134
aF0.0
aF0.005680003617666062
aF4.8653539274406756e-42
aF0.004849116413353407
aF0.0
aasS'A_start'
p9483
(lp9484
F0.05
aF0.05
aF0.05
aF0.05
aF0.05
aF0.05
aF0.05
aF0.05
aF0.05
aF0.05
aF0.05
aF0.05
aF0.05
aF0.05
aF0.05
aF0.05
aF0.05
aF0.05
aF0.05
aF0.05
asb.