(iHMM
HiddenMarkovModel
p0
(dp1
S'A'
p2
(lp3
(lp4
F0.22041919107409494
aF0.779580808925907
aF9.414698463143737e-18
aF4.189949189202981e-26
aa(lp5
F0.014424584347407276
aF0.2600149257583885
aF0.7255604866943356
aF3.1998556863080826e-09
aa(lp6
F0.039309008317471764
aF0.0388976743460559
aF0.20041879454261455
aF0.7213745227938579
aa(lp7
F0.13481549969455456
aF0.44331927109715097
aF0.42186522920722747
aF1.0775263868576144e-12
aasS'map'
p8
(dp9
S'fawn'
p10
I3132
sS'succour'
p11
I3235
sS'pardon'
p12
I1753
sS"t'abide"
p13
I3400
sS'yellow'
p14
I2005
sS'four'
p15
I1479
sS'hath'
p16
I457
sS'woods'
p17
I3521
sS'sleep'
p18
I1432
sS'abide'
p19
I1022
sS"friend's"
p20
I1170
sS'hanging'
p21
I936
sS'mansion'
p22
I2355
sS'appetite'
p23
I1698
sS'evermore'
p24
I1310
sS'hate'
p25
I479
sS'poorly'
p26
I1648
sS'whose'
p27
I160
sS'feeding'
p28
I1702
sS'reposeth'
p29
I4029
sS'effectually'
p30
I2606
sS'granting'
p31
I2246
sS'love-learned'
p32
I3866
sS'sweetest'
p33
I1266
sS'boundless'
p34
I1865
sS'presents'
p35
I1037
sS'bays'
p36
I3669
sS'whatsoever'
p37
I1000
sS'under'
p38
I339
sS'lord'
p39
I980
sS'sorry'
p40
I797
sS'pride'
p41
I961
sS'sway'
p42
I1904
sS'worth'
p43
I99
sS'frowns'
p44
I2323
sS'amorous'
p45
I4240
sS'discased'
p46
I3202
sS'dispense'
p47
I2600
sS'void'
p48
I4258
sS'hadst'
p49
I1368
sS'lurk'
p50
I4189
sS'inhearse'
p51
I2225
sS"women's"
p52
I824
sS'every'
p53
I254
sS'foul'
p54
I2726
sS'nourished'
p55
I2021
sS"o'er-read"
p56
I2157
sS'wonts'
p57
I3805
sS'flys'
p58
I4212
sS'thenceforth'
p59
I3823
sS'perusal'
p60
I1342
sS'uttering'
p61
I1949
sS'prize'
p62
I1550
sS'sunk'
p63
I541
sS'cause'
p64
I1571
sS'graced'
p65
I2114
sS'harrowed'
p66
I4162
sS'relics'
p67
I3572
sS'succession'
p68
I139
sS'graces'
p69
I729
sS'triumph'
p70
I953
sS'enjoy'
p71
I1092
sS'charter'
p72
I1748
sS'force'
p73
I1696
sS'depraves'
p74
I3687
sS'tired'
p75
I1013
sS'razed'
p76
I972
sS'warns'
p77
I3270
sS'out-going'
p78
I379
sS'direct'
p79
I3731
sS'tires'
p80
I1651
sS'longwhile'
p81
I3965
sS'crave'
p82
I1737
sS'persuade'
p83
I876
sS'down-rased'
p84
I1848
sS'rigorous'
p85
I3402
sS'esteem'
p86
I2420
sS'quill'
p87
I2187
sS'even'
p88
I672
sS'beated'
p89
I1826
sS'captain'
p90
I1631
sS'hide'
p91
I1203
sS"ne'er"
p92
I736
sS'wreck'
p93
I4016
sS'solemn'
p94
I1624
sS'thunder'
p95
I631
sS'fingers'
p96
I2857
sS'liberty'
p97
I1388
sS"gild'st"
p98
I1067
sS'lowliness'
p99
I3421
sS'worser'
p100
I3057
sS'heart-thrilling'
p101
I3386
sS'above'
p102
I2229
sS'conduct'
p103
I3724
sS'matcheth'
p104
I1960
sS'new'
p105
I142
sS'net'
p106
I3768
sS'increasing'
p107
I1857
sS'ever'
p108
I816
sS'seeks'
p109
I3382
sS'told'
p110
I1492
sS'deemed'
p111
I2370
sS'sinks'
p112
I1482
sS"t'adorn"
p113
I3544
sS'men'
p114
I668
sS'here'
p115
I583
sS'herd'
p116
I554
sS'beck'
p117
I1740
sS"sweet'st"
p118
I2921
sS'pursuit'
p119
I2884
sS'humility'
p120
I3864
sS'active'
p121
I1320
sS'quite'
p122
I271
sS'a-doting'
p123
I845
sS'dry'
p124
I1236
sS'resty'
p125
I2421
sS'substance'
p126
I297
sS'daughter'
p127
I3802
sS'uplifting'
p128
I4307
sS'attending'
p129
I363
sS'leaves'
p130
I272
sS'climbed'
p131
I355
sS'credit'
p132
I2982
sS'smoke'
p133
I1230
sS'permit'
p134
I1198
sS'bettered'
p135
I2049
sS'mistake'
p136
I3123
sS'settled'
p137
I1564
sS'fell'
p138
I846
sS'mutual'
p139
I414
sS'golden'
p140
I191
sS'swearing'
p141
I3155
sS'divide'
p142
I1494
sS'blessed-fair'
p143
I2315
sS'sorrows'
p144
I1070
sS'patience'
p145
I1746
sS'guests'
p146
I4260
sS'stern'
p147
I2375
sS'glance'
p148
I2060
sS"light's"
p149
I38
sS'mote'
p150
I3465
sS'plot'
p151
I2972
sS'treading'
p152
I3417
sS'shiny'
p153
I3595
sS'would'
p154
I517
sS'to'
p155
I31
sS'gulls'
p156
I2237
sS'recured'
p157
I1483
sS'convertest'
p158
I506
sS'arms'
p159
I3959
sS'junes'
p160
I2475
sS'orpheus'
p161
I3874
sS'music'
p162
I386
sS'therefore'
p163
I886
sS'survive'
p164
I1157
sS'gilding'
p165
I832
sS'tell'
p166
I151
sS'breathe'
p167
I778
sS'leese'
p168
I300
sS'unbless'
p169
I163
sS'holy'
p170
I1145
sS'wary'
p171
I884
sS'brings'
p172
I1104
sS'infusion'
p173
I3645
sS'muse'
p174
I854
sS'pierced'
p175
I1500
sS'grief'
p176
I1242
sS'glass'
p177
I152
sS'warm'
p178
I146
sS'sting'
p179
I4326
sS'former'
p180
I1704
sS'excellent'
p181
I1336
sS'robbing'
p182
I1943
sS'workmanship'
p183
I3487
sS'ward'
p184
I2928
sS'hold'
p185
I592
sS'striving'
p186
I2460
sS'must'
p187
I240
sS'shoot'
p188
I2696
sS'join'
p189
I2277
sS'room'
p190
I1691
sS'err'
p191
I2902
sS'rights'
p192
I745
sS'work'
p193
I249
sS'eclipse'
p194
I2508
sS'roof'
p195
I485
sS'meadows'
p196
I1191
sS'ere'
p197
I306
sS'vow'
p198
I2274
sS'sharp'
p199
I1597
sS'leaped'
p200
I2404
sS'dost'
p201
I165
sS'revenues'
p202
I3029
sS'root'
p203
I1682
sS'example'
p204
I2197
sS'shook'
p205
I2469
sS'fresher'
p206
I2172
sS'wane'
p207
I502
sS'unjust'
p208
I2986
sS'dolphin'
p209
I3794
sS'laughs'
p210
I3996
sS'disparagement'
p211
I4136
sS'impair'
p212
I2192
sS"wand'rest"
p213
I776
sS'hardens'
p214
I3995
sS'immortally'
p215
I3888
sS'appearance'
p216
I1503
sS'story'
p217
I2201
sS'looser'
p218
I3550
sS'returned'
p219
I1487
sS'ceremony'
p220
I907
sS"consum'st"
p221
I434
sS'thing'
p222
I652
sS'provide'
p223
I2568
sS'dignifies'
p224
I2202
sS'travel'
p225
I1014
sS'feature'
p226
I2617
sS"th'only"
p227
I4359
sS'stint'
p228
I3879
sS'wights'
p229
I2493
sS'faults'
p230
I1269
sS'hot'
p231
I760
sS'writers'
p232
I2163
sS"glory's"
p233
I4039
sS'rashly'
p234
I3782
sS'answer'
p235
I130
sS'gate'
p236
I1101
sS'unwarily'
p237
I3458
sS'dignified'
p238
I2433
sS'construe'
p239
I3869
sS"o'er-snowed"
p240
I277
sS'blanks'
p241
I2087
sS'beauty'
p242
I105
sS'after'
p243
I596
sS'bared'
p244
I4362
sS'wrong'
p245
I813
sS'lay'
p246
I1426
sS'law'
p247
I3349
sS'lap'
p248
I2409
sS'wronk'
p249
I2271
sS'purchase'
p250
I3638
sS'attempt'
p251
I4310
sS'third'
p252
I4221
sS'scourge'
p253
I3600
sS"rud'st"
p254
I2614
sS'revolt'
p255
I2314
sS'greet'
p256
I1561
sS'purging'
p257
I1471
sS'wink'
p258
I1429
sS'maintain'
p259
I2768
sS'haste'
p260
I1011
sS'meekness'
p261
I3543
sS'steals'
p262
I840
sS'alack'
p263
I1215
sS'mightier'
p264
I691
sS'wouldst'
p265
I646
sS'wind'
p266
I629
sS'bed-vow'
p267
I3157
sS'determinate'
p268
I2244
sS'couplement'
p269
I857
sS'lords'
p270
I2336
sS'after-loss'
p271
I2278
sS'office'
p272
I2439
sS'deck'
p273
I3273
sS'consent'
p274
I1058
sS'over'
p275
I3532
sS'choose'
p276
I1863
sS'profaned'
p277
I2846
sS'sickly'
p278
I3104
sS'fortify'
p279
I695
sS'ghastly'
p280
I1038
sS'besiege'
p281
I83
sS'strangle'
p282
I2269
sS"bestow'st"
p283
I504
sS'wrought'
p284
I847
sS'before'
p285
I684
sS'wilt'
p286
I427
sS'fit'
p287
I3557
sS'heretofore'
p288
I4089
sS'thrust'
p289
I1533
sS'crew'
p290
I4071
sS'better'
p291
I1176
sS'fade'
p292
I771
sS'persist'
p293
I3300
sS'carve'
p294
I807
sS'hidden'
p295
I1151
sS'possessing'
p296
I2054
sS'then'
p297
I109
sS'them'
p298
I640
sS'blots'
p299
I1301
sS'enrich'
p300
I2095
sS'thee'
p301
I78
sS'safe'
p302
I3855
sS"truth's"
p303
I650
sS'break'
p304
I1099
sS"winter's"
p305
I304
sS'diseased'
p306
I2711
sS'they'
p307
I292
sS'glazed'
p308
I939
sS'one'
p309
I318
sS'silver'
p310
I1261
sS'shadows'
p311
I1436
sS'rhetoric'
p312
I2174
sS'meat'
p313
I3820
sS'brightness'
p314
I3140
sS'troublous'
p315
I3721
sS'princes'
p316
I633
sS'persever'
p317
I3344
sS'slavery'
p318
I2922
sS'rocks'
p319
I1877
sS'herald'
p320
I59
sS'good'
p321
I621
sS'victories'
p322
I970
sS'mead'
p323
I3972
sS'arrow'
p324
I3473
sS'each'
p325
I340
sS'wantonly'
p326
I1661
sS'dulness'
p327
I1710
sS'went'
p328
I1614
sS'side'
p329
I1507
sS'luck'
p330
I619
sS'true-telling'
p331
I2177
sS'wheel'
p332
I3497
sS'woes'
p333
I1113
sS'concord'
p334
I400
sS'innocent'
p335
I3909
sS"'will'"
p336
I2951
sS'spider'
p337
I4190
sS'taught'
p338
I1861
sS'forgot'
p339
I975
sS'misprision'
p340
I2252
sS'whit'
p341
I1220
sS'truant'
p342
I2430
sS'sounds'
p343
I398
sS'borne'
p344
I564
sS'contend'
p345
I1780
sS'silvered'
p346
I548
sS'decree'
p347
I2325
sS'fraught'
p348
I4092
sS'forts'
p349
I3429
sS'although'
p350
I1299
sS'god'
p351
I1735
sS"th'assurance"
p352
I4030
sS'washed'
p353
I4163
sS'forty'
p354
I86
sS'moiety'
p355
I1513
sS'content'
p356
I62
sS'laid'
p357
I2821
sS'heart-inflaming'
p358
I3188
sS'lviii'
p359
I4028
sS'heavenly'
p360
I353
sS'got'
p361
I2099
sS'newly'
p362
I4109
sS'marigold'
p363
I959
sS'forth'
p364
I1227
sS'assured'
p365
I1489
sS'fadeth'
p366
I2014
sS'hang'
p367
I1662
sS'eternal'
p368
I606
sS'little'
p369
I655
sS'free'
p370
I211
sS'mourning'
p371
I2916
sS'small'
p372
I100
sS'bestow'
p373
I994
sS'whereupon'
p374
I830
sS'evil'
p375
I620
sS'basest'
p376
I1197
sS'crowned'
p377
I1327
sS'mistress'
p378
I819
sS'knit'
p379
I981
sS'silent'
p380
I921
sS"receiv'st"
p381
I394
sS'created'
p382
I841
sS'lour'
p383
I3326
sS'days'
p384
I110
sS'ordering'
p385
I413
sS'renew'
p386
I1697
sS'flown'
p387
I3075
sS'tempting'
p388
I1409
sS'aspire'
p389
I3309
sS'potions'
p390
I2578
sS'loud'
p391
I3053
sS'ruinate'
p392
I484
sS'penury'
p393
I2198
sS'separable'
p394
I1304
sS'untutored'
p395
I2977
sS'already'
p396
I2071
sS'angelic'
p397
I4314
sS'hearsay'
p398
I873
sS"'greeing"
p399
I2634
sS'maladies'
p400
I2700
sS'hearing'
p401
I2222
sS'will'
p402
I104
sS'featured'
p403
I1087
sS'blossomed'
p404
I4117
sS'another'
p405
I154
sS'sober'
p406
I2914
sS'thick'
p407
I3397
sS'filching'
p408
I2046
sS'all-oblivious'
p409
I1690
sS'cheerless'
p410
I3261
sS'exchequer'
p411
I1925
sS'usurer'
p412
I223
sS'their'
p413
I298
sS'top'
p414
I699
sS'hawks'
p415
I2297
sS'millioned'
p416
I2645
sS'greedily'
p417
I3376
sS'master'
p418
I820
sS'too'
p419
I48
sS'dwell'
p420
I252
sS'bitter'
p421
I2579
sS'aslake'
p422
I3878
sS'likest'
p423
I3348
sS'fiery'
p424
I1610
sS'sire'
p425
I417
sS'feathers'
p426
I2108
sS'griefs'
p427
I2289
sS'ink'
p428
I1885
sS'took'
p429
I1515
sS'wisdom'
p430
I509
sS'atalanta'
p431
I4257
sS'wardrobe'
p432
I1633
sS'shortly'
p433
I3943
sS'upbrought'
p434
I4069
sS"youth's"
p435
I97
sS'character'
p436
I1767
sS'begins'
p437
I1018
sS'distance'
p438
I1446
sS'guile'
p439
I3767
sS'soonest'
p440
I4033
sS'coward'
p441
I2034
sS"mother's"
p442
I180
sS'tree'
p443
I3650
sS'bitterness'
p444
I1726
sS'idly'
p445
I2419
sS'matter'
p446
I1452
sS'idle'
p447
I1804
sS'inheritors'
p448
I3088
sS'flame'
p449
I37
sS'false-forged'
p450
I4337
sS'deserving'
p451
I2247
sS'bedecked'
p452
I4196
sS'knights'
p453
I2496
sS'beard'
p454
I561
sS'powers'
p455
I3083
sS'swift-footed'
p456
I799
sS'ravished'
p457
I3255
sS'perspective'
p458
I934
sS'fashion'
p459
I823
sS'sees'
p460
I3126
sS'gaudy'
p461
I58
sS"mind's"
p462
I2076
sS'mought'
p463
I3347
sS'modern'
p464
I2188
sS'mind'
p465
I449
sS'mine'
p466
I126
sS'untrained'
p467
I3948
sS'hairs'
p468
I2893
sS'seed'
p469
I4273
sS'manner'
p470
I2998
sS'bewailed'
p471
I1312
sS"deserv'st"
p472
I1359
sS'protract'
p473
I4348
sS'seem'
p474
I909
sS'ocean'
p475
I1713
sS'seek'
p476
I1574
sS'tells'
p477
I538
sS'contents'
p478
I1674
sS'ray'
p479
I3729
sS'praising'
p480
I1366
sS'nipples'
p481
I4118
sS'strength'
p482
I910
sS'rotten'
p483
I1231
sS'snow'
p484
I2891
sS'chest'
p485
I1544
sS'subjects'
p486
I1775
sS'forces'
p487
I3422
sS'laughed'
p488
I2405
sS'pilgrimage'
p489
I362
sS'rider'
p490
I1588
sS'pandora'
p491
I3596
sS'maiden'
p492
I703
sS'though'
p493
I293
sS'object'
p494
I831
sS'dial'
p495
I2074
sS'dulling'
p496
I2459
sS'errors'
p497
I2369
sS'mouth'
p498
I4325
sS'plenty'
p499
I3746
sS'echoes'
p500
I3520
sS'contain'
p501
I2086
sS'disarmed'
p502
I3196
sS'grave'
p503
I79
sS'shalt'
p504
I187
sS'constancy'
p505
I2486
sS'peers'
p506
I3871
sS'foist'
p507
I2790
sS'enchased'
p508
I4301
sS'flow'
p509
I1114
sS'breathes'
p510
I2160
sS'spend'
p511
I199
sS'ruthless'
p512
I3751
sS'points'
p513
I1003
sS'forsook'
p514
I4154
sS'breathed'
p515
I3069
sS'pretty'
p516
I1390
sS'sum'
p517
I138
sS'fitted'
p518
I2731
sS'reserve'
p519
I1165
sS'saying'
p520
I3079
sS'bait'
p521
I2879
sS'inspire'
p522
I3644
sS'his'
p523
I23
sS'enjoyer'
p524
I2045
sS'plagues'
p525
I625
sS'ending'
p526
I1692
sS'colors'
p527
I4182
sS'showing'
p528
I2067
sS'poison'
p529
I2722
sS'prefiguring'
p530
I2501
sS'subtle'
p531
I3580
sS'faith'
p532
I1895
sS'bail'
p533
I2026
sS'enjoyed'
p534
I2877
sS'contrained'
p535
I3919
sS'apace'
p536
I4244
sS'touches'
p537
I737
sS'acquit'
p538
I3845
sS'proposed'
p539
I2886
sS'spite'
p540
I1303
sS"woman's"
p541
I817
sS'spites'
p542
I1386
sS'cupid'
p543
I3169
sS'bush'
p544
I3976
sS'bliss'
p545
I2885
sS'touched'
p546
I735
sS'rich'
p547
I685
sS'pursuing'
p548
I2053
sS'mend'
p549
I1945
sS"'thou"
p550
I428
sS'forelock'
p551
I4184
sS'columbines'
p552
I4112
sS'borrowed'
p553
I2842
sS'do'
p554
I326
sS'blenches'
p555
I2556
sS'tongue'
p556
I740
sS'forsworn'
p557
I1893
sS'loved'
p558
I1154
sS"abode's"
p559
I3893
sS'kindling'
p560
I3307
sS'stop'
p561
I178
sS'perceive'
p562
I669
sS'leisure'
p563
I1362
sS'raiment'
p564
I880
sS'guileful'
p565
I3394
sS'gored'
p566
I2552
sS'bootless'
p567
I1080
sS'despite'
p568
I193
sS'report'
p569
I1318
sS'congealed'
p570
I3684
sS'saturn'
p571
I2406
sS'seemly'
p572
I881
sS'runs'
p573
I3038
sS'bar'
p574
I1495
sS'spilling'
p575
I3800
sS'fields'
p576
I4264
sS"o'er"
p577
I547
sS'thrusts'
p578
I1591
sS'public'
p579
I951
sS'twice'
p580
I750
sS'eyelids'
p581
I1028
sS'esteeming'
p582
I2441
sS"hate's"
p583
I1383
sS'release'
p584
I3754
sS'gentlest'
p585
I2613
sS'hasten'
p586
I1778
sS'steal'
p587
I1308
sS'thanks'
p588
I1341
sS'victors'
p589
I2238
sS'unprovident'
p590
I473
sS'penance'
p591
I2582
sS"wond'ring"
p592
I2795
sS'unrespected'
p593
I1430
sS'fair'
p594
I128
sS'habit'
p595
I2987
sS'imitate'
p596
I1918
sS'nut'
p597
I3622
sS'proclaims'
p598
I2515
sS'depends'
p599
I2311
sS'allure'
p600
I3546
sS'corrupt'
p601
I2965
sS'fain'
p602
I4352
sS'prostrate'
p603
I4007
sS'best'
p604
I529
sS'subject'
p605
I1333
sS'voyage'
p606
I4057
sS'said'
p607
I1412
sS'draws'
p608
I3554
sS'temptation'
p609
I1395
sS"bett'ring"
p610
I1163
sS'away'
p611
I516
sS'sail'
p612
I2134
sS'bier'
p613
I563
sS'prince'
p614
I4251
sS'mud'
p615
I1259
sS'score'
p616
I2779
sS'finger'
p617
I2367
sS'pebbled'
p618
I1776
sS'scorn'
p619
I1107
sS'drawn'
p620
I718
sS'sorts'
p621
I3626
sS'enlighten'
p622
I3167
sS'approach'
p623
I3967
sS'ire'
p624
I3565
sS'discovery'
p625
I3938
sS'preserve'
p626
I3103
sS'warrior'
p627
I966
sS'we'
p628
I3
sS'never'
p629
I8
sS'terms'
p630
I3094
sS'parallels'
p631
I1792
sS'extend'
p632
I4353
sS'nature'
p633
I234
sS'smelled'
p634
I4098
sS'lover'
p635
I1161
sS'weak'
p636
I1247
sS'ignorance'
p637
I2105
sS'religious'
p638
I1147
sS'authorizing'
p639
I1271
sS'disdaineth'
p640
I1219
sS'wear'
p641
I680
sS'diest'
p642
I383
sS'defiance'
p643
I3292
sS'news'
p644
I3001
sS'debt'
p645
I2184
sS'pity'
p646
I77
sS'foes'
p647
I1385
sS'goddess'
p648
I2566
sS'accident'
p649
I2799
sS'disdain'
p650
I2909
sS'fault'
p651
I1279
sS'ill'
p652
I889
sS'resounded'
p653
I3515
sS'against'
p654
I588
sS'brag'
p655
I777
sS'mildly'
p656
I3323
sS'receives'
p657
I2571
sS'faces'
p658
I733
sS'exceeds'
p659
I3143
sS'expense'
p660
I1123
sS'groans'
p661
I2904
sS'asked'
p662
I107
sS'tough'
p663
I3618
sS'vexed'
p664
I3122
sS'honouring'
p665
I2818
sS'burthen'
p666
I911
sS'vain'
p667
I3444
sS'labouring'
p668
I1761
sS'height'
p669
I675
sS'hers'
p670
I1410
sS'lowly'
p671
I3239
sS'springs'
p672
I2472
sS'trust'
p673
I905
sS'heals'
p674
I1241
sS'licentious'
p675
I3353
sS'speak'
p676
I1237
sS'helice'
p677
I3735
sS'petty'
p678
I2290
sS'unhappily'
p679
I1894
sS'puts'
p680
I1006
sS'hues'
p681
I834
sS'time-bettering'
p682
I2170
sS'foully'
p683
I3839
sS'condemned'
p684
I3766
sS'rebounded'
p685
I3519
sS'three'
p686
I2466
sS'been'
p687
I1759
sS'particulars'
p688
I2301
sS'twain'
p689
I1293
sS'much'
p690
I124
sS'afloat'
p691
I2142
sS'interest'
p692
I1149
sS'incertainty'
p693
I2660
sS'privilege'
p694
I2359
sS'canopy'
p695
I555
sS'fry'
p696
I3705
sS'lovely'
p697
I184
sS'thrice'
p698
I1719
sS'idol'
p699
I2481
sS'threw'
p700
I3076
sS'life'
p701
I433
sS"brav'ry"
p702
I1232
sS'sprite'
p703
I3216
sS'drugs'
p704
I2723
sS'sunshine'
p705
I3828
sS'pointing'
p706
I632
sS'augmenteth'
p707
I3843
sS'decrepit'
p708
I1319
sS'craft'
p709
I3579
sS'chase'
p710
I3043
sS'famine'
p711
I44
sS'dote'
p712
I3009
sS'child'
p713
I127
sS'catch'
p714
I2611
sS"ne'er-cloying"
p715
I2706
sS'doth'
p716
I206
sS'erst'
p717
I557
sS'gracious'
p718
I336
sS'applied'
p719
I3710
sS'physician'
p720
I3106
sS'overturn'
p721
I1679
sS'east'
p722
I2911
sS'sly'
p723
I3771
sS'gentle'
p724
I250
sS'persueth'
p725
I3374
sS'air'
p726
I868
sS'lesser'
p727
I2638
sS'ugly'
p728
I1202
sS'near'
p729
I1813
sS'suppose'
p730
I1731
sS'comptroll'
p731
I3362
sS'aid'
p732
I2117
sS'voice'
p733
I1946
sS'launched'
p734
I4022
sS'weakens'
p735
I902
sS"'mongst"
p736
I3524
sS'changed'
p737
I3341
sS'abhored'
p738
I3698
sS'crowning'
p739
I2662
sS'writes'
p740
I2200
sS'is'
p741
I156
sS'it'
p742
I144
sS'defeated'
p743
I849
sS'shame'
p744
I117
sS'to-morrow'
p745
I1706
sS'splendour'
p746
I1212
sS'in'
p747
I67
sS'bounteous'
p748
I222
sS'sever'
p749
I3314
sS'if'
p750
I132
sS'grown'
p751
I1169
sS'wooing'
p752
I3063
sS'memorial'
p753
I2027
sS'sap'
p754
I275
sS'descent'
p755
I4219
sS'alien'
p756
I2100
sS'cools'
p757
I3203
sS'patent'
p758
I2250
sS'suggest'
p759
I3054
sS'make'
p760
I136
sS'wound'
p761
I1240
sS"lords'"
p762
I2390
sS'who'
p763
I176
sS'beside'
p764
I899
sS'cleared'
p765
I3833
sS"th'"
p766
I243
sS'several'
p767
I2973
sS'grows'
p768
I651
sS'entitled'
p769
I1328
sS'lusty'
p770
I111
sS'fairly'
p771
I261
sS'thereof'
p772
I2132
sS'cheeks'
p773
I2181
sS'juniper'
p774
I3613
sS'lusts'
p775
I3302
sS'tops'
p776
I1189
sS'rain'
p777
I630
sS'hand'
p778
I302
sS'delight'
p779
I1307
sS'descry'
p780
I3410
sS'supposing'
p781
I2317
sS'jealous'
p782
I1730
sS"tempests'"
p783
I3789
sS'bequest'
p784
I209
sS'blamed'
p785
I1373
sS'thoughts'
p786
I1024
sS'censures'
p787
I3119
sS'kept'
p788
I460
sS'thy'
p789
I39
sS'singleness'
p790
I409
sS'askance'
p791
I2555
sS'possessed'
p792
I480
sS'humble'
p793
I2136
sS'redeem'
p794
I2417
sS'inherit'
p795
I2333
sS'doff'
p796
I3634
sS'ragged'
p797
I303
sS'thm'
p798
I3977
sS'quest'
p799
I1509
sS'greatest'
p800
I1541
sS'incapable'
p801
I2620
sS'mother'
p802
I161
sS'hearts'
p803
I1137
sS'the'
p804
I19
sS'yours'
p805
I584
sS'left'
p806
I278
sS'stelled'
p807
I926
sS'rubies'
p808
I3446
sS'therewith'
p809
I3663
sS'appease'
p810
I3566
sS'just'
p811
I2541
sS'wasteful'
p812
I688
sS'yea'
p813
I1367
sS'broom-flower'
p814
I3623
sS"poet's"
p815
I743
sS'unfair'
p816
I262
sS'repose'
p817
I1575
sS'verses'
p818
I2463
sS'maketh'
p819
I2621
sS'farther'
p820
I1061
sS'fullness'
p821
I3819
sS'swears'
p822
I2976
sS'venemous'
p823
I4329
sS'prognosticate'
p824
I647
sS'plight'
p825
I1045
sS'yet'
p826
I226
sS'succeeding'
p827
I811
sS'vices'
p828
I2354
sS'adding'
p829
I852
sS'doubting'
p830
I2047
sS'dearer'
p831
I1174
sS'compeers'
p832
I2230
sS'had'
p833
I612
sS'about'
p834
I2602
sS'presagers'
p835
I915
sS'alchemy'
p836
I1193
sS'belongs'
p837
I925
sS'prisoner'
p838
I283
sS'beloved'
p839
I474
sS'prison'
p840
I2929
sS'hap'
p841
I435
sS'pitiful'
p842
I2831
sS'save'
p843
I580
sS'gave'
p844
I527
sS"others'"
p845
I2113
sS'dignity'
p846
I2340
sS'bands'
p847
I3207
sS'looks'
p848
I350
sS'reviewest'
p849
I2029
sS'firmer'
p850
I3303
sS'birth'
p851
I1173
sS"flesh's"
p852
I3633
sS'shadow'
p853
I1036
sS'divert'
p854
I2655
sS'dreams'
p855
I1431
sS"picture's"
p856
I1496
sS'desire'
p857
I2
sS'brought'
p858
I1172
sS"feed'st"
p859
I40
sS'gift'
p860
I532
sS'new-found'
p861
I2063
sS'vilest'
p862
I1987
sS'unreave'
p863
I3578
sS'offices'
p864
I2094
sS'night'
p865
I540
sS'hung'
p866
I1039
sS'three-score'
p867
I4060
sS'loathsome'
p868
I1268
sS"hate'"
p869
I3067
sS'antique'
p870
I746
sS'right'
p871
I1497
sS'old'
p872
I134
sS'sends'
p873
I4365
sS'flatter'
p874
I1066
sS'easy'
p875
I2537
sS'deaf'
p876
I1081
sS'short-numbered'
p877
I2810
sS'dead'
p878
I1139
sS'born'
p879
I1888
sS'election'
p880
I4321
sS'mazed'
p881
I3319
sS'compassed'
p882
I4078
sS'dear'
p883
I609
sS'amiable'
p884
I3825
sS'bore'
p885
I2816
sS'unvalued'
p886
I4253
sS'creep'
p887
I2649
sS'enemies'
p888
I1055
sS'for'
p889
I169
sS'richer'
p890
I2306
sS"bosom's"
p891
I938
sS'ear'
p892
I402
sS'rehearse'
p893
I856
sS'ice'
p894
I3671
sS"bath'd"
p895
I3219
sS'foe'
p896
I51
sS'equal'
p897
I2196
sS'drudge'
p898
I3154
sS'drink'
p899
I2575
sS'unthrift'
p900
I453
sS'contented'
p901
I1091
sS'knew'
p902
I2642
sS'bold'
p903
I2781
sS'burn'
p904
I794
sS'faery'
p905
I4276
sS'monsters'
p906
I2626
sS'revived'
p907
I3813
sS'shifting'
p908
I826
sS'gladly'
p909
I393
sS'losing'
p910
I1425
sS'all-tyrant'
p911
I3130
sS'peep'
p912
I944
sS'disdains'
p913
I172
sS'shaken'
p914
I2671
sS'takes'
p915
I579
sS'trophy'
p916
I4174
sS'theirs'
p917
I828
sS'coral'
p918
I2888
sS'haply'
p919
I1097
sS'frailer'
p920
I2763
sS'o'
p921
I491
sS'whilest'
p922
I3877
sS'despair'
p923
I3002
sS'cherish'
p924
I530
sS'own'
p925
I29
sS'commit'
p926
I2088
sS'lacked'
p927
I1640
sS'worthily'
p928
I4165
sS'sprites'
p929
I4311
sS'firbloom'
p930
I3617
sS'raised'
p931
I3145
sS'contains'
p932
I2035
sS'issueless'
p933
I436
sS'presence'
p934
I495
sS'civil'
p935
I1287
sS'pays'
p936
I2123
sS'nought'
p937
I659
sS'bound'
p938
I1738
sS'son'
p939
I380
sS'down'
p940
I1481
sS'lies'
p941
I41
sS'refined'
p942
I2219
sS"pour'st"
p943
I1335
sS'often'
p944
I765
sS'strangely'
p945
I1560
sS"virtue's"
p946
I4235
sS'despised'
p947
I1330
sS'suffice'
p948
I3742
sS'jealousy'
p949
I1806
sS'sovereign'
p950
I1188
sS'fight'
p951
I964
sS'forhead'
p952
I3451
sS'virgin'
p953
I3197
sS'victorious'
p954
I3670
sS'way'
p955
I375
sS'call'
p956
I507
sS'was'
p957
I287
sS'war'
p958
I391
sS'happy'
p959
I416
sS'lowest'
p960
I4046
sS'starve'
p961
I4361
sS'head'
p962
I341
sS'faring'
p963
I890
sS'form'
p964
I155
sS'offer'
p965
I3366
sS'something'
p966
I2223
sS'crown'
p967
I2511
sS'becoming'
p968
I2852
sS'sundry'
p969
I4054
sS'forgetful'
p970
I2418
sS'fore'
p971
I374
sS'heinous'
p972
I804
sS'pricked'
p973
I853
sS'heat'
p974
I556
sS'hear'
p975
I388
sS'odours'
p976
I1667
sS'astonished'
p977
I2231
sS'blindness'
p978
I3166
sS'removed'
p979
I977
sS'true'
p980
I401
sS'continuance'
p981
I3500
sS'absent'
p982
I1391
sS'lilies'
p983
I2345
sS'humbled'
p984
I3360
sS'builds'
p985
I4132
sS'captive'
p986
I1912
sS'extremity'
p987
I1603
sS"for't"
p988
I2437
sS'bids'
p989
I1524
sS'bounds'
p990
I4066
sS'until'
p991
I1486
sS'crystal'
p992
I1499
sS'unfathered'
p993
I2396
sS'adore'
p994
I360
sS'anew'
p995
I2168
sS'engraft'
p996
I690
sS'bide'
p997
I1743
sS'latch'
p998
I2608
sS'temper'
p999
I3804
sS'adorn'
p1000
I3660
sS'trim'
p1001
I2401
sS'prayed'
p1002
I4268
sS'proud'
p1003
I96
sS'disgrace'
p1004
I1076
sS"deriv'd"
p1005
I4220
sS'fury'
p1006
I2414
sS'sinful'
p1007
I2461
sS'mirror'
p1008
I3320
sS'steep-up'
p1009
I354
sS"beauty's"
p1010
I11
sS'encage'
p1011
I4213
sS'huswife'
p1012
I3039
sS'sometime'
p1013
I761
sS'subsist'
p1014
I2774
sS'prayer'
p1015
I3384
sS'shines'
p1016
I759
sS'reproving'
p1017
I3023
sS'injurious'
p1018
I1447
sS'posting'
p1019
I1602
sS'willingly'
p1020
I2001
sS'pipe'
p1021
I2449
sS'rough'
p1022
I757
sS'faithful'
p1023
I3666
sS'dying'
p1024
I3098
sS'no'
p1025
I289
sS'boldly'
p1026
I4247
sS'ambrosial'
p1027
I3821
sS'excel'
p1028
I260
sS"lov'st"
p1029
I395
sS'actor'
p1030
I896
sS'thriftless'
p1031
I116
sS'despising'
p1032
I1093
sS'falsely'
p1033
I3118
sS"renew'th"
p1034
I3369
sS'papers'
p1035
I739
sS'tie'
p1036
I1979
sS'vanished'
p1037
I1122
sS'smell'
p1038
I1957
sS'eternity'
p1039
I2084
sS'picture'
p1040
I1523
sS'intend'
p1041
I1026
sS'phoenix'
p1042
I792
sS'delivered'
p1043
I2090
sS'dies'
p1044
I196
sS'why'
p1045
I200
sS'welcome'
p1046
I1720
sS'first-born'
p1047
I864
sS'present-absent'
p1048
I1476
sS'journey'
p1049
I1017
sS'intent'
p1050
I3375
sS'reign'
p1051
I1053
sS'budded'
p1052
I4106
sS'wounded'
p1053
I2753
sS'rolling'
p1054
I827
sS'chopt'
p1055
I1825
sS'hurt'
p1056
I2331
sS'died'
p1057
I1180
sS'wrackful'
p1058
I1874
sS'warn'
p1059
I3692
sS'to-day'
p1060
I1703
sS'longer'
p1061
I585
sS'blushing'
p1062
I2863
sS'outwent'
p1063
I4062
sS'daily'
p1064
I1071
sS'miseries'
p1065
I3758
sS'loyal'
p1066
I4129
sS'cheater'
p1067
I3148
sS'teeth'
p1068
I790
sS'controlling'
p1069
I833
sS'erred'
p1070
I2974
sS'restored'
p1071
I1135
sS'songs'
p1072
I2482
sS'deface'
p1073
I301
sS'chain'
p1074
I3849
sS'whoever'
p1075
I2949
sS'rob'
p1076
I3490
sS"perceiv'st"
p1077
I2023
sS'souls'
p1078
I838
sS'vermilion'
p1079
I2411
sS'engrafted'
p1080
I1329
sS'leads'
p1081
I264
sS'continual'
p1082
I2797
sS'mild'
p1083
I3413
sS'mile'
p1084
I4355
sS'comments'
p1085
I2209
sS'battle'
p1086
I3370
sS'idolatry'
p1087
I2480
sS'abundant'
p1088
I2394
sS'disobeys'
p1089
I3525
sS'needeth'
p1090
I3426
sS'retention'
p1091
I2778
sS'adamant'
p1092
I3850
sS'praises'
p1093
I2206
sS'fancies'
p1094
I4267
sS'april'
p1095
I183
sS'father'
p1096
I611
sS'pen'
p1097
I710
sS'vex'
p1098
I2313
sS'blissing'
p1099
I4134
sS'amaze'
p1100
I3459
sS'charge'
p1101
I3089
sS'praised'
p1102
I2221
sS'excellect'
p1103
I3951
sS'terror'
p1104
I3690
sS'suffered'
p1105
I2745
sS'ride'
p1106
I1196
sS'furrows'
p1107
I877
sS'me'
p1108
I499
sS'strumpeted'
p1109
I1899
sS'string'
p1110
I411
sS'advantage'
p1111
I1852
sS'buriest'
p1112
I63
sS'denied'
p1113
I3036
sS'none'
p1114
I478
sS'votary'
p1115
I3193
sS'mourn'
p1116
I1982
sS'lest'
p1117
I1313
sS'advised'
p1118
I1557
sS'locked'
p1119
I1545
sS'trouble'
p1120
I1082
sS'brows'
p1121
I4107
sS'feeble'
p1122
I370
sS'minute'
p1123
I4356
sS'cool'
p1124
I3199
sS"soul's"
p1125
I996
sS'perceived'
p1126
I2477
sS'clouds'
p1127
I1064
sS'nectar'
p1128
I3822
sS'level'
p1129
I2694
sS'did'
p1130
I248
sS'die'
p1131
I7
sS'dig'
p1132
I91
sS"best'"
p1133
I2658
sS'cloudy'
p1134
I3736
sS'temple'
p1135
I3562
sS'leave'
p1136
I235
sS'settle'
p1137
I3883
sS'excellence'
p1138
I2338
sS'quick'
p1139
I1684
sS'woven'
p1140
I4194
sS'round'
p1141
I3447
sS'enlumined'
p1142
I4147
sS'prevent'
p1143
I2701
sS'brave'
p1144
I542
sS'says'
p1145
I1504
sS'fearing'
p1146
I2657
sS"offender's"
p1147
I1249
sS'double-vantage'
p1148
I2263
sS'sigh'
p1149
I1112
sS'feeling'
p1150
I2758
sS'wherefore'
p1151
I692
sS'cost'
p1152
I1846
sS'dried'
p1153
I3304
sS'run'
p1154
I1616
sS'tempest'
p1155
I3797
sS'drinks'
p1156
I2632
sS'hymn'
p1157
I2218
sS"fleet'st"
p1158
I795
sS'curse'
p1159
I1084
sS'stately'
p1160
I4169
sS'assistance'
p1161
I2098
sS'contracted'
p1162
I32
sS'favour'
p1163
I948
sS'debate'
p1164
I2273
sS'health'
p1165
I1491
sS'suspect'
p1166
I1964
sS'spurring'
p1167
I1596
sS'goes'
p1168
I1779
sS'view'
p1169
I1034
sS'guilt'
p1170
I1311
sS'aswagement'
p1171
I3755
sS'appeal'
p1172
I2697
sS'badge'
p1173
I3642
sS'filled'
p1174
I724
sS'fragrant'
p1175
I2346
sS'unsure'
p1176
I3604
sS"april's"
p1177
I865
sS'prescriptions'
p1178
I3107
sS'wail'
p1179
I440
sS'heavily'
p1180
I1128
sS'honour'
p1181
I603
sS'clerk'
p1182
I2214
sS'learn'
p1183
I922
sS'agreement'
p1184
I3757
sS'water'
p1185
I1464
sS'entertain'
p1186
I1364
sS'governs'
p1187
I2603
sS'address'
p1188
I3368
sS'alone'
p1189
I229
sS'appears'
p1190
I2457
sS'change'
p1191
I488
sS'blunter'
p1192
I1699
sS'boy'
p1193
I2529
sS'enroll'
p1194
I3363
sS'stormy'
p1195
I605
sS'flames'
p1196
I3310
sS'my'
p1197
I135
sS'eke'
p1198
I3485
sS'guilty'
p1199
I2567
sS'bow'
p1200
I2276
sS'spheres'
p1201
I2732
sS'homeward'
p1202
I3955
sS'recounting'
p1203
I1490
sS'treasure'
p1204
I112
sS'love'
p1205
I465
sS'humour'
p1206
I2299
sS'tempteth'
p1207
I3059
sS'robs'
p1208
I1290
sS'bearing'
p1209
I888
sS'paragon'
p1210
I4138
sS'bloody'
p1211
I694
sS'withal'
p1212
I3182
sS'charming'
p1213
I3492
sS'betraying'
p1214
I3149
sS'world-without-end'
p1215
I1724
sS'surmount'
p1216
I1820
sS'swallowed'
p1217
I2880
sS'disguising'
p1218
I3986
sS'sky'
p1219
I670
sS"suff'ring"
p1220
I1422
sS"o'erworn"
p1221
I1831
sS"th'importune"
p1222
I3581
sS'wealth'
p1223
I1105
sS'prove'
p1224
I426
sS'sake'
p1225
I1420
sS'confounded'
p1226
I1859
sS'angry'
p1227
I3108
sS'give'
p1228
I219
sS'visit'
p1229
I4313
sS'tears'
p1230
I1255
sS'by'
p1231
I16
sS'wrongs'
p1232
I1389
sS'live'
p1233
I195
sS'going'
p1234
I1615
sS'prey'
p1235
I1543
sS'memory'
p1236
I22
sS'scope'
p1237
I1088
sS'angels'
p1238
I3333
sS'loving'
p1239
I1004
sS"love's"
p1240
I806
sS'dismay'
p1241
I3436
sS'love-god'
p1242
I3187
sS'riot'
p1243
I1405
sS'sessions'
p1244
I1108
sS'towers'
p1245
I1849
sS'share'
p1246
I1527
sS'acceptable'
p1247
I237
sS"strength's"
p1248
I903
sS'fuel'
p1249
I34
sS'drown'
p1250
I1115
sS'everywhere'
p1251
I2383
sS'virtue'
p1252
I1665
sS"danger's"
p1253
I4357
sS'stain'
p1254
I1222
sS'epitaph'
p1255
I2151
sS'fly'
p1256
I2103
sS'honey'
p1257
I1871
sS'lengths'
p1258
I1461
sS'sheds'
p1259
I1253
sS'decked'
p1260
I4265
sS'well-seeing'
p1261
I3128
sS'deformed'
p1262
I3889
sS'car'
p1263
I364
sS'soul'
p1264
I1816
sS'purge'
p1265
I2702
sS'hardest'
p1266
I2362
sS'sour'
p1267
I1363
sS'can'
p1268
I575
sS'believed'
p1269
I3005
sS'making'
p1270
I46
sS"prevent'st"
p1271
I2428
sS'arrive'
p1272
I4091
sS'laughter'
p1273
I3507
sS'deceased'
p1274
I1162
sS'breeds'
p1275
I2569
sS'spy'
p1276
I3470
sS'dedicated'
p1277
I2164
sS'hooks'
p1278
I2968
sS"servant's"
p1279
I3090
sS'respose'
p1280
I1016
sS'figure'
p1281
I2478
sS'predict'
p1282
I635
sS'gillyflowers'
p1283
I4103
sS'distillation'
p1284
I279
sS'confused'
p1285
I3481
sS'heard'
p1286
I2792
sS'critic'
p1287
I2599
sS'purity'
p1288
I3062
sS'hides'
p1289
I727
sS"mak'st"
p1290
I69
sS'provoke'
p1291
I1589
sS'stole'
p1292
I2124
sS'churls'
p1293
I1955
sS'noyous'
p1294
I4349
sS'winter'
p1295
I269
sS'allege'
p1296
I1572
sS'divided'
p1297
I1356
sS'spreads'
p1298
I3293
sS'vainly'
p1299
I2980
sS'pine'
p1300
I2056
sS"lour'st"
p1301
I3134
sS'write'
p1302
I728
sS'till'
p1303
I848
sS'ransom'
p1304
I1257
sS'sword'
p1305
I1686
sS'familiar'
p1306
I2234
sS'husbandry'
p1307
I170
sS'sworn'
p1308
I3115
sS'limbecks'
p1309
I2727
sS"eye's"
p1310
I1514
sS'map'
p1311
I1930
sS'mar'
p1312
I2462
sS'where-through'
p1313
I942
sS"spider's"
p1314
I3588
sS'coming'
p1315
I587
sS'peerless'
p1316
I4175
sS'may'
p1317
I446
sS'sacrifice'
p1318
I3569
sS'use'
p1319
I121
sS'spot'
p1320
I2348
sS'lamping'
p1321
I3215
sS'brazen'
p1322
I4131
sS'tipped'
p1323
I4328
sS'mad'
p1324
I2882
sS'date'
p1325
I648
sS'end'
p1326
I456
sS'hateth'
p1327
I3131
sS'flourish'
p1328
I1790
sS'grow'
p1329
I573
sS'man'
p1330
I836
sS'temperate'
p1331
I752
sS'branches'
p1332
I3616
sS'neck'
p1333
I2905
sS'liquid'
p1334
I284
sS'beam'
p1335
I4073
sS'candles'
p1336
I872
sS'needy'
p1337
I1892
sS'darkened'
p1338
I3891
sS'so'
p1339
I94
sS'glancing'
p1340
I3464
sS'deceive'
p1341
I232
sS'thorns'
p1342
I1262
sS'tall'
p1343
I2150
sS'truce'
p1344
I3387
sS"victor's"
p1345
I3210
sS'augurs'
p1346
I2510
sS'tormenteth'
p1347
I3840
sS'serving'
p1348
I351
sS'shield'
p1349
I3957
sS'receivest'
p1350
I1369
sS'food'
p1351
I2037
sS'indeed'
p1352
I1822
sS'forfeit'
p1353
I2506
sS'displayed'
p1354
I4179
sS'years'
p1355
I1393
sS'course'
p1356
I768
sS'pitch'
p1357
I366
sS'cold'
p1358
I143
sS'still'
p1359
I296
sS'blooded'
p1360
I3541
sS'birds'
p1361
I2008
sS'trifle'
p1362
I1535
sS'solitary'
p1363
I3962
sS'limbs'
p1364
I1015
sS'derive'
p1365
I637
sS'odour'
p1366
I1656
sS'solace'
p1367
I3966
sS'acknowledge'
p1368
I1309
sS'muses'
p1369
I2211
sS'spur'
p1370
I1590
sS'mantle'
p1371
I3272
sS'curls'
p1372
I549
sS"offence's"
p1373
I1251
sS'forms'
p1374
I4075
sS'maid'
p1375
I3171
sS'spacious'
p1376
I2953
sS"play'st"
p1377
I2853
sS'policy'
p1378
I2714
sS"stol'n"
p1379
I1146
sS'troubled'
p1380
I3984
sS'style'
p1381
I1183
sS'conquest'
p1382
I333
sS'correspondence'
p1383
I3116
sS'prime'
p1384
I181
sS'truest'
p1385
I1534
sS'equipage'
p1386
I1175
sS'thereby'
p1387
I12
sS'quod'
p1388
I4231
sS'sooner'
p1389
I2876
sS'delighted'
p1390
I3011
sS'records'
p1391
I2796
sS'flint'
p1392
I3501
sS'coat-armor'
p1393
I4180
sS'half'
p1394
I726
sS'not'
p1395
I158
sS'sorted'
p1396
I4145
sS'bath'
p1397
I3177
sS'twilight'
p1398
I2012
sS'mantleth'
p1399
I4206
sS'nor'
p1400
I290
sS'wont'
p1401
I2445
sS"phoebus'"
p1402
I3646
sS'term'
p1403
I2310
sS'name'
p1404
I1315
sS'servant'
p1405
I1728
sS'frank'
p1406
I215
sS'drop'
p1407
I2279
sS'arrows'
p1408
I3466
sS'covetize'
p1409
I3740
sS'careless'
p1410
I3798
sS'craftily'
p1411
I3777
sS'cordials'
p1412
I3941
sS'veins'
p1413
I1921
sS'seldom'
p1414
I1621
sS'whenas'
p1415
I3726
sS'eyelid'
p1416
I3827
sS'surfeit'
p1417
I2055
sS"another's"
p1418
I1941
sS'worthier'
p1419
I2120
sS'receipt'
p1420
I2960
sS'long-while'
p1421
I3338
sS'richly'
p1422
I2208
sS'fever'
p1423
I2733
sS'farewell'
p1424
I2241
sS'yield'
p1425
I2154
sS'begun'
p1426
I3583
sS'year'
p1427
I518
sS'hymns'
p1428
I1102
sS'summon'
p1429
I1109
sS'despight'
p1430
I3881
sS'living'
p1431
I329
sS'shown'
p1432
I1951
sS'mouths'
p1433
I2159
sS'space'
p1434
I1448
sS'profit'
p1435
I2096
sS'medicine'
p1436
I2717
sS'astray'
p1437
I3727
sS'increase'
p1438
I1
sS'nurse'
p1439
I892
sS'contained'
p1440
I3321
sS'miles'
p1441
I1460
sS'misseth'
p1442
I4185
sS'bless'
p1443
I4297
sS'grecian'
p1444
I1652
sS'receiving'
p1445
I1468
sS'correct'
p1446
I2581
sS'assurance'
p1447
I3854
sS'shows'
p1448
I658
sS'END'
p1449
I0
sS'worthiness'
p1450
I1639
sS'older'
p1451
I2560
sS'siege'
p1452
I1873
sS'cars'
p1453
I3014
sS'sweet-seasoned'
p1454
I2040
sS'spies'
p1455
I2762
sS'wits'
p1456
I1772
sS'godess'
p1457
I3571
sS'rebel'
p1458
I3084
sS'plea'
p1459
I1285
sS"feel'st"
p1460
I145
sS'care'
p1461
I1542
sS'advance'
p1462
I2116
sS"age's"
p1463
I1835
sS'contemplation'
p1464
I4286
sS'embassage'
p1465
I985
sS"widow's"
p1466
I430
sS'wilful-slow'
p1467
I1613
sS'kingdoms'
p1468
I1981
sS'honest'
p1469
I3165
sS'motion'
p1470
I1474
sS'gusts'
p1471
I604
sS'fetters'
p1472
I3786
sS'thine'
p1473
I30
sS'place'
p1474
I307
sS'recompense'
p1475
I917
sS'envied'
p1476
I3277
sS'slaying'
p1477
I3764
sS'sufferance'
p1478
I1744
sS'widow'
p1479
I442
sS'star'
p1480
I999
sS'think'
p1481
I1096
sS'frequent'
p1482
I2687
sS'first'
p1483
I842
sS'blind'
p1484
I1030
sS'langour'
p1485
I3942
sS'saving'
p1486
I3750
sS'mayst'
p1487
I508
sS'faculty'
p1488
I2775
sS'transform'
p1489
I3651
sS'nativity'
p1490
I1784
sS'consecrate'
p1491
I2030
sS'amidst'
p1492
I4012
sS'directly'
p1493
I3065
sS'habitation'
p1494
I2357
sS'carry'
p1495
I2025
sS'ill-used'
p1496
I2361
sS'array'
p1497
I3082
sS'tame'
p1498
I1745
sS'open'
p1499
I1027
sS'affords'
p1500
I2216
sS'millions'
p1501
I1644
sS'interchange'
p1502
I1858
sS'given'
p1503
I220
sS'greediness'
p1504
I4001
sS'checked'
p1505
I274
sS'wrath'
p1506
I3380
sS'thankless'
p1507
I3637
sS'breed'
p1508
I316
sS'dressed'
p1509
I2402
sS'steep'
p1510
I3172
sS'chastity'
p1511
I4176
sS'plaint'
p1512
I3506
sS'bounty'
p1513
I531
sS'white'
p1514
I546
sS'utmost'
p1515
I1554
sS"tiger's"
p1516
I788
sS'friend'
p1517
I1133
sS'gives'
p1518
I208
sS'hue'
p1519
I835
sS'eyes'
p1520
I27
sS'pomp'
p1521
I2802
sS'grant'
p1522
I475
sS'blazon'
p1523
I2498
sS'that'
p1524
I13
sS'brains'
p1525
I1758
sS"men's"
p1526
I839
sS'proving'
p1527
I140
sS'alas'
p1528
I2548
sS'annoy'
p1529
I396
sS'eyed'
p1530
I2465
sS'girded'
p1531
I559
sS'jasmines'
p1532
I4116
sS'copy'
p1533
I536
sS'than'
p1534
I322
sS"here's"
p1535
I1427
sS'eyen'
p1536
I3393
sS'mow'
p1537
I1796
sS'wide'
p1538
I802
sS'feeds'
p1539
I1795
sS'wert'
p1540
I843
sS'require'
p1541
I1722
sS'folly'
p1542
I512
sS'transferred'
p1543
I2975
sS'apples'
p1544
I4254
sS'were'
p1545
I120
sS'lillies'
p1546
I4115
sS'carcanet'
p1547
I1630
sS'wandering'
p1548
I3852
sS'and'
p1549
I61
sS'rend'
p1550
I3586
sS'angel'
p1551
I3055
sS'slay'
p1552
I2990
sS'correction'
p1553
I2580
sS'confessed'
p1554
I2934
sS'turned'
p1555
I2471
sS'argument'
p1556
I1337
sS'jewels'
p1557
I1540
sS'voices'
p1558
I2596
sS'entombed'
p1559
I2155
sS'worms'
p1560
I332
sS'say'
p1561
I114
sS'perfumes'
p1562
I2476
sS'buried'
p1563
I960
sS'foiled'
p1564
I968
sS'anger'
p1565
I1592
sS'cheek'
p1566
I1649
sS'pityless'
p1567
I4006
sS'pry'
p1568
I1802
sS'any'
p1569
I470
sS'bee'
p1570
I4188
sS'elsewhere'
p1571
I1811
sS'defaced'
p1572
I1844
sS'describe'
p1573
I1646
sS'warriors'
p1574
I4168
sS'mourners'
p1575
I2849
sS'aside'
p1576
I2059
sS'purest'
p1577
I1896
sS'note'
p1578
I419
sS'wretch'
p1579
I1585
sS'take'
p1580
I1316
sS'resembling'
p1581
I359
sS'wanting'
p1582
I991
sS'blunt'
p1583
I782
sS'heal'
p1584
I3946
sS'flattered'
p1585
I2988
sS'urge'
p1586
I2698
sS'begin'
p1587
I2640
sS'sure'
p1588
I1537
sS'altered'
p1589
I2319
sS'theatre'
p1590
I3980
sS'sledge'
p1591
I3703
sS'tallies'
p1592
I2780
sS'price'
p1593
I3385
sS'keeps'
p1594
I716
sS'clearer'
p1595
I1438
sS'paid'
p1596
I1132
sS'remover'
p1597
I2668
sS'unkindness'
p1598
I2743
sS'boiling'
p1599
I3678
sS'render'
p1600
I2835
sS'entreaty'
p1601
I3505
sS'flatterer'
p1602
I2598
sS'tract'
p1603
I376
sS'clatter'
p1604
I4323
sS'coveted'
p1605
I3625
sS'winters'
p1606
I85
sS'forever'
p1607
I4222
sS'garments'
p1608
I2295
sS'later'
p1609
I4234
sS'steady'
p1610
I4049
sS'hungry'
p1611
I1709
sS'fordone'
p1612
I4277
sS'wing'
p1613
I2106
sS"perfect'st"
p1614
I1608
sS'massacres'
p1615
I3359
sS'sunset'
p1616
I2015
sS'amis'
p1617
I1760
sS'glutton'
p1618
I72
sS'pattern'
p1619
I812
sS'perfumed'
p1620
I1660
sS'review'
p1621
I2028
sS'laws'
p1622
I1570
sS'shop'
p1623
I937
sS'shot'
p1624
I4023
sS'tempered'
p1625
I3542
sS'show'
p1626
I299
sS'taketh'
p1627
I3539
sS'cheap'
p1628
I2550
sS'merit'
p1629
I984
sS'trespass'
p1630
I1270
sS'bright'
p1631
I28
sS'unseeing'
p1632
I1440
sS'scarce'
p1633
I3772
sS'tend'
p1634
I1642
sS'ground'
p1635
I2038
sS'amearst'
p1636
I4186
sS'unstayed'
p1637
I4034
sS'slow'
p1638
I1466
sS'woos'
p1639
I1398
sS'unkind'
p1640
I2739
sS'stair'
p1641
I4042
sS'title'
p1642
I1506
sS'warlike'
p1643
I3960
sS'stained'
p1644
I2545
sS'storms'
p1645
I3896
sS'cloak'
p1646
I1226
sS'crime'
p1647
I803
sS'staid'
p1648
I4183
sS'only'
p1649
I60
sS'wood'
p1650
I2854
sS'black'
p1651
I1041
sS'dispise'
p1652
I3763
sS'partake'
p1653
I3129
sS'deign'
p1654
I3214
sS'robe'
p1655
I1632
sS'shrill'
p1656
I3512
sS'hindmost'
p1657
I2224
sS'renewest'
p1658
I157
sS'get'
p1659
I381
sS"'tis"
p1660
I930
sS'lighten'
p1661
I3339
sS'between'
p1662
I4197
sS'expectation'
p1663
I4351
sS'truly'
p1664
I870
sS'whiles'
p1665
I3355
sS'loath'
p1666
I3748
sS'cannot'
p1667
I1343
sS"world's"
p1668
I54
sS'import'
p1669
I2784
sS'dye'
p1670
I1657
sS'clearest'
p1671
I4358
sS'closure'
p1672
I1547
sS'reveal'
p1673
I3945
sS'lame'
p1674
I1323
sS"viper's"
p1675
I3231
sS'floods'
p1676
I4010
sS'orphans'
p1677
I2397
sS"t'accuse"
p1678
I4067
sS'seeting'
p1679
I3178
sS'morning'
p1680
I1185
sS'naked'
p1681
I995
sS'stupid'
p1682
I3862
sS'ruddy'
p1683
I4104
sS'baits'
p1684
I3904
sS'through'
p1685
I190
sS'unwares'
p1686
I3594
sS'where'
p1687
I43
sS'husband'
p1688
I410
sS'beholding'
p1689
I3983
sS'seas'
p1690
I3791
sS'signs'
p1691
I1932
sS'up'
p1692
I343
sS"fortune's"
p1693
I1322
sS'asleep'
p1694
I3168
sS'expiate'
p1695
I878
sS'successive'
p1696
I2840
sS'seal'
p1697
I534
sS'salutation'
p1698
I2761
sS'jot'
p1699
I4021
sS'sport'
p1700
I2350
sS'budding'
p1701
I2347
sS'culver'
p1702
I4363
sS'wonder'
p1703
I1768
sS'youself'
p1704
I4193
sS'planet'
p1705
I4055
sS'invoked'
p1706
I2097
sS'tongue-tied'
p1707
I1907
sS'sorely'
p1708
I3901
sS'steadfast'
p1709
I3953
sS'compounds'
p1710
I2061
sS'crooked'
p1711
I1788
sS'sourest'
p1712
I2342
sS'dateless'
p1713
I1116
sS'ornament'
p1714
I52
sS'slander'
p1715
I1967
sS'colours'
p1716
I3483
sS'glorious'
p1717
I1186
sS'behind'
p1718
I443
sS'departest'
p1719
I503
sS'complexion'
p1720
I763
sS'sable'
p1721
I550
sS'refreshed'
p1722
I4280
sS'impure'
p1723
I3548
sS'enjoys'
p1724
I454
sS'presage'
p1725
I2509
sS'untainted'
p1726
I810
sS'forsake'
p1727
I569
sS'lays'
p1728
I2407
sS'eye'
p1729
I253
sS'reascend'
p1730
I4350
sS'discloses'
p1731
I1663
sS'pluck'
p1732
I613
sS'pained'
p1733
I3916
sS'blame'
p1734
I1371
sS'countenance'
p1735
I2239
sS'disdainful'
p1736
I3655
sS'reigns'
p1737
I1142
sS'spark'
p1738
I3297
sS'comb'
p1739
I4331
sS'come'
p1740
I719
sS'grieved'
p1741
I1258
sS'dates'
p1742
I2789
sS'many'
p1743
I422
sS'region'
p1744
I1218
sS'priests'
p1745
I3563
sS'quiet'
p1746
I1044
sS'called'
p1747
I1558
sS'sustain'
p1748
I3236
sS'inward'
p1749
I714
sS'dwellers'
p1750
I2823
sS'awards'
p1751
I3022
sS'fa&edry'
p1752
I3713
sS"sea's"
p1753
I859
sS'duty'
p1754
I983
sS'among'
p1755
I568
sS'unthrifts'
p1756
I610
sS'madness'
p1757
I3003
sS'afterwards'
p1758
I2643
sS'moly'
p1759
I3624
sS'unthrifty'
p1760
I202
sS'mightiest'
p1761
I3924
sS'unquiet'
p1762
I3225
sS'dispatch'
p1763
I3042
sS'eisel'
p1764
I2577
sS'slain'
p1765
I893
sS'lothsome'
p1766
I3416
sS'stretched'
p1767
I748
sS'learning'
p1768
I2078
sS'proved'
p1769
I2557
sS'endeavor'
p1770
I4284
sS'famished'
p1771
I1519
sS'consider'
p1772
I653
sS'boat'
p1773
I2145
sS'doctor-like'
p1774
I1908
sS'season'
p1775
I3558
sS'arts'
p1776
I2115
sS'profitless'
p1777
I224
sS"starv'd"
p1778
I3747
sS'self-doing'
p1779
I1752
sS'fleeting'
p1780
I2380
sS"ulysses'"
p1781
I3574
sS'absence'
p1782
I1361
sS'mark'
p1783
I412
sS'breath'
p1784
I1664
sS'subscribes'
p1785
I2518
sS"self's"
p1786
I595
sS'beams'
p1787
I2631
sS'mars'
p1788
I1687
sS'dumps'
p1789
I3969
sS'informer'
p1790
I2836
sS'hardly'
p1791
I3479
sS'wants'
p1792
I4372
sS'spare'
p1793
I4024
sS'straying'
p1794
I1404
sS'robbed'
p1795
I3031
sS'thousand'
p1796
I971
sS'blessing'
p1797
I2165
sS'wretched'
p1798
I2308
sS'wounds'
p1799
I4019
sS'shined'
p1800
I3337
sS'tiger'
p1801
I4002
sS'nobler'
p1802
I3151
sS'spills'
p1803
I3585
sS'wake'
p1804
I1812
sS'external'
p1805
I1654
sS'turn'
p1806
I2343
sS'frantic-mad'
p1807
I3112
sS'masonry'
p1808
I1681
sS'careful'
p1809
I1532
sS'spirit'
p1810
I1712
sS'those'
p1811
I213
sS'sound'
p1812
I2896
sS'clears'
p1813
I3125
sS'myself'
p1814
I3401
sS'enfold'
p1815
I3776
sS'rarities'
p1816
I1794
sS'these'
p1817
I1095
sS'sheaves'
p1818
I558
sS'mount'
p1819
I4199
sS'chace'
p1820
I3652
sS'woxen'
p1821
I3229
sS'compile'
p1822
I2111
sS'cast'
p1823
I1555
sS'warning'
p1824
I1986
sS'graven'
p1825
I2423
sS'cancelled'
p1826
I1120
sS'situation'
p1827
I2869
sS'endured'
p1828
I2507
sS'hunts'
p1829
I4003
sS'invited'
p1830
I3016
sS'anchored'
p1831
I2967
sS'bathe'
p1832
I4207
sS'determination'
p1833
I593
sS"t'achieve"
p1834
I3952
sS'brow'
p1835
I82
sS'gluttoning'
p1836
I2057
sS'middle'
p1837
I356
sS'sudden'
p1838
I3970
sS'embrace'
p1839
I3610
sS'limping'
p1840
I1905
sS'argue'
p1841
I4272
sS'commanded'
p1842
I3138
sS'pinks'
p1843
I4110
sS'awhile'
p1844
I4278
sS'fulfilled'
p1845
I4056
sS'different'
p1846
I2408
sS'eye-glances'
p1847
I3489
sS'harsh'
p1848
I526
sS"tyrants'"
p1849
I2523
sS'strains'
p1850
I2292
sS'inquire'
p1851
I3635
sS'pay'
p1852
I314
sS'freewill'
p1853
I3357
sS'same'
p1854
I256
sS'check'
p1855
I1742
sS'shifts'
p1856
I455
sS'thralls'
p1857
I3696
sS'weakness'
p1858
I2257
sS'streams'
p1859
I1194
sS"'truth"
p1860
I2435
sS'noble'
p1861
I3872
sS'wires'
p1862
I2892
sS'decay'
p1863
I511
sS'sickness'
p1864
I2703
sS'tyrannous'
p1865
I2899
sS'defy'
p1866
I2793
sS'drives'
p1867
I3553
sS'weed'
p1868
I102
sS'fruit'
p1869
I2395
sS'scorned'
p1870
I742
sS'extern'
p1871
I2819
sS'changing'
p1872
I769
sS'weep'
p1873
I441
sS"slander's"
p1874
I1963
sS'clogged'
p1875
I4201
sS'vowed'
p1876
I3190
sS'weave'
p1877
I3271
sS'complained'
p1878
I3922
sS'purer'
p1879
I3342
sS'woodbine'
p1880
I4195
sS'plaints'
p1881
I3437
sS'dear-purchased'
p1882
I2688
sS'throned'
p1883
I2366
sS'floor'
p1884
I3529
sS'costs'
p1885
I2303
sS'relief'
p1886
I1246
sS'trains'
p1887
I3902
sS'very'
p1888
I257
sS'reward'
p1889
I4342
sS'extermities'
p1890
I3760
sS'amazed'
p1891
I3249
sS'justify'
p1892
I2989
sS'distills'
p1893
I1669
sS'summer'
p1894
I263
sS'desolate'
p1895
I4014
sS'manifold'
p1896
I3455
sS'ransoms'
p1897
I2756
sS'fester'
p1898
I2344
sS'being'
p1899
I108
sS'when'
p1900
I87
sS'weeds'
p1901
I1956
sS'sights'
p1902
I4316
sS'shamefully'
p1903
I1898
sS'over-plus'
p1904
I2950
sS"abondon'd"
p1905
I3423
sS'imprint'
p1906
I2075
sS'bareness'
p1907
I276
sS'wrecks'
p1908
I3609
sS'cease'
p1909
I514
sS'vanquished'
p1910
I3659
sS'aspect'
p1911
I1001
sS'kind-hearted'
p1912
I496
sS'touch'
p1913
I3180
sS'speed'
p1914
I1587
sS'guides'
p1915
I998
sS'captured'
p1916
I4209
sS'blow'
p1917
I2807
sS'renewed'
p1918
I2574
sS'unwooed'
p1919
I1666
sS'thinking'
p1920
I1992
sS'rose'
p1921
I10
sS'seems'
p1922
I2467
sS"summer's"
p1923
I280
sS"summers'"
p1924
I2468
sS'instrument'
p1925
I3979
sS'verse'
p1926
I720
sS'setting'
p1927
I4306
sS'suppressed'
p1928
I2984
sS'astonishment'
p1929
I3251
sS'dully'
p1930
I1583
sS'valley-fountain'
p1931
I3175
sS'struck'
p1932
I2228
sS'pill'
p1933
I3621
sS'kingdom'
p1934
I1851
sS'boast'
p1935
I949
sS'frown'
p1936
I963
sS'kills'
p1937
I1459
sS'read'
p1938
I639
sS'offence'
p1939
I1599
sS'sums'
p1940
I227
sS'dart'
p1941
I2993
sS'dark'
p1942
I1434
sS'traffic'
p1943
I230
sS'beseechers'
p1944
I2956
sS"look's"
p1945
I3462
sS'confined'
p1946
I2485
sS'world'
p1947
I76
sS'snare'
p1948
I3774
sS'aiming'
p1949
I3474
sS'lady'
p1950
I3404
sS'dare'
p1951
I1009
sS'acquainted'
p1952
I821
sS'fortune'
p1953
I628
sS'goodly'
p1954
I2148
sS'achieve'
p1955
I1915
sS'maintained'
p1956
I3765
sS'miracle'
p1957
I1884
sS'lightning'
p1958
I3328
sS'invention'
p1959
I1345
sS'benefit'
p1960
I1047
sS'beguiled'
p1961
I1757
sS'miraculous'
p1962
I3680
sS'either'
p1963
I1528
sS'robbery'
p1964
I1377
sS'offenders'
p1965
I1417
sS'tower'
p1966
I4130
sS'wend'
p1967
I3894
sS'tombed'
p1968
I239
sS'fulfil'
p1969
I2958
sS'unrighteous'
p1970
I3350
sS'wooers'
p1971
I3576
sS'what'
p1972
I238
sS'truths'
p1973
I2372
sS'servile'
p1974
I4210
sS'elements'
p1975
I1467
sS'respect'
p1976
I1007
sS'images'
p1977
I1155
sS'swerving'
p1978
I2249
sS'divine'
p1979
I2527
sS'thinks'
p1980
I1734
sS'choir'
p1981
I3516
sS'matchable'
p1982
I4141
sS'mood'
p1983
I3240
sS'courses'
p1984
I1764
sS'curious'
p1985
I1351
sS'noon'
p1986
I378
sS'footing'
p1987
I4263
sS'stops'
p1988
I2450
sS'moon'
p1989
I860
sS'forgoing'
p1990
I2827
sS'spotless'
p1991
I4133
sS'expressing'
p1992
I2488
sS'self-loving'
p1993
I1829
sS'knife'
p1994
I1840
sS'destroys'
p1995
I458
sS'felt'
p1996
I2381
sS'snowy'
p1997
I4108
sS'power'
p1998
I1866
sS'seconds'
p1999
I2833
sS'extremest'
p2000
I3842
sS'strained'
p2001
I2175
sS'olives'
p2002
I2514
sS'breasts'
p2003
I2890
sS'forgetfulness'
p2004
I2783
sS'broken'
p2005
I1798
sS'lodestar'
p2006
I3734
sS'embase'
p2007
I3482
sS"o'er-green"
p2008
I2588
sS'assemble'
p2009
I2630
sS'prepared'
p2010
I4345
sS'throw'
p2011
I2592
sS'fondness'
p2012
I3785
sS'tread'
p2013
I3530
sS'on'
p2014
I92
sS'stone'
p2015
I1677
sS'subdued'
p2016
I2572
sS'lioness'
p2017
I3535
sS'zealous'
p2018
I1025
sS'of'
p2019
I101
sS'choirs'
p2020
I2010
sS'feil'
p2021
I2721
sS'greater'
p2022
I1380
sS'whence'
p2023
I1548
sS'enbrew'
p2024
I3978
sS'wolf'
p2025
I2374
sS'stand'
p2026
I700
sS'west'
p2027
I1206
sS'mixed'
p2028
I2834
sS'bond'
p2029
I2942
sS'or'
p2030
I75
sS'diversely'
p2031
I3985
sS'imitated'
p2032
I1647
sS'ladies'
p2033
I2497
sS'long-lived'
p2034
I793
sS'burning'
p2035
I342
sS'weighs'
p2036
I2531
sS'distempered'
p2037
I3183
sS'image'
p2038
I197
sS'skilled'
p2039
I4053
sS'blessed'
p2040
I697
sS'guiltless'
p2041
I3537
sS'penelope'
p2042
I3575
sS'aswage'
p2043
I3900
sS'rues'
p2044
I3993
sS'rising'
p2045
I3153
sS'lively'
p2046
I1922
sS'dreaming'
p2047
I2505
sS'blesses'
p2048
I2352
sS'early'
p2049
I1211
sS'your'
p2050
I582
sS'bends'
p2051
I2669
sS'buds'
p2052
I753
sS"oaths'"
p2053
I3161
sS'fast'
p2054
I501
sS'prepare'
p2055
I586
sS'emprize'
p2056
I4172
sS'there'
p2057
I266
sS'disposed'
p2058
I2256
sS'desert'
p2059
I1567
sS'start'
p2060
I3848
sS'stealth'
p2061
I2081
sS"whate'er"
p2062
I800
sS"'i"
p2063
I3068
sS'lot'
p2064
I4296
sS'house'
p2065
I600
sS'mollify'
p2066
I3701
sS'bubble'
p2067
I4036
sS'leach'
p2068
I3935
sS'afresh'
p2069
I1121
sS'mischief'
p2070
I4343
sS'groan'
p2071
I1594
sS'enough'
p2072
I1234
sS"you'"
p2073
I3077
sS'regard'
p2074
I3931
sS"dyer's"
p2075
I2573
sS'delayed'
p2076
I3676
sS'strikes'
p2077
I415
sS'meetness'
p2078
I2708
sS'shroud'
p2079
I3629
sS'land'
p2080
I1454
sS'brain'
p2081
I2089
sS'wouds'
p2082
I4027
sS'with'
p2083
I36
sS'faster'
p2084
I2427
sS'abused'
p2085
I2180
sS'hire'
p2086
I3912
sS'applying'
p2087
I2729
sS'naming'
p2088
I2353
sS'rage'
p2089
I607
sS'half-trembling'
p2090
I4159
sS'grudging'
p2091
I4052
sS'niggarding'
p2092
I66
sS'self-same'
p2093
I671
sS'strawberry'
p2094
I4111
sS'sadness'
p2095
I3808
sS'scorning'
p2096
I3356
sS'impute'
p2097
I2189
sS'abuses'
p2098
I2766
sS'define'
p2099
I1819
sS'agree'
p2100
I3597
sS'minded'
p2101
I515
sS'strongly'
p2102
I982
sS'gone'
p2103
I233
sS'intents'
p2104
I2650
sS'palate'
p2105
I2637
sS'surly'
p2106
I1984
sS'subdue'
p2107
I4233
sS'taste'
p2108
I1375
sS'ah'
p2109
I437
sS'accents'
p2110
I1950
sS'stealing'
p2111
I1208
sS'am'
p2112
I875
sS'deep'
p2113
I90
sS'an'
p2114
I119
sS'toiled'
p2115
I974
sS'excusing'
p2116
I1276
sS'deem'
p2117
I1655
sS'ensuing'
p2118
I4065
sS'carved'
p2119
I535
sS'walks'
p2120
I2270
sS'ay'
p2121
I1403
sS'aught'
p2122
I1340
sS'horse'
p2123
I1607
sS"hearts'"
p2124
I3868
sS'fill'
p2125
I1707
sS'tedious'
p2126
I3720
sS'again'
p2127
I597
sS'proudly'
p2128
I2900
sS'want'
p2129
I946
sS'pledge'
p2130
I3847
sS"judgment's"
p2131
I2906
sS'deserve'
p2132
I3035
sS"helen's"
p2133
I1650
sS'green'
p2134
I560
sS'repent'
p2135
I1245
sS'orient'
p2136
I337
sS'roses'
p2137
I1263
sS'you'
p2138
I581
sS'dismayed'
p2139
I3298
sS'cypress'
p2140
I3620
sS'abysm'
p2141
I2593
sS'poor'
p2142
I989
sS'reighneth'
p2143
I3533
sS'perils'
p2144
I3733
sS'translated'
p2145
I2371
sS'time'
p2146
I15
sS'merchants'
p2147
I3440
sS'gifts'
p2148
I2464
sS'lovers'
p2149
I1152
sS'suited'
p2150
I2850
sS'brass'
p2151
I1850
sS'celestial'
p2152
I1200
sS'sequent'
p2153
I1782
sS"treason's"
p2154
I3390
sS'building'
p2155
I2149
sS'backward'
p2156
I1763
sS'remote'
p2157
I1449
sS'calls'
p2158
I186
sS'wife'
p2159
I438
sS"life's"
p2160
I1485
sS'mask'
p2161
I3990
sS"'stonished"
p2162
I3461
sS'having'
p2163
I231
sS'extant'
p2164
I2186
sS'repay'
p2165
I2685
sS'hugely'
p2166
I2813
sS'treason'
p2167
I3150
sS'apparel'
p2168
I1005
sS'tanned'
p2169
I1824
sS'unset'
p2170
I701
sS'maturity'
p2171
I1786
sS'all'
p2172
I106
sS'forget'
p2173
I904
sS'vile'
p2174
I1988
sS'suns'
p2175
I1223
sS'forbidden'
p2176
I311
sS'lack'
p2177
I1111
sS'neigh'
p2178
I1611
sS'bosoms'
p2179
I2752
sS'importune'
p2180
I3032
sS'seals'
p2181
I2016
sS'unrest'
p2182
I3111
sS"'gainst"
p2183
I483
sS'forged'
p2184
I2969
sS'welfare'
p2185
I2709
sS'dish'
p2186
I4252
sS'follow'
p2187
I3046
sS'meditation'
p2188
I1881
sS'lace'
p2189
I1917
sS'children'
p2190
I2092
sS'oaths'
p2191
I3164
sS'dreadful'
p2192
I3689
sS'wanton'
p2193
I2389
sS'wish'
p2194
I704
sS'homage'
p2195
I347
sS'sparkling'
p2196
I1069
sS'deceivest'
p2197
I1372
sS"keep'st"
p2198
I3127
sS'revengeful'
p2199
I3649
sS'lustfull'
p2200
I4308
sS'captivity'
p2201
I4125
sS'dressing'
p2202
I2069
sS"is't"
p2203
I1355
sS'nurseth'
p2204
I3102
sS'hideous'
p2205
I270
sS'subtleties'
p2206
I2978
sS'case'
p2207
I1576
sS'woman'
p2208
I844
sS'worse'
p2209
I1774
sS'bowers'
p2210
I4101
sS'song'
p2211
I423
sS'far'
p2212
I1023
sS'caught'
p2213
I3778
sS'saved'
p2214
I3080
sS'coloured'
p2215
I3056
sS'oblation'
p2216
I2832
sS'sufficeth'
p2217
I4096
sS'aware'
p2218
I3779
sS'novel'
p2219
I2786
sS'worst'
p2220
I814
sS'invent'
p2221
I1332
sS'fall'
p2222
I599
sS'awful'
p2223
I3412
sS'hems'
p2224
I866
sS'difference'
p2225
I2487
sS'cunningly'
p2226
I3770
sS'strand'
p2227
I4224
sS'vouchsafe'
p2228
I1167
sS'heaven'
p2229
I634
sS'profane'
p2230
I2272
sS'list'
p2231
I1749
sS'sympathized'
p2232
I2176
sS'large'
p2233
I1462
sS'sang'
p2234
I2007
sS'undone'
p2235
I3582
sS'plain'
p2236
I2178
sS'mistaking'
p2237
I2251
sS"t'"
p2238
I2713
sS'wantonness'
p2239
I2363
sS'relenting'
p2240
I3641
sS"i'll"
p2241
I1182
sS'quicker'
p2242
I1477
sS'ten'
p2243
I319
sS'outworn'
p2244
I1845
sS'lascivious'
p2245
I1384
sS'past'
p2246
I543
sS'winds'
p2247
I756
sS'hope'
p2248
I993
sS'titles'
p2249
I950
sS'rhymes'
p2250
I3220
sS'pass'
p2251
I1559
sS'further'
p2252
I4354
sS'affable'
p2253
I2235
sS'befriends'
p2254
I2738
sS'crests'
p2255
I2522
sS'creatures'
p2256
I4
sS'conscience'
p2257
I3147
sS'gazers'
p2258
I2379
sS'sue'
p2259
I2947
sS'defence'
p2260
I574
sS'stood'
p2261
I3460
sS'darkness'
p2262
I1031
sS'sweetly'
p2263
I407
sS'clock'
p2264
I539
sS'sun'
p2265
I861
sS'wrecked'
p2266
I2147
sS'gardens'
p2267
I702
sS'plast'
p2268
I3732
sS'brief'
p2269
I627
sS'stoop'
p2270
I4142
sS'prevailed'
p2271
I1399
sS'dints'
p2272
I3313
sS'foison'
p2273
I1653
sS'unseen'
p2274
I1207
sS'ill-wresting'
p2275
I3004
sS'learned'
p2276
I2939
sS'doting'
p2277
I2901
sS'themselves'
p2278
I570
sS'womb'
p2279
I166
sS'turmoil'
p2280
I3381
sS'full'
p2281
I1187
sS'ranged'
p2282
I2538
sS'loose'
p2283
I4269
sS'answers'
p2284
I1595
sS'revenge'
p2285
I3135
sS'hours'
p2286
I251
sS'ensconce'
p2287
I1566
sS'so-hot'
p2288
I3672
sS'nimble'
p2289
I1457
sS'excess'
p2290
I3087
sS'hast'
p2291
I444
sS'depend'
p2292
I2312
sS'yellowed'
p2293
I738
sS'table'
p2294
I929
sS'tragedy'
p2295
I3992
sS'speeches'
p2296
I4333
sS'colored'
p2297
I3268
sS'enmity'
p2298
I1689
sS'inspired'
p2299
I3324
sS'losses'
p2300
I1136
sS'dearths'
p2301
I624
sS'qualify'
p2302
I2536
sS'stiffness'
p2303
I4320
sS'action'
p2304
I1870
sS'steepy'
p2305
I1834
sS'sweetness'
p2306
I2328
sS"day's"
p2307
I1051
sS'followed'
p2308
I3074
sS'untold'
p2309
I2962
sS'suddenly'
p2310
I3476
sS'impiety'
p2311
I1914
sS'tendered'
p2312
I2750
sS'amazement'
p2313
I3745
sS"lion's"
p2314
I781
sS'entrap'
p2315
I3391
sS'plights'
p2316
I4318
sS'self-love'
p2317
I179
sS'taker'
p2318
I2883
sS'proceed'
p2319
I2066
sS'cherubins'
p2320
I2628
sS'wiped'
p2321
I4229
sS'faint'
p2322
I2129
sS'single'
p2323
I198
sS'two'
p2324
I1294
sS'pearl'
p2325
I1254
sS'morn'
p2326
I1210
sS'warmed'
p2327
I3194
sS'endowed'
p2328
I528
sS'taken'
p2329
I2674
sS'injury'
p2330
I1381
sS'more'
p2331
I123
sS'horses'
p2332
I2307
sS'triumphant'
p2333
I1213
sS'darting'
p2334
I3467
sS'unlearned'
p2335
I2979
sS'knows'
p2336
I725
sS'delves'
p2337
I1793
sS"ow'st"
p2338
I772
sS'foregone'
p2339
I1125
sS'spoils'
p2340
I2426
sS'possession'
p2341
I773
sS'excuse'
p2342
I1416
sS'lameness'
p2343
I2267
sS"dian's"
p2344
I3170
sS'deigned'
p2345
I4304
sS'broke'
p2346
I3040
sS'varying'
p2347
I2489
sS'known'
p2348
I1382
sS'mounted'
p2349
I1604
sS'glad'
p2350
I798
sS'cunning'
p2351
I947
sS'weighed'
p2352
I4200
sS'fleece'
p2353
I1940
sS'hour'
p2354
I1214
sS'besides'
p2355
I2601
sS'languishment'
p2356
I4063
sS'remain'
p2357
I1300
sS'nine'
p2358
I1349
sS'den'
p2359
I3831
sS'dazed'
p2360
I3248
sS'langor'
p2361
I3752
sS'history'
p2362
I2321
sS'beautiful'
p2363
I2495
sS'stubborn'
p2364
I3654
sS'compare'
p2365
I751
sS'attainted'
p2366
I2258
sS'visage'
p2367
I1204
sS'lives'
p2368
I244
sS'neglected'
p2369
I3044
sS'conspire'
p2370
I481
sS'accept'
p2371
I3570
sS'thievish'
p2372
I1551
sS'sphere'
p2373
I4059
sS'rise'
p2374
I2422
sS'numbers'
p2375
I731
sS'sense'
p2376
I1277
sS'phrase'
p2377
I2212
sS'dress'
p2378
I1942
sS'simple'
p2379
I1911
sS'firmly'
p2380
I4160
sS'low'
p2381
I377
sS'huge'
p2382
I662
sS'siren'
p2383
I2724
sS'court'
p2384
I3395
sS'calms'
p2385
I4088
sS'drained'
p2386
I1833
sS'rather'
p2387
I2791
sS"'thus"
p2388
I1580
sS'breaking'
p2389
I3398
sS'enlarge'
p2390
I3715
sS'fame'
p2391
I2133
sS"adder's"
p2392
I2595
sS'glowing'
p2393
I2017
sS"heart's"
p2394
I1512
sS'freshly'
p2395
I4084
sS'strong'
p2396
I358
sS'stir'
p2397
I3549
sS"'not"
p2398
I3078
sS'creature'
p2399
I2615
sS'mould'
p2400
I3997
sS'simplicity'
p2401
I1909
sS'pleasure'
p2402
I397
sS'tried'
p2403
I3294
sS'rude'
p2404
I524
sS'disgraced'
p2405
I1901
sS'derived'
p2406
I3221
sS"foes'"
p2407
I3882
sS'mended'
p2408
I1770
sS'whilst'
p2409
I954
sS'blood'
p2410
I147
sS'waves'
p2411
I1777
sS'replete'
p2412
I901
sS'a'
p2413
I45
sS'refuse'
p2414
I3141
sS'short'
p2415
I758
sS"pleasure's"
p2416
I4202
sS'resemble'
p2417
I2627
sS'shady'
p2418
I2082
sS'register'
p2419
I2525
sS'spiteful'
p2420
I4334
sS'jove'
p2421
I3803
sS'moved'
p2422
I3371
sS'graceth'
p2423
I3406
sS'shore'
p2424
I1715
sS'rebuked'
p2425
I2737
sS'dread'
p2426
I3711
sS'shade'
p2427
I775
sS'perjured'
p2428
I2873
sS'banks'
p2429
I1716
sS'shorn'
p2430
I1937
sS"gav'st"
p2431
I895
sS'cruelties'
p2432
I3927
sS'dream'
p2433
I2254
sS"that's"
p2434
I317
sS'recite'
p2435
I1997
sS'adorned'
p2436
I3457
sS'played'
p2437
I928
sS'help'
p2438
I1302
sS'winged'
p2439
I1605
sS'flowers'
p2440
I295
sS'stays'
p2441
I3152
sS'soon'
p2442
I1458
sS'soom'
p2443
I4302
sS'trade'
p2444
I3947
sS'disabled'
p2445
I1903
sS'held'
p2446
I98
sS'paper'
p2447
I1338
sS'comfortless'
p2448
I3737
sS'committed'
p2449
I2730
sS'hell'
p2450
I1754
sS'drossy'
p2451
I3419
sS'suffer'
p2452
I1741
sS'saucy'
p2453
I2139
sS'merchandized'
p2454
I2442
sS'pent'
p2455
I282
sS'thrilling'
p2456
I3756
sS'thereon'
p2457
I4259
sS'glide'
p2458
I3488
sS'termed'
p2459
I744
sS'pray'
p2460
I3051
sS'wishful'
p2461
I4364
sS'deeds'
p2462
I1256
sS'bosom'
p2463
I462
sS'teeming'
p2464
I2387
sS'hounds'
p2465
I2296
sS'late'
p2466
I2009
sS'resort'
p2467
I2364
sS'dross'
p2468
I3092
sS'parts'
p2469
I408
sS'threescore'
p2470
I519
sS'ruining'
p2471
I2822
sS"craftsman's"
p2472
I3495
sS'self-willed'
p2473
I331
sS'bereft'
p2474
I285
sS'alter'
p2475
I1306
sS'crawls'
p2476
I1787
sS'fool'
p2477
I1733
sS'evening'
p2478
I4347
sS'return'
p2479
I1046
sS'calm'
p2480
I3336
sS'seeking'
p2481
I486
sS'motley'
p2482
I2549
sS'distilled'
p2483
I294
sS'ye'
p2484
I1415
sS'storm-beaten'
p2485
I1235
sS'speechless'
p2486
I424
sS'walls'
p2487
I281
sS'nymphs'
p2488
I3191
sS'rank'
p2489
I1958
sS'compound'
p2490
I2828
sS'foot'
p2491
I1451
sS'hunted'
p2492
I2878
sS'antiquity'
p2493
I1823
sS"mistress'"
p2494
I2848
sS'complain'
p2495
I1059
sS'mystery'
p2496
I3603
sS'likeness'
p2497
I3020
sS'hereafter'
p2498
I4214
sS'imprisoned'
p2499
I1637
sS'always'
p2500
I2068
sS'loosly'
p2501
I4246
sS'loosely'
p2502
I3286
sS'eloquence'
p2503
I913
sS'ashes'
p2504
I2018
sS'stopped'
p2505
I2597
sS'exiled'
p2506
I3963
sS'blest'
p2507
I1717
sS'found'
p2508
I1424
sS'heavy'
p2509
I1442
sS"put'st"
p2510
I2944
sS'proud-pied'
p2511
I2403
sS'restless'
p2512
I3372
sS'weight'
p2513
I1582
sS'sullied'
p2514
I689
sS'jaws'
p2515
I787
sS'fish'
p2516
I3905
sS'hard'
p2517
I2748
sS'oppressed'
p2518
I1052
sS'idea'
p2519
I3887
sS'fist'
p2520
I2941
sS"nature's"
p2521
I210
sS'slave'
p2522
I1721
sS'beyond'
p2523
I2773
sS'incertainties'
p2524
I2512
sS'harp'
p2525
I3793
sS'travels'
p2526
I2539
sS'flower'
p2527
I1869
sS'missed'
p2528
I2777
sS"fancy's"
p2529
I3254
sS'wise'
p2530
I1996
sS'since'
p2531
I572
sS'publish'
p2532
I2443
sS'dregs'
p2533
I2031
sS'admired'
p2534
I2204
sS'safety'
p2535
I4093
sS'hill'
p2536
I352
sS'avenge'
p2537
I3910
sS'paradise'
p2538
I4237
sS'print'
p2539
I537
sS'darling'
p2540
I754
sS'drizling'
p2541
I3499
sS'issue'
p2542
I598
sS'nest'
p2543
I4236
sS'fled'
p2544
I1985
sS'stewards'
p2545
I2339
sS'boldness'
p2546
I2864
sS'belied'
p2547
I2898
sS'arion'
p2548
I3790
sS'commits'
p2549
I466
sS'fore-bemoaned'
p2550
I1129
sS'forgive'
p2551
I1378
sS'pleasant'
p2552
I2451
sS'reason'
p2553
I2641
sS'base'
p2554
I1229
sS'members'
p2555
I3939
sS'impeached'
p2556
I2838
sS'put'
p2557
I900
sS'inure'
p2558
I3551
sS'teach'
p2559
I1577
sS'wretches'
p2560
I3836
sS'reproach'
p2561
I2757
sS"excuse'"
p2562
I133
sS"know'st"
p2563
I1418
sS'guest'
p2564
I1526
sS'thrown'
p2565
I3792
sS'nightly'
p2566
I1075
sS'owners'
p2567
I2335
sS'service'
p2568
I3136
sS'needing'
p2569
I2710
sS'but'
p2570
I21
sS"year's"
p2571
I3587
sS'sicken'
p2572
I2705
sS'unaware'
p2573
I4191
sS'corrupting'
p2574
I1274
sS'seemeth'
p2575
I3749
sS'feed'
p2576
I3097
sS'gazed'
p2577
I93
sS'seeming'
p2578
I421
sS'forwards'
p2579
I1781
sS'blush'
p2580
I1923
sS'feel'
p2581
I1546
sS'number'
p2582
I730
sS'fancy'
p2583
I4205
sS'breathers'
p2584
I2158
sS'feet'
p2585
I3238
sS'elder'
p2586
I883
sS'enlarged'
p2587
I1977
sS'revolution'
p2588
I1771
sS'done'
p2589
I940
sS'defects'
p2590
I1553
sS'dreading'
p2591
I2400
sS'narcissus'
p2592
I3744
sS'miss'
p2593
I4371
sS'stage'
p2594
I661
sS'rents'
p2595
I3028
sS'moan'
p2596
I1124
sS'guess'
p2597
I1954
sS'heads'
p2598
I3661
sS'temperature'
p2599
I3411
sS'blossom'
p2600
I4072
sS'twenty'
p2601
I3162
sS'threatening'
p2602
I3284
sS'slanderers'
p2603
I3007
sS'least'
p2604
I497
sS'hallowed'
p2605
I2530
sS'pricketh'
p2606
I3614
sS'wonderful'
p2607
I3686
sS'smile'
p2608
I3555
sS'passed'
p2609
I1974
sS'marble'
p2610
I1672
sS'essays'
p2611
I2558
sS'hundred'
p2612
I1765
sS'store'
p2613
I520
sS'wonderment'
p2614
I3253
sS'youngly'
p2615
I505
sS'selling'
p2616
I3093
sS'imperfect'
p2617
I1441
sS'saint'
p2618
I3061
sS'thirst'
p2619
I4156
sS'vantage'
p2620
I2264
sS'adonis'
p2621
I1645
sS'part'
p2622
I898
sS'tradefull'
p2623
I3441
sS"grow'st"
p2624
I500
sS'believe'
p2625
I721
sS"what's"
p2626
I2316
sS'grace'
p2627
I945
sS'king'
p2628
I1837
sS'kind'
p2629
I494
sS'grew'
p2630
I2195
sS'mortality'
p2631
I1868
sS'vial'
p2632
I308
sS'gotten'
p2633
I4178
sS'anticipate'
p2634
I2712
sS'mortgaged'
p2635
I2935
sS'grey'
p2636
I2912
sS'shallowest'
p2637
I2143
sS'youth'
p2638
I357
sS'autumn'
p2639
I2386
sS'determined'
p2640
I1510
sS'contrary'
p2641
I1827
sS'supposed'
p2642
I1140
sS'garland'
p2643
I3514
sS'kindle'
p2644
I3311
sS'lease'
p2645
I591
sS'restful'
p2646
I1887
sS'tongues'
p2647
I1947
sS'vacant'
p2648
I2077
sS'wrongest'
p2649
I3275
sS'trifles'
p2650
I1539
sS'well'
p2651
I447
sS'plead'
p2652
I918
sS'ages'
p2653
I2438
sS'defect'
p2654
I1962
sS'needs'
p2655
I1288
sS'new-fired'
p2656
I3179
sS'alike'
p2657
I2483
sS'showers'
p2658
I2039
sS'gladsome'
p2659
I4085
sS'gall'
p2660
I3857
sS'travail'
p2661
I2121
sS'odors'
p2662
I4100
sS'fading'
p2663
I801
sS'sensual'
p2664
I1280
sS'sell'
p2665
I874
sS'mountain'
p2666
I1190
sS'speaking'
p2667
I914
sS'built'
p2668
I2736
sS'depending'
p2669
I3606
sS'trance'
p2670
I3816
sS'forepast'
p2671
I4083
sS'port'
p2672
I3407
sS'onset'
p2673
I2291
sS'also'
p2674
I3237
sS'without'
p2675
I513
sS'lip'
p2676
I2499
sS'build'
p2677
I3568
sS'frail'
p2678
I3247
sS'finding'
p2679
I2167
sS'anthems'
p2680
I3518
sS"angel's"
p2681
I3223
sS'chary'
p2682
I887
sS"art's"
p2683
I2843
sS"'had"
p2684
I1171
sS'towards'
p2685
I1617
sS'quoth'
p2686
I3657
sS'oft'
p2687
I636
sS'death'
p2688
I327
sS'reckon'
p2689
I2765
sS'sets'
p2690
I686
sS'unswayed'
p2691
I3021
sS'unused'
p2692
I241
sS'most'
p2693
I477
sS'charm'
p2694
I3908
sS'remembreth'
p2695
I3414
sS'blunting'
p2696
I1623
sS'daphne'
p2697
I3647
sS'seasons'
p2698
I796
sS"o'ercharged"
p2699
I912
sS'wastes'
p2700
I567
sS'measured'
p2701
I1579
sS'appear'
p2702
I1148
sS'chronicle'
p2703
I2492
sS'feasting'
p2704
I2050
sS'windows'
p2705
I189
sS"adders'"
p2706
I4327
sS'clear'
p2707
I1439
sS'sometimes'
p2708
I1593
sS'cover'
p2709
I879
sS'naught'
p2710
I3315
sS'unbred'
p2711
I2479
sS'flits'
p2712
I3991
sS'dissolved'
p2713
I3673
sS'treasures'
p2714
I3442
sS'reeleth'
p2715
I369
sS'barren'
p2716
I551
sS'bower'
p2717
I2845
sS'charged'
p2718
I1975
sS'diverse'
p2719
I3269
sS'lying'
p2720
I3186
sS'stones'
p2721
I1629
sS'self-substantial'
p2722
I35
sS'despise'
p2723
I3008
sS'gold'
p2724
I764
sS'gates'
p2725
I1880
sS"y'have"
p2726
I2744
sS'wailing'
p2727
I1413
sS'fond'
p2728
I174
sS'violet'
p2729
I544
sS'page'
p2730
I2533
sS'rhymers'
p2731
I1348
sS'wasted'
p2732
I2491
sS'registers'
p2733
I2794
sS'expressed'
p2734
I919
sS'heavens'
p2735
I3898
sS'fine'
p2736
I924
sS'find'
p2737
I594
sS'viewest'
p2738
I149
sS'sportive'
p2739
I2760
sS'gilded'
p2740
I1671
sS'aggravate'
p2741
I3091
sS'shouldst'
p2742
I325
sS'deserts'
p2743
I722
sS'unperfect'
p2744
I897
sS"t'increase"
p2745
I3835
sS'justice'
p2746
I3405
sS'ruin'
p2747
I1862
sS'less'
p2748
I741
sS'waiting'
p2749
I1755
sS'vision'
p2750
I2612
sS'erect'
p2751
I4170
sS'unjustly'
p2752
I3917
sS'tempests'
p2753
I2672
sS'defiled'
p2754
I3536
sS'fiend'
p2755
I3064
sS'hardened'
p2756
I3608
sS"painter's"
p2757
I933
sS'ordained'
p2758
I3913
sS'niggard'
p2759
I217
sS'dust'
p2760
I1158
sS'gains'
p2761
I1926
sS'mercy'
p2762
I3072
sS'compiled'
p2763
I2207
sS'express'
p2764
I2526
sS'impregnable'
p2765
I1876
sS'trees'
p2766
I552
sS'slime'
p2767
I3418
sS'famous'
p2768
I3664
sS'remedy'
p2769
I1817
sS'hid'
p2770
I1117
sS'rest'
p2771
I976
sS'closely'
p2772
I3471
sS'compass'
p2773
I2679
sS'swart-complexioned'
p2774
I1065
sS'sepulchres'
p2775
I1938
sS"send'st"
p2776
I1801
sS'banner'
p2777
I3291
sS'him'
p2778
I267
sS'merchandise'
p2779
I4294
sS'cruelly'
p2780
I3841
sS'grievances'
p2781
I1126
sS'cries'
p2782
I1079
sS'pleasures'
p2783
I2398
sS'diamond'
p2784
I3346
sS'cry'
p2785
I1886
sS'impanelled'
p2786
I1505
sS'remove'
p2787
I978
sS'bird'
p2788
I2609
sS'common'
p2789
I1961
sS'physicians'
p2790
I3000
sS'double'
p2791
I2110
sS'dumpish'
p2792
I3259
sS'kill'
p2793
I1387
sS'poisoned'
p2794
I2639
sS'scath'
p2795
I3693
sS'wrote'
p2796
I4225
sS'disperse'
p2797
I2101
sS'sew'
p2798
I3365
sS'bars'
p2799
I952
sS'set'
p2800
I1626
sS'art'
p2801
I56
sS'declines'
p2802
I766
sS'jade'
p2803
I1612
sS'haughty'
p2804
I3432
sS'heares'
p2805
I4290
sS"o'ersways"
p2806
I1867
sS'lion'
p2807
I3531
sS'bare'
p2808
I992
sS'are'
p2809
I212
sS'sea'
p2810
I1455
sS'tender'
p2811
I26
sS'close'
p2812
I3280
sS'bark'
p2813
I2138
sS'comfort'
p2814
I1324
sS'feared'
p2815
I4048
sS'threats'
p2816
I3807
sS'spirits'
p2817
I2227
sS'horrid'
p2818
I4335
sS"enur'd"
p2819
I3431
sS'forlorn'
p2820
I1205
sS'firmest'
p2821
I3502
sS'please'
p2822
I1062
sS'drooping'
p2823
I1029
sS'unpityed'
p2824
I3377
sS'won'
p2825
I1396
sS'happiness'
p2826
I4208
sS'affairs'
p2827
I1732
sS'woe'
p2828
I1119
sS'silly'
p2829
I3534
sS'burned'
p2830
I2474
sS'corruption'
p2831
I4271
sS'thrive'
p2832
I642
sS'endure'
p2833
I3176
sS'knowing'
p2834
I2130
sS'milder'
p2835
I4158
sS'iron'
p2836
I3702
sS'spun'
p2837
I3584
sS'sold'
p2838
I2551
sS'sole'
p2839
I1305
sS'spray'
p2840
I3830
sS'blot'
p2841
I1063
sS'mirth'
p2842
I3989
sS'baleful'
p2843
I3593
sS'alters'
p2844
I2667
sS'beholder'
p2845
I3469
sS'both'
p2846
I1264
sS'toward'
p2847
I464
sS'joyous'
p2848
I4094
sS'grounded'
p2849
I1818
sS'desired'
p2850
I2268
sS'thou'
p2851
I33
sS'frieseth'
p2852
I3708
sS'elizabeths'
p2853
I4223
sS'anon'
p2854
I1199
sS'objects'
p2855
I2610
sS'forgotten'
p2856
I2152
sS'let'
p2857
I305
sS'mean'
p2858
I3885
sS'afar'
p2859
I3050
sS'finds'
p2860
I2300
sS'league'
p2861
I1516
sS'usest'
p2862
I1370
sS'flies'
p2863
I1965
sS'onward'
p2864
I1598
sS'consume'
p2865
I3343
sS'majesty'
p2866
I348
sS'point'
p2867
I1622
sS'liken'
p2868
I3826
sS'sweet'
p2869
I50
sS'loan'
p2870
I312
sS'manners'
p2871
I1354
sS'harbour'
p2872
I4238
sS'except'
p2873
I3110
sS'key'
p2874
I1618
sS'simply'
p2875
I2983
sS'worthless'
p2876
I2146
sS'devil'
p2877
I3060
sS'unworthiness'
p2878
I3146
sS'raise'
p2879
I3523
sS"'scaped"
p2880
I2280
sS'arrest'
p2881
I2024
sS'stamp'
p2882
I2171
sS'devouring'
p2883
I783
sS'acceptance'
p2884
I2954
sS'satire'
p2885
I2425
sS'due'
p2886
I80
sS'guilefull'
p2887
I3903
sS'staineth'
p2888
I1221
sS'quench'
p2889
I4157
sS'secret'
p2890
I665
sS"wood's"
p2891
I2865
sS'pining'
p2892
I3753
sS'visnomy'
p2893
I3890
sS'wait'
p2894
I1756
sS'disconsolate'
p2895
I4366
sS'delights'
p2896
I390
sS'rosy'
p2897
I2678
sS'firm'
p2898
I1856
sS'sithens'
p2899
I3228
sS'flight'
p2900
I4203
sS'gay'
p2901
I1939
sS"'twixt"
p2902
I2044
sS'fire'
p2903
I1470
sS"dial's"
p2904
I2083
sS'hind'
p2905
I4261
sS'cruelty'
p2906
I3607
sS'else'
p2907
I74
sS'awake'
p2908
I1808
sS'bidding'
p2909
I3258
sS'livery'
p2910
I95
sS'mournful'
p2911
I2453
sS'hardness'
p2912
I3949
sS'plants'
p2913
I667
sS'uncertain'
p2914
I3105
sS'cuckoo'
p2915
I3509
sS'frozen'
p2916
I3675
sS'straight'
p2917
I1493
sS'admire'
p2918
I2788
sS'pace'
p2919
I1606
sS'while'
p2920
I1134
sS'ought'
p2921
I3295
sS'rigour'
p2922
I2932
sS'pearls'
p2923
I3448
sS'kissing'
p2924
I1192
sS'eclipses'
p2925
I1265
sS"thought's"
p2926
I3252
sS'guide'
p2927
I3484
sS'acquaintance'
p2928
I2093
sS'youthful'
p2929
I676
sS'costly'
p2930
I3086
sS'debased'
p2931
I4300
sS'merry'
p2932
I3510
sS'wherever'
p2933
I1472
sS'herein'
p2934
I510
sS'confound'
p2935
I1789
sS'refigured'
p2936
I323
sS'itself'
p2937
I3630
sS'lodged'
p2938
I492
sS'owes'
p2939
I2128
sS'churl'
p2940
I70
sS'ready'
p2941
I3267
sS'rid'
p2942
I2994
sS'seest'
p2943
I2013
sS'anguish'
p2944
I3920
sS'fairer'
p2945
I493
sS'around'
p2946
I4099
sS'twofold'
p2947
I1407
sS'trial'
p2948
I3181
sS'estimate'
p2949
I2242
sS'bristly'
p2950
I562
sS'belong'
p2951
I1751
sS'dishonor'
p2952
I3281
sS'engrossed'
p2953
I2923
sS'wherein'
p2954
I931
sS'rules'
p2955
I3940
sS'discourse'
p2956
I3113
sS'esteemed'
p2957
I2368
sS'ruth'
p2958
I2910
sS'miscalled'
p2959
I1910
sS'composition'
p2960
I1484
sS'higher'
p2961
I4287
sS'covetous'
p2962
I2937
sS'used'
p2963
I245
sS'forced'
p2964
I1408
sS'restraint'
p2965
I3860
sS'shinedst'
p2966
I3809
sS'moment'
p2967
I654
sS"th'anvil"
p2968
I3706
sS'moving'
p2969
I997
sS'user'
p2970
I459
sS'wretchcd'
p2971
I2309
sS'mavis'
p2972
I4322
sS'broils'
p2973
I1683
sS'lower'
p2974
I3899
sS'task'
p2975
I1998
sS'sacred'
p2976
I349
sS'accumulate'
p2977
I2692
sS'try'
p2978
I2561
sS'knowen'
p2979
I3958
sS'dancing'
p2980
I2868
sS'lacking'
p2981
I1141
sS'spent'
p2982
I2070
sS"frown'st"
p2983
I3133
sS'honor'
p2984
I3287
sS'morrow'
p2985
I2283
sS'cheer'
p2986
I2399
sS'edge'
p2987
I1700
sS'services'
p2988
I1723
sS'unspotted'
p2989
I4370
sS'starved'
p2990
I2051
sS'rears'
p2991
I3408
sS'stoures'
p2992
I4026
sS'steeled'
p2993
I2591
sS'things'
p2994
I863
sS'watching'
p2995
I3121
sS'abstain'
p2996
I3856
sS'bearer'
p2997
I1600
sS'misintended'
p2998
I3477
sS'chaste'
p2999
I3189
sS'salve'
p3000
I1238
sS'shape'
p3001
I450
sS'hercules'
p3002
I4255
sS'madding'
p3003
I2734
sS'unto'
p3004
I1518
sS'gems'
p3005
I858
sS'tables'
p3006
I2770
sS'cut'
p3007
I1842
sS'reflex'
p3008
I4149
sS'cup'
p3009
I2636
sS'reap'
p3010
I2861
sS'decayed'
p3011
I2118
sS'danger'
p3012
I3691
sS'eager'
p3013
I2699
sS'bred'
p3014
I2535
sS'lifts'
p3015
I344
sS'crying'
p3016
I3052
sS'tormented'
p3017
I3351
sS"either's"
p3018
I1054
sS"tongue's"
p3019
I3013
sS'march'
p3020
I1178
sS'awakes'
p3021
I1531
sS'big'
p3022
I2385
sS'bid'
p3023
I1729
sS'advocate'
p3024
I1281
sS'displace'
p3025
I3545
sS'rondure'
p3026
I867
sS'judgement'
p3027
I614
sS'halt'
p3028
I2266
sS'game'
p3029
I4152
sS'fulness'
p3030
I1708
sS'private'
p3031
I448
sS'dearly'
p3032
I1411
sS'bit'
p3033
I3824
sS'sharpened'
p3034
I1705
sS'wings'
p3035
I3265
sS'like'
p3036
I371
sS'outright'
p3037
I2995
sS'lost'
p3038
I2032
sS'baseness'
p3039
I3246
sS"children's"
p3040
I452
sS'follows'
p3041
I1394
sS'message'
p3042
I3527
sS'dun'
p3043
I2889
sS'strife'
p3044
I2041
sS'shapes'
p3045
I2618
sS'pensiveness'
p3046
I3739
sS'eek'
p3047
I4230
sS'divining'
p3048
I2502
sS'tribes'
p3049
I2519
sS'witness'
p3050
I988
sS'foolish'
p3051
I3018
sS'twixt'
p3052
I4243
sS'canst'
p3053
I225
sS'wrack'
p3054
I3788
sS"janus'"
p3055
I3257
sS'methods'
p3056
I2062
sS'wombs'
p3057
I2391
sS'spring'
p3058
I57
sS'creation'
p3059
I2326
sS'some'
p3060
I162
sS'back'
p3061
I185
sS'saints'
p3062
I4070
sS'sighs'
p3063
I1521
sS'lips'
p3064
I2677
sS'added'
p3065
I2109
sS'mighty'
p3066
I3322
sS'ornaments'
p3067
I3025
sS'apply'
p3068
I3704
sS'priefe'
p3069
I3937
sS'pale'
p3070
I1195
sS'sauces'
p3071
I2707
sS'senseless'
p3072
I3683
sS'savage'
p3073
I2875
sS'sheen'
p3074
I3454
sS'perfection'
p3075
I656
sS'twinkle'
p3076
I3475
sS'fairing'
p3077
I2844
sS'affects'
p3078
I3316
sS'shall'
p3079
I84
sS'oblivion'
p3080
I2776
sS'balmy'
p3081
I2516
sS'modest'
p3082
I4312
sS'quickly'
p3083
I3173
sS'confounds'
p3084
I268
sS'barrenly'
p3085
I523
sS'posterity'
p3086
I177
sS'lark'
p3087
I1100
sS'desiring'
p3088
I1090
sS'forgets'
p3089
I4204
sS'be'
p3090
I71
sS'slept'
p3091
I2185
sS'patient'
p3092
I2576
sS'remembered'
p3093
I194
sS'word'
p3094
I2065
sS'odor'
p3095
I4120
sS'clay'
p3096
I1993
sS'virtues'
p3097
I3456
sS"'this"
p3098
I129
sS'rue'
p3099
I4298
sS'aloft'
p3100
I2104
sS'rent'
p3101
I2824
sS'fee'
p3102
I2754
sS'respite'
p3103
I3373
sS'hostages'
p3104
I3367
sS'nerves'
p3105
I2742
sS'eglantine'
p3106
I3615
sS"batt'ring"
p3107
I1872
sS'shine'
p3108
I1209
sS'saphires'
p3109
I3445
sS'goods'
p3110
I4015
sS'deserved'
p3111
I122
sS'constraint'
p3112
I4124
sS'cheered'
p3113
I673
sS'wrinkles'
p3114
I192
sS'deserves'
p3115
I2122
sS'ambush'
p3116
I1973
sS'pains'
p3117
I3954
sS'together'
p3118
I643
sS'hatred'
p3119
I2320
sS'behaviour'
p3120
I2125
sS'tenants'
p3121
I1508
sS'silence'
p3122
I2190
sS'misplaced'
p3123
I1897
sS'seeing'
p3124
I1952
sS'decease'
p3125
I14
sS'into'
p3126
I1334
sS'amazeth'
p3127
I837
sS'glooming'
p3128
I4086
sS'falsehood'
p3129
I1538
sS'ensue'
p3130
I4079
sS'nothing'
p3131
I207
sS'inconstant'
p3132
I682
sS'piteous'
p3133
I3837
sS'remembrance'
p3134
I288
sS'lesson'
p3135
I2720
sS"sharp'st"
p3136
I2651
sS'odorous'
p3137
I4119
sS'seen'
p3138
I1184
sS'sad'
p3139
I1131
sS'featureless'
p3140
I525
sS'few'
p3141
I2004
sS'spending'
p3142
I2072
sS'question'
p3143
I565
sS'long'
p3144
I779
sS'worshipped'
p3145
I4074
sS'whereto'
p3146
I2686
sS'exceed'
p3147
I2183
sS'suit'
p3148
I2918
sS'pictured'
p3149
I935
sS'translate'
p3150
I2377
sS'warried'
p3151
I3875
sS'himself'
p3152
I469
sS'arise'
p3153
I1693
sS'jacks'
p3154
I2859
sS'quenched'
p3155
I3200
sS'graciously'
p3156
I1002
sS'great'
p3157
I228
sS'healthful'
p3158
I2716
sS'frost'
p3159
I273
sS'vowing'
p3160
I3159
sS'state'
p3161
I679
sS'alive'
p3162
I749
sS'newer'
p3163
I2563
sS'filed'
p3164
I2210
sS'hopes'
p3165
I2728
sS"prince's"
p3166
I4144
sS'line'
p3167
I1990
sS'immortal'
p3168
I2153
sS'pain'
p3169
I1353
sS'dull'
p3170
I1445
sS'usury'
p3171
I310
sS'directed'
p3172
I1433
sS'bevel'
p3173
I2767
sS'immured'
p3174
I2193
sS'helicon'
p3175
I3222
sS"lover's"
p3176
I1843
sS'goodwill'
p3177
I4161
sS"monarch's"
p3178
I2623
sS'us'
p3179
I1357
sS'carefull'
p3180
I3738
sS'politic'
p3181
I2812
sS'betokening'
p3182
I4080
sS'covet'
p3183
I3787
sS'wicked'
p3184
I3392
sS'proves'
p3185
I1552
sS'consumed'
p3186
I2022
sS'vassalage'
p3187
I979
sS'repulse'
p3188
I3425
sS'archers'
p3189
I3472
sS'constant'
p3190
I641
sS'figured'
p3191
I2524
sS'raging'
p3192
I4011
sS'likewise'
p3193
I3561
sS'allayed'
p3194
I1701
sS'influence'
p3195
I664
sS"physicians'"
p3196
I3944
sS'deprive'
p3197
I4095
sS'scarlet'
p3198
I3026
sS'languishing'
p3199
I3934
sS'cure'
p3200
I2584
sS'doest'
p3201
I4227
sS'tuneless'
p3202
I3880
sS'diving'
p3203
I4241
sS'babe'
p3204
I891
sS'surmise'
p3205
I2693
sS'rainy'
p3206
I2284
sS'sullen'
p3207
I1103
sS'sunken'
p3208
I113
sS'impediments'
p3209
I2664
sS'peace'
p3210
I2042
sS'fears'
p3211
I1864
sS'dimmed'
p3212
I762
sS'charactered'
p3213
I2772
sS'dead-doing'
p3214
I3206
sS'altar'
p3215
I3567
sS'hove'
p3216
I4368
sS'confine'
p3217
I2194
sS'inclined'
p3218
I3559
sS'mock'
p3219
I1800
sS'wished'
p3220
I1718
sS'smiles'
p3221
I3491
sS'draw'
p3222
I808
sS'aright'
p3223
I3117
sS'clean'
p3224
I2052
sS'gross'
p3225
I2179
sS'passions'
p3226
I3876
sS'nay'
p3227
I1991
sS'assayed'
p3228
I3950
sS'meaning'
p3229
I3522
sS'lent'
p3230
I4137
sS'makeless'
p3231
I439
sS'wrinkle'
p3232
I2424
sS'sides'
p3233
I2985
sS'paps'
p3234
I4242
sS'bases'
p3235
I2820
sS'suffers'
p3236
I2804
sS'happier'
p3237
I320
sS'happies'
p3238
I315
sS"spend'st"
p3239
I2415
sS'vice'
p3240
I1969
sS'blend'
p3241
I4087
sS'age'
p3242
I188
sS'wards'
p3243
I1536
sS'oppress'
p3244
I4004
sS'implied'
p3245
I3279
sS'heats'
p3246
I3204
sS'came'
p3247
I2946
sS'enrolled'
p3248
I4171
sS'fresh'
p3249
I53
sS'marvel'
p3250
I3124
sS'sounded'
p3251
I3511
sS'once'
p3252
I969
sS'pervert'
p3253
I3851
sS'wilfulness'
p3254
I2691
sS'discontent'
p3255
I2805
sS'melts'
p3256
I3682
sS'highmost'
p3257
I367
sS'tombs'
p3258
I2521
sS"deformed'st"
p3259
I2616
sS'soften'
p3260
I3504
sS'cheerful'
p3261
I3818
sS'windy'
p3262
I2285
sS"work's"
p3263
I1020
sS'lend'
p3264
I205
sS'dainty'
p3265
I3796
sS'amiss'
p3266
I1272
sS"present'st"
p3267
I1972
sS'seemed'
p3268
I2393
sS'graves'
p3269
I2079
sS'tincture'
p3270
I1659
sS'uphold'
p3271
I602
sS'reckoned'
p3272
I2961
sS'young'
p3273
I815
sS'send'
p3274
I987
sS'breaches'
p3275
I4341
sS'obstinate'
p3276
I4009
sS'blaze'
p3277
I3667
sS'breach'
p3278
I3160
sS'pleasing'
p3279
I420
sS'sent'
p3280
I3895
sS'virtuous'
p3281
I705
sS'over-partial'
p3282
I2964
sS'random'
p3283
I3114
sS'assay'
p3284
I3433
sS'garden'
p3285
I4097
sS'torture'
p3286
I1056
sS'bale'
p3287
I3227
sS"'now"
p3288
I2659
sS'panting'
p3289
I4153
sS'confounding'
p3290
I1841
sS'rhyme'
p3291
I696
sS'languished'
p3292
I3070
sS'felicity'
p3293
I4164
sS'scanted'
p3294
I2683
sS'accuse'
p3295
I2684
sS'telling'
p3296
I2073
sS'kindled'
p3297
I3245
sS'timely'
p3298
I3266
sS'entire'
p3299
I3312
sS'false-speaking'
p3300
I2981
sS'meek'
p3301
I3243
sS'iniquity'
p3302
I1828
sS'bonds'
p3303
I2245
sS'queen'
p3304
I2365
sS"eve's"
p3305
I2330
sS'race'
p3306
I1609
sS'verdict'
p3307
I1511
sS'betwixt'
p3308
I1517
sS'noted'
p3309
I2064
sS'watchman'
p3310
I1810
sS"alt'ring"
p3311
I2653
sS'teachest'
p3312
I1365
sS'thereunto'
p3313
I4266
sS'crow'
p3314
I1966
sS'yourself'
p3315
I3274
sS'malice'
p3316
I3884
sS'mishap'
p3317
I4299
sS'waking'
p3318
I2255
sS'jump'
p3319
I1456
sS'ever-fixed'
p3320
I2670
sS'pour'
p3321
I3528
sS'go'
p3322
I566
sS'earth'
p3323
I786
sS'decrees'
p3324
I2647
sS'languor'
p3325
I3964
sS'pity-wanting'
p3326
I2997
sS'victor'
p3327
I1976
sS'precept'
p3328
I3526
sS'length'
p3329
I1073
sS"need'st"
p3330
I2991
sS'labour'
p3331
I3589
sS'saw'
p3332
I2182
sS'indias'
p3333
I3443
sS"man's"
p3334
I1089
sS'henceforth'
p3335
I3783
sS'paying'
p3336
I2825
sS'relent'
p3337
I4303
sS'surcease'
p3338
I3383
sS"seasons'"
p3339
I623
sS'attire'
p3340
I3632
sS'famoused'
p3341
I965
sS'nights'
p3342
I1443
sS"thund'ring"
p3343
I3806
sS'body'
p3344
I932
sS'rich-laden'
p3345
I4293
sS'melancholy'
p3346
I1480
sS"death's"
p3347
I334
sS'led'
p3348
I3956
sS'chose'
p3349
I2356
sS'desires'
p3350
I3334
sS'standeth'
p3351
I4044
sS'forgo'
p3352
I3834
sS'gathered'
p3353
I2798
sS"shadow's"
p3354
I1437
sS'sins'
p3355
I1275
sS'growing'
p3356
I1168
sS'scythe'
p3357
I576
sS'busy'
p3358
I3045
sS'poverty'
p3359
I1379
sS'separation'
p3360
I1358
sS'others'
p3361
I463
sS'dissuade'
p3362
I3019
sS'sing'
p3363
I418
sS'lends'
p3364
I214
sS'adulterate'
p3365
I2759
sS'extreme'
p3366
I2874
sS'convert'
p3367
I645
sS'likened'
p3368
I4000
sS'burthens'
p3369
I2455
sS'receive'
p3370
I2782
sS'metre'
p3371
I747
sS'leaving'
p3372
I330
sS'trusty'
p3373
I3725
sS'survey'
p3374
I1620
sS'defeat'
p3375
I1809
sS'requite'
p3376
I3923
sS'climb'
p3377
I3415
sS'vaunt'
p3378
I677
sS'makes'
p3379
I1042
sS'maker'
p3380
I3330
sS'composed'
p3381
I1769
sS'control'
p3382
I1736
sS'named'
p3383
I3838
sS'apple'
p3384
I2329
sS'heart'
p3385
I822
sS'forbid'
p3386
I805
sS'win'
p3387
I1854
sS"whoe'er"
p3388
I2930
sS'innocence'
p3389
I3289
sS'messengers'
p3390
I1488
sS'uprear'
p3391
I1568
sS'hardy'
p3392
I3430
sS'ran'
p3393
I3810
sS'wit'
p3394
I923
sS'decrease'
p3395
I674
sS'lodging'
p3396
I4215
sS'doubtfully'
p3397
I3605
sS'immortalize'
p3398
I4228
sS'imaginary'
p3399
I1033
sS'cloud'
p3400
I1217
sS'bent'
p3401
I2275
sS"lovers'"
p3402
I1695
sS'fed'
p3403
I3096
sS'sealed'
p3404
I3027
sS'from'
p3405
I6
sS'valorous'
p3406
I4173
sS'remains'
p3407
I2036
sS'hammered'
p3408
I2741
sS'next'
p3409
I2564
sS'saith'
p3410
I2624
sS'doubt'
p3411
I3066
sS'contentment'
p3412
I3743
sS'finishing'
p3413
I3714
sS'doom'
p3414
I649
sS'uneared'
p3415
I167
sS"sun's"
p3416
I958
sS'defendant'
p3417
I1502
sS'deepest'
p3418
I2749
sS'sort'
p3419
I1317
sS'pencil'
p3420
I712
sS'assailed'
p3421
I1397
sS'beauteous'
p3422
I218
sS'freezings'
p3423
I2382
sS'becomes'
p3424
I2755
sS'chide'
p3425
I406
sS'freedom'
p3426
I1498
sS'heir'
p3427
I25
sS'hied'
p3428
I3184
sS'infection'
p3429
I1913
sS'drawen'
p3430
I4187
sS'meant'
p3431
I533
sS'sore'
p3432
I4020
sS'insufficiency'
p3433
I3139
sS'train'
p3434
I3389
sS'sharply'
p3435
I4025
sS'tattered'
p3436
I103
sS'special-blest'
p3437
I1634
sS'harvest'
p3438
I2862
sS'entangle'
p3439
I3775
sS"none'"
p3440
I425
sS'account'
p3441
I1130
sS'works'
p3442
I2112
sS'augment'
p3443
I3759
sS'locks'
p3444
I3453
sS'this'
p3445
I73
sS'meed'
p3446
I4344
sS'challenge'
p3447
I3665
sS'tresses'
p3448
I1936
sS'sight'
p3449
I345
sS'crossed'
p3450
I2926
sS'praise'
p3451
I115
sS'executor'
p3452
I242
sS'meet'
p3453
I291
sS'drops'
p3454
I2517
sS'befits'
p3455
I1392
sS'proof'
p3456
I2562
sS'thralled'
p3457
I2806
sS'wearing'
p3458
I3643
sS'enfeebled'
p3459
I2240
sS'weaker'
p3460
I3780
sS'council'
p3461
I3598
sS'ushers'
p3462
I2913
sS'process'
p3463
I2473
sS'rapt'
p3464
I3814
sS'escaped'
p3465
I4151
sS'salving'
p3466
I1273
sS'unswept'
p3467
I1678
sS'bend'
p3468
I3926
sS'sought'
p3469
I1110
sS'purposed'
p3470
I2287
sS'paws'
p3471
I780
sS'trumpet'
p3472
I3513
sS'darkening'
p3473
I2416
sS'counterfeit'
p3474
I706
sS'lamb'
p3475
I2378
sS'amend'
p3476
I4081
sS'conceit'
p3477
I683
sS'compounded'
p3478
I1994
sS'falls'
p3479
I2801
sS'pure'
p3480
I1971
sS"sickle's"
p3481
I2680
sS'purpose'
p3482
I851
sS'holds'
p3483
I657
sS'thrall'
p3484
I3201
sS'moods'
p3485
I2324
sS'pleasance'
p3486
I3493
sS'blessings'
p3487
I2205
sS'fools'
p3488
I2815
sS'slandering'
p3489
I2851
sS'mightst'
p3490
I1402
sS'forsaken'
p3491
I2925
sS'sin'
p3492
I1815
sS'stock'
p3493
I3861
sS'watery'
p3494
I1853
sS'gainer'
p3495
I2260
sS'attend'
p3496
I1465
sS'watch'
p3497
I1725
sS'act'
p3498
I3158
sS'tied'
p3499
I2971
sS'bellamores'
p3500
I4105
sS'permanent'
p3501
I4270
sS'abuse'
p3502
I216
sS'ease'
p3503
I3234
sS'fits'
p3504
I2751
sS'yielded'
p3505
I3540
sS"worth's"
p3506
I2676
sS'tomb'
p3507
I173
sS'physic'
p3508
I1243
sS'bankrupt'
p3509
I1920
sS"bear'st"
p3510
I471
sS'hinders'
p3511
I3420
sS"blam'd"
p3512
I3801
sS'untrimmed'
p3513
I767
sS'bind'
p3514
I2940
sS'sit'
p3515
I1326
sS'lines'
p3516
I709
sS'feels'
p3517
I4126
sS'element'
p3518
I3999
sS'chief'
p3519
I487
sS'admiring'
p3520
I1773
sS'writ'
p3521
I920
sS'allow'
p3522
I809
sS'pyramids'
p3523
I2785
sS'favourites'
p3524
I956
sS'looking'
p3525
I1032
sS'counted'
p3526
I2839
sS'breast'
p3527
I882
sS'neglect'
p3528
I2432
sS'beauties'
p3529
I571
sS'stamped'
p3530
I2586
sS'transfix'
p3531
I1791
sS'attain'
p3532
I4317
sS'move'
p3533
I1530
sS'damsel'
p3534
I3478
sS'widowed'
p3535
I2392
sS'rebellious'
p3536
I3299
sS'briar'
p3537
I3612
sS'offences'
p3538
I2554
sS'beguile'
p3539
I164
sS'dearest'
p3540
I1321
sS'enclose'
p3541
I2349
sS'trophies'
p3542
I1153
sS'tyrant'
p3543
I693
sS'flattering'
p3544
I3906
sS'polished'
p3545
I2220
sS'thyself'
p3546
I885
sS'faileth'
p3547
I4041
sS'badges'
p3548
I1469
sS'bunch'
p3549
I4113
sS'perfect'
p3550
I908
sS'refusest'
p3551
I1374
sS'frailties'
p3552
I2544
sS'brood'
p3553
I784
sS'whereon'
p3554
I666
sS'unstained'
p3555
I1970
sS'meede'
p3556
I3611
sS'lo'
p3557
I338
sS'brook'
p3558
I3218
sS'whereof'
p3559
I1641
sS'banquet'
p3560
I1525
sS'themes'
p3561
I2490
sS'exceeding'
p3562
I3674
sS'restrain'
p3563
I3853
sS'tyrants'
p3564
I258
sS'distraction'
p3565
I2735
sS'attaint'
p3566
I2162
sS'endurence'
p3567
I4045
sS'tickled'
p3568
I2866
sS'ruined'
p3569
I2011
sS'fountains'
p3570
I1260
sS'assoyle'
p3571
I3378
sS'bolder'
p3572
I4198
sS'snaky'
p3573
I4332
sS'flattery'
p3574
I1428
sS'spell'
p3575
I3867
sS"th'author"
p3576
I3564
sS'ship'
p3577
I3723
sS'sweets'
p3578
I392
sS'stout'
p3579
I1875
sS'hands'
p3580
I1057
sS'front'
p3581
I2446
sS"owner's"
p3582
I2444
sS'kindness'
p3583
I1314
sS'cage'
p3584
I4127
sS'embaseth'
p3585
I3409
sS'damasked'
p3586
I2894
sS'strive'
p3587
I2589
sS'empress'
p3588
I3712
sS'comedy'
p3589
I3988
sS'footstool'
p3590
I3930
sS'profound'
p3591
I2594
sS'immoral'
p3592
I4305
sS'eased'
p3593
I1049
sS'feast'
p3594
I1522
sS'mouthed'
p3595
I2080
sS'trimmed'
p3596
I1891
sS'slide'
p3597
I1473
sS'truth'
p3598
I644
sS'beasts'
p3599
I3688
sS'accompanied'
p3600
I4315
sS'giving'
p3601
I2232
sS'gazing'
p3602
I2829
sS'medicines'
p3603
I3936
sS'legions'
p3604
I3195
sS'treads'
p3605
I2897
sS'lie'
p3606
I1150
sS'pitying'
p3607
I2908
sS'debarred'
p3608
I1048
sS'bondage'
p3609
I4123
sS'doing'
p3610
I2265
sS"princes'"
p3611
I957
sS'ills'
p3612
I2715
sS'alteration'
p3613
I2666
sS'society'
p3614
I1916
sS'decays'
p3615
I1878
sS'exceeded'
p3616
I1166
sS'our'
p3617
I1298
sS'bay'
p3618
I2966
sS'tenth'
p3619
I1346
sS'wander'
p3620
I3728
sS'special'
p3621
I1636
sS'might'
p3622
I9
sS'respects'
p3623
I1556
sS'captiving'
p3624
I3403
sS'mew'
p3625
I4285
sS'plods'
p3626
I1584
sS'confess'
p3627
I1295
sS'sufficed'
p3628
I1331
sS'bad'
p3629
I1928
sS'mate'
p3630
I4140
sS'messenger'
p3631
I3508
sS'wondrous'
p3632
I2484
sS'impart'
p3633
I2000
sS'poets'
p3634
I1179
sS'fondly'
p3635
I4121
sS'red'
p3636
I2887
sS"one's"
p3637
I4211
sS'afford'
p3638
I2126
sS'stare'
p3639
I3781
sS'await'
p3640
I4192
sS'perish'
p3641
I522
sS'heretics'
p3642
I3914
sS'walk'
p3643
I2871
sS'embrew'
p3644
I3695
sS'greedy'
p3645
I3741
sS'darkly'
p3646
I1435
sS'embassy'
p3647
I1478
sS'gaol'
p3648
I2931
sS'hew'
p3649
I3250
sS'canker'
p3650
I1267
sS'tempt'
p3651
I3907
sS'shun'
p3652
I2704
sS'yore'
p3653
I1944
sS'sdeigne'
p3654
I3282
sS'cured'
p3655
I2718
sS'her'
p3656
I182
sS'spill'
p3657
I3486
sS'misuse'
p3658
I3163
sS'overthrow'
p3659
I2286
sS'could'
p3660
I328
sS'times'
p3661
I321
sS'counterpart'
p3662
I2203
sS'keen'
p3663
I791
sS"sorrow's"
p3664
I3817
sS'cures'
p3665
I1239
sS'mortal'
p3666
I361
sS'hence'
p3667
I578
sS'wrongfully'
p3668
I1902
sS'designed'
p3669
I4218
sS'miser'
p3670
I2043
sS'rudely'
p3671
I1900
sS'soundless'
p3672
I2144
sS'finest'
p3673
I3452
sS'new-appearing'
p3674
I346
sS'blown'
p3675
I4035
sS'pitied'
p3676
I3034
sS'savour'
p3677
I2826
sS'juncats'
p3678
I4248
sS'powerful'
p3679
I1673
sS'loveliness'
p3680
I201
sS'feasts'
p3681
I1625
sS"learned's"
p3682
I2107
sS'mocks'
p3683
I3994
sS'presume'
p3684
I894
sS'such'
p3685
I468
sS'unworthy'
p3686
I3278
sS'reigned'
p3687
I2542
sS'quality'
p3688
I622
sS"run'st"
p3689
I3049
sS"love'"
p3690
I1181
sS'sadly'
p3691
I385
sS'humbless'
p3692
I3242
sS'bears'
p3693
I1252
sS'unknown'
p3694
I2675
sS'vulgar'
p3695
I1339
sS'seat'
p3696
I1401
sS'comes'
p3697
I2253
sS'fray'
p3698
I3975
sS'intelligence'
p3699
I2236
sS'prouder'
p3700
I2305
sS'felly'
p3701
I4005
sS'travelled'
p3702
I1836
sS'badness'
p3703
I2769
sS'fairest'
p3704
I5
sS'painful'
p3705
I967
sS'prone'
p3706
I3015
sS'malady'
p3707
I3933
sS'stars'
p3708
I615
sS'portrait'
p3709
I3480
sS"were't"
p3710
I2817
sS'dreary'
p3711
I3968
sS'perforce'
p3712
I2933
sS'woo'
p3713
I3033
sS'meeds'
p3714
I3658
sS'makest'
p3715
I3352
sS'gladness'
p3716
I3812
sS'herself'
p3717
I2919
sS'commence'
p3718
I1284
sS'remember'
p3719
I1989
sS'steel'
p3720
I1879
sS'lightening'
p3721
I3345
sS'unlooked'
p3722
I384
sS'beseen'
p3723
I3631
sS'beseem'
p3724
I2917
sS'steed'
p3725
I4281
sS'riches'
p3726
I2248
sS'see'
p3727
I148
sS'bed'
p3728
I1010
sS'wilfully'
p3729
I2140
sS'jollity'
p3730
I1890
sS'rack'
p3731
I1201
sS'transgression'
p3732
I2740
sS"body's"
p3733
I1021
sS'loves'
p3734
I1296
sS'light'
p3735
I335
sS'dumb'
p3736
I916
sS"lily's"
p3737
I2410
sS'counting'
p3738
I2048
sS'devotion'
p3739
I3560
sS'descriptions'
p3740
I2494
sS'drunk'
p3741
I2725
sS'accusing'
p3742
I1747
sS'enforced'
p3743
I2169
sS'beggared'
p3744
I1924
sS'false'
p3745
I825
sS"forget'st"
p3746
I2413
sS'beggar'
p3747
I1889
sS'trusting'
p3748
I4040
sS'gently'
p3749
I2856
sS'tide'
p3750
I4226
sS'presenteth'
p3751
I660
sS'thereto'
p3752
I3494
sS'prophetic'
p3753
I2504
sS'torment'
p3754
I1360
sS'have'
p3755
I617
sS're-survey'
p3756
I1160
sS'need'
p3757
I1601
sS'trembling'
p3758
I3211
sS'she'
p3759
I168
sS'sings'
p3760
I429
sS'bastard'
p3761
I1933
sS'afraid'
p3762
I3424
sS'thessalian'
p3763
I3648
sS'skillful'
p3764
I4216
sS'bough'
p3765
I2454
sS'reeks'
p3766
I2895
sS'able'
p3767
I2217
sS'gravity'
p3768
I1563
sS'outward'
p3769
I713
sS'adjunct'
p3770
I2298
sS'field'
p3771
I88
sS'which'
p3772
I246
sS'deprave'
p3773
I3653
sS'willful'
p3774
I3707
sS'lily'
p3775
I3205
sS'adieu'
p3776
I1727
sS'unless'
p3777
I382
sS'storm'
p3778
I3335
sS'centre'
p3779
I3081
sS'tenure'
p3780
I1807
sS'privilage'
p3781
I1750
sS"time's"
p3782
I577
sS'harmful'
p3783
I2565
sS'offend'
p3784
I403
sS'lust'
p3785
I2872
sS'vengeance'
p3786
I3361
sS'amongst'
p3787
I3573
sS'darts'
p3788
I3264
sS'durefull'
p3789
I3306
sS'device'
p3790
I3685
sS'gait'
p3791
I2870
sS'expired'
p3792
I1019
sS'fervent'
p3793
I3699
sS"husband's"
p3794
I451
sS'statute'
p3795
I2943
sS'deny'
p3796
I472
sS'weene'
p3797
I3449
sS'wherewith'
p3798
I1785
sS'gather'
p3799
I4279
sS'stronger'
p3800
I1072
sS'disease'
p3801
I3101
sS'face'
p3802
I150
sS'looked'
p3803
I2503
sS'occasion'
p3804
I3987
sS'constrain'
p3805
I4319
sS'boldened'
p3806
I3290
sS'painting'
p3807
I1830
sS'outlive'
p3808
I1350
sS'tear'
p3809
I1143
sS'impression'
p3810
I2585
sS'slandered'
p3811
I2841
sS"th'utmost"
p3812
I3928
sS'wilful'
p3813
I1376
sS'couldst'
p3814
I131
sS"th'image"
p3815
I3340
sS'burden'
p3816
I2388
sS'poesy'
p3817
I2102
sS'portliness'
p3818
I3288
sS'bring'
p3819
I1278
sS"many's"
p3820
I2322
sS'changeful'
p3821
I4038
sS'utter'
p3822
I3921
sS'fear'
p3823
I432
sS'obsequious'
p3824
I1144
sS'filthy'
p3825
I4309
sS'pleased'
p3826
I3010
sS'handmaid'
p3827
I4289
sS'envy'
p3828
I1978
sS'untimely'
p3829
I4274
sS'knowledge'
p3830
I638
sS'chiding'
p3831
I3073
sS'philomel'
p3832
I2447
sS'mute'
p3833
I2191
sS'unions'
p3834
I405
sS'rash'
p3835
I3283
sS'intreat'
p3836
I3601
sS'baser'
p3837
I3301
sS"there's"
p3838
I3099
sS"poets'"
p3839
I3662
sS'tune'
p3840
I3012
sS'marriage'
p3841
I2663
sS'inhabit'
p3842
I1934
sS'inferior'
p3843
I2137
sS'exchanged'
p3844
I2540
sS'accessary'
p3845
I1289
sS'injuries'
p3846
I2262
sS'insight'
p3847
I4239
sS'handle'
p3848
I3209
sS'undivided'
p3849
I1297
sS'aread'
p3850
I3716
sS'wishing'
p3851
I1085
sS"the'accomplishment"
p3852
I3718
sS'lucky'
p3853
I4295
sS'bear'
p3854
I24
sS'sightless'
p3855
I1035
sS'six'
p3856
I4275
sS'abundance'
p3857
I42
sS'made'
p3858
I141
sS"o'erlook"
p3859
I2161
sS'words'
p3860
I990
sS'durst'
p3861
I1935
sS"maker's"
p3862
I3592
sS'leases'
p3863
I2811
sS'chips'
p3864
I2867
sS'rite'
p3865
I906
sS'nearly'
p3866
I1414
sS'endless'
p3867
I2513
sS'heretic'
p3868
I2809
sS"stick'st"
p3869
I482
sS'glory'
p3870
I962
sS'ended'
p3871
I4018
sS'gust'
p3872
I2635
sS'imperious'
p3873
I3925
sS'married'
p3874
I404
sS'calling'
p3875
I3260
sS'overflowing'
p3876
I3858
sS'painter'
p3877
I927
sS'dangerous'
p3878
I4090
sS'cruelness'
p3879
I3538
sS'fixed'
p3880
I871
sS'deceived'
p3881
I2318
sS'spotted'
p3882
I3973
sS'strengthened'
p3883
I2440
sS'sluttish'
p3884
I1675
sS'untrue'
p3885
I2002
sS'outbraves'
p3886
I2341
sS'farthest'
p3887
I1453
sS'prayers'
p3888
I2528
sS'frame'
p3889
I247
sS'shake'
p3890
I755
sS'accord'
p3891
I3697
sS'freeze'
p3892
I3998
sS'legacy'
p3893
I203
sS'merits'
p3894
I3024
sS'changes'
p3895
I2590
sS'desperate'
p3896
I3109
sS'greece'
p3897
I3870
sS'sleeping'
p3898
I3198
sS'despoiled'
p3899
I3961
sS"intermixed'"
p3900
I2436
sS'allured'
p3901
I3795
sS'battery'
p3902
I3434
sS'creating'
p3903
I2629
sS'tripping'
p3904
I3192
sS'error'
p3905
I2682
sS'closet'
p3906
I1501
sS'placed'
p3907
I1627
sS"master's"
p3908
I3918
sS'joys'
p3909
I3331
sS'vows'
p3910
I2648
sS'brunt'
p3911
I3399
sS'worship'
p3912
I3137
sS'favor'
p3913
I4051
sS'written'
p3914
I986
sS'converted'
p3915
I372
sS'boughs'
p3916
I2006
sS'progress'
p3917
I2085
sS'neither'
p3918
I715
sS'besmeared'
p3919
I1676
sS'complement'
p3920
I3591
sS'wiry'
p3921
I2858
sS'stoutly'
p3922
I4282
sS'attention'
p3923
I4283
sS'weighing'
p3924
I4166
sS'plenteous'
p3925
I4135
sS'amen'
p3926
I2213
sS'dressings'
p3927
I2787
sS'joy'
p3928
I389
sS'sorrow'
p3929
I1248
sS'eschew'
p3930
I4082
sS'beweep'
p3931
I1078
sS'within'
p3932
I65
sS'willing'
p3933
I313
sS'never-resting'
p3934
I265
sS'antick'
p3935
I4167
sS'spoil'
p3936
I1883
sS'precious'
p3937
I1118
sS'weary'
p3938
I365
sS'swift'
p3939
I1475
sS'thank'
p3940
I2127
sS'hits'
p3941
I2747
sS'weeks'
p3942
I2681
sS'instant'
p3943
I1635
sS'limits'
p3944
I1450
sS'trump'
p3945
I3668
sS'taking'
p3946
I3317
sS'tyraness'
p3947
I3358
sS'vanishing'
p3948
I1839
sS'minds'
p3949
I2654
sS'preyed'
p3950
I4037
sS'ruminate'
p3951
I1860
sS'assure'
p3952
I2583
sS'admit'
p3953
I2665
sS'devour'
p3954
I785
sS'figures'
p3955
I2412
sS'lordeth'
p3956
I3354
sS"store's"
p3957
I2963
sS'runneth'
p3958
I3496
sS'conquered'
p3959
I2281
sS'passing'
p3960
I3468
sS'lofty'
p3961
I553
sS"beds'"
p3962
I3030
sS'aye'
p3963
I2534
sS'comment'
p3964
I663
sS'castles'
p3965
I3427
sS'torn'
p3966
I3156
sS'statues'
p3967
I1680
sS'unfolding'
p3968
I1638
sS'shewed'
p3969
I3761
sS'melting'
p3970
I3811
sS'high'
p3971
I723
sS'commend'
p3972
I1948
sS"wretch's"
p3973
I2033
sS'laugh'
p3974
I3364
sS'forbear'
p3975
I1400
sS'kings'
p3976
I1106
sS'accursed'
p3977
I4336
sS'unclean'
p3978
I3627
sS'blinded'
p3979
I3332
sS'grind'
p3980
I2559
sS'death-bed'
p3981
I2020
sS'second'
p3982
I1762
sS'addition'
p3983
I850
sS'wills'
p3984
I2764
sS'endite'
p3985
I3256
sS"friend'"
p3986
I1578
sS'gaze'
p3987
I255
sS'slowly'
p3988
I4346
sS'certain'
p3989
I2661
sS'poet'
p3990
I732
sS'waste'
p3991
I68
sS'tillage'
p3992
I171
sS'divinely'
p3993
I4068
sS'tyranny'
p3994
I2656
sS'senses'
p3995
I3017
sS'proudest'
p3996
I2135
sS"war's"
p3997
I1685
sS'painted'
p3998
I707
sS'deer'
p3999
I4155
sS'sufficient'
p4000
I3719
sS'releasing'
p4001
I2243
sS'queene'
p4002
I4288
sS'cockatrices'
p4003
I3929
sS"hear'st"
p4004
I387
sS'lets'
p4005
I601
sS'love-suit'
p4006
I2959
sS'pageants'
p4007
I3982
sS'last'
p4008
I1929
sS'general'
p4009
I2302
sS'present'
p4010
I1529
sS"fram'd"
p4011
I4217
sS'debtor'
p4012
I2945
sS'main'
p4013
I1783
sS'sourly'
p4014
I1291
sS'surety-like'
p4015
I2938
sS'fearful'
p4016
I1882
sS'coals'
p4017
I4338
sS'means'
p4018
I698
sS'addeth'
p4019
I2955
sS'as'
p4020
I20
sS'three-fold'
p4021
I2927
sS'harden'
p4022
I3681
sS'riper'
p4023
I18
sS'wild'
p4024
I2456
sS'damsels'
p4025
I4102
sS'at'
p4026
I498
sS'sith'
p4027
I3628
sS'dight'
p4028
I3262
sS'goodness'
p4029
I2719
sS'ripe'
p4030
I2226
sS'self-pleasing'
p4031
I3296
sS'almost'
p4032
I1094
sS'ne'
p4033
I3285
sS'up-locked'
p4034
I1619
sS'thus'
p4035
I1043
sS'entice'
p4036
I4256
sS'over-goes'
p4037
I2458
sS'pleasauns'
p4038
I4369
sS'askew'
p4039
I3325
sS'turns'
p4040
I941
sS'lambs'
p4041
I2376
sS'sits'
p4042
I461
sS'new-fangled'
p4043
I2294
sS'stands'
p4044
I1797
sS'all-eating'
p4045
I118
sS'scorneth'
p4046
I4031
sS'dilate'
p4047
I4146
sS'perhaps'
p4048
I1995
sS'began'
p4049
I4061
sS'cross'
p4050
I1250
sS'spends'
p4051
I2131
sS'largess'
p4052
I221
sS'adverse'
p4053
I1283
sS'concealed'
p4054
I2259
sS'strange'
p4055
I1643
sS'duteous'
p4056
I373
sS'merciful'
p4057
I3932
sS'kingly'
p4058
I2633
sS'party'
p4059
I1282
sS'nursed'
p4060
I2091
sS'well-contented'
p4061
I1156
sS'blooms'
p4062
I1658
sS'witless'
p4063
I4324
sS'toil'
p4064
I1012
sS'flesh'
p4065
I1444
sS'shames'
p4066
I1805
sS'huntsman'
p4067
I4150
sS'lurkest'
p4068
I3232
sS'upon'
p4069
I204
sS'effect'
p4070
I286
sS'outcast'
p4071
I1077
sS'beast'
p4072
I1581
sS'weigh'
p4073
I2746
sS"december's"
p4074
I2384
sS'fierce'
p4075
I789
sS'judgment'
p4076
I1694
sS'betray'
p4077
I2373
sS'shamed'
p4078
I2003
sS'keep'
p4079
I445
sS'audit'
p4080
I236
sS'scarcely'
p4081
I1562
sS'possesseth'
p4082
I1814
sS'off'
p4083
I1060
sS'mention'
p4084
I3636
sS'i'
p4085
I489
sS'approve'
p4086
I1421
sS'colour'
p4087
I2434
sS'love-afamished'
p4088
I4360
sS'lodwick'
p4089
I3717
sS'thought'
p4090
I490
sS'amends'
p4091
I2429
sS'spectator'
p4092
I3981
sS'drowns'
p4093
I2814
sS'tibey'
p4094
I2337
sS'fail'
p4095
I3439
sS'builded'
p4096
I2800
sS'twire'
p4097
I1068
sS'bending'
p4098
I2261
sS'restore'
p4099
I2936
sS'feathered'
p4100
I3041
sS'stores'
p4101
I1927
sS'kiss'
p4102
I2860
sS'liker'
p4103
I708
sS'discord'
p4104
I4128
sS"o'erpressed"
p4105
I2992
sS'boot'
p4106
I2952
sS"circle's"
p4107
I4058
sS'debateth'
p4108
I687
sS'should'
p4109
I17
sS'interim'
p4110
I1714
sS'books'
p4111
I3556
sS"lookers'"
p4112
I3547
sS'laurel'
p4113
I3640
sS'skill'
p4114
I717
sS'thither'
p4115
I3185
sS'warrantise'
p4116
I3142
sS'afflicted'
p4117
I3241
sS'web'
p4118
I3577
sS'now'
p4119
I55
sS'panther'
p4120
I3974
sS'pompous'
p4121
I4250
sS'bell'
p4122
I1983
sS'smith'
p4123
I3700
sS'day'
p4124
I368
sS'reasons'
p4125
I1565
sS'add'
p4126
I1959
sS'book'
p4127
I973
sS'unmoved'
p4128
I2332
sS'wet'
p4129
I431
sS'destroy'
p4130
I4017
sS"infant's"
p4131
I3047
sS'smart'
p4132
I3233
sS'rearward'
p4133
I2282
sS'match'
p4134
I4367
sS'raven'
p4135
I2847
sS'long-lacked'
p4136
I3224
sS'wooed'
p4137
I1968
sS'gods'
p4138
I3599
sS'increased'
p4139
I4148
sS'fate'
p4140
I1083
sS'worlds'
p4141
I3971
sS'testy'
p4142
I2999
sS'devised'
p4143
I2173
sS'recure'
p4144
I3552
sS"who's"
p4145
I1344
sS'rind'
p4146
I3619
sS'crushed'
p4147
I1832
sS'smother'
p4148
I1520
sS'royalty'
p4149
I4249
sS'five'
p4150
I1766
sS'know'
p4151
I608
sS'knot'
p4152
I3318
sS'press'
p4153
I2996
sS'incessant'
p4154
I3435
sS'woeful'
p4155
I3071
sS'loss'
p4156
I1244
sS'necessary'
p4157
I2532
sS"garments'"
p4158
I2304
sS'inviting'
p4159
I2808
sS'redound'
p4160
I3498
sS'starry'
p4161
I3213
sS'perpetual'
p4162
I1711
sS'rich-proud'
p4163
I1847
sS'admitted'
p4164
I2957
sS'dove'
p4165
I2619
sS'arising'
p4166
I1098
sS'heed'
p4167
I2360
sS'lose'
p4168
I774
sS'bane'
p4169
I3844
sS'become'
p4170
I2915
sS'dispraise'
p4171
I2351
sS'soft'
p4172
I3208
sS'indigest'
p4173
I2625
sS'overcast'
p4174
I3730
sS'therein'
p4175
I943
sS'fruitless'
p4176
I3590
sS'shed'
p4177
I4114
sS'because'
p4178
I1419
sS'workings'
p4179
I2327
sS'portly'
p4180
I3276
sS'peer'
p4181
I4143
sS'thief'
p4182
I1292
sS'authority'
p4183
I1906
sS'self'
p4184
I49
sS'hair'
p4185
I3773
sS'shew'
p4186
I3886
sS'growth'
p4187
I2448
sS'home'
p4188
I1803
sS'transport'
p4189
I2690
sS'affections'
p4190
I2553
sS"heaven's"
p4191
I869
sS'leaf'
p4192
I3639
sS'lead'
p4193
I1406
sS'broad'
p4194
I2141
sS'lean'
p4195
I2199
sS'eternize'
p4196
I4232
sS'whole'
p4197
I2948
sS'leap'
p4198
I1463
sS'does'
p4199
I4292
sS'passion'
p4200
I818
sS'masked'
p4201
I1216
sS"o'ertake"
p4202
I1228
sS'ensample'
p4203
I3329
sS'thinly'
p4204
I1628
sS'noise'
p4205
I3517
sS'obey'
p4206
I3897
sS'slight'
p4207
I1352
sS'rock'
p4208
I4013
sS'how'
p4209
I125
sS'expire'
p4210
I2019
sS'belay'
p4211
I3428
sS'worthy'
p4212
I1008
sS'instinct'
p4213
I1586
sS'choked'
p4214
I3859
sS'stay'
p4215
I681
sS"travel's"
p4216
I1573
sS'worths'
p4217
I1821
sS'hiding'
p4218
I1233
sS'gained'
p4219
I3762
sS'waving'
p4220
I4291
sS'throng'
p4221
I3396
sS"murd'rous"
p4222
I467
sS'rare'
p4223
I862
sS'engines'
p4224
I3438
sS'linger'
p4225
I2288
sS'universe'
p4226
I2547
sS'harder'
p4227
I2924
sS'swear'
p4228
I2903
sS'sweat'
p4229
I3677
sS'entrapped'
p4230
I3784
sS"adorn'd"
p4231
I4177
sS'fearless'
p4232
I3388
sS'beshrew'
p4233
I2920
sS'outstripped'
p4234
I1164
sS'reckoning'
p4235
I2646
sS'ways'
p4236
I4064
sS'letters'
p4237
I3865
sS'depart'
p4238
I324
sS'owe'
p4239
I1980
sS'wakened'
p4240
I2695
sS'repair'
p4241
I159
sS'guard'
p4242
I1569
sS'weather'
p4243
I4050
sS'promise'
p4244
I1224
sS'captived'
p4245
I3846
sS'female'
p4246
I3058
sS'lawful'
p4247
I1286
sS'prefixed'
p4248
I3892
sS'monuments'
p4249
I1670
sS'thence'
p4250
I1549
sS'gazeth'
p4251
I829
sS'suborned'
p4252
I2837
sS'fired'
p4253
I3327
sS'lasting'
p4254
I2771
sS'degree'
p4255
I4076
sS'whom'
p4256
I521
sS'friends'
p4257
I1086
sS'pitty'
p4258
I3799
sS'soil'
p4259
I1855
sS'hush'
p4260
I2452
sS'trenches'
p4261
I89
sS'smit'
p4262
I3709
sS'spread'
p4263
I955
sS'dropping'
p4264
I3503
sS'inner'
p4265
I3230
sS'heresy'
p4266
I3915
sS"lov'd"
p4267
I4077
sS"grief's"
p4268
I1074
sS'function'
p4269
I2605
sS'ivory'
p4270
I3450
sS'buy'
p4271
I3095
sS'well-tuned'
p4272
I399
sS'hoisted'
p4273
I2689
sS'surpassing'
p4274
I4139
sS'brand'
p4275
I2570
sS'close-bleeding'
p4276
I3217
sS'invocate'
p4277
I1347
sS"wand'ring"
p4278
I2673
sS'hated'
p4279
I2881
sS'prophecies'
p4280
I2500
sS'plague'
p4281
I2622
sS'gain'
p4282
I1423
sS'captives'
p4283
I3212
sS'beat'
p4284
I3602
sS'delivers'
p4285
I2607
sS'highest'
p4286
I4043
sS'eat'
p4287
I81
sS'bud'
p4288
I64
sS'he'
p4289
I175
sS'count'
p4290
I137
sS'allurement'
p4291
I3694
sS'tossed'
p4292
I3722
sS'supposeth'
p4293
I4032
sS'evident'
p4294
I476
sS'whether'
p4295
I1325
sS'flit'
p4296
I3829
sS'grieve'
p4297
I1127
sS'signed'
p4298
I4262
sS"eyes'"
p4299
I2970
sS'record'
p4300
I1688
sS'cruel'
p4301
I47
sS'catching'
p4302
I4340
sS'limit'
p4303
I2166
sS'conceive'
p4304
I3308
sS'monument'
p4305
I2156
sS'minutes'
p4306
I626
sS'display'
p4307
I4245
sS'whylest'
p4308
I3815
sS'furies'
p4309
I4330
sS'rightly'
p4310
I2334
sS'play'
p4311
I259
sS'deaths'
p4312
I1668
sS'devise'
p4313
I1999
sS'accounts'
p4314
I3656
sS'measure'
p4315
I1953
sS'dearth'
p4316
I3085
sS'denote'
p4317
I3120
sS'beats'
p4318
I4008
sS'lived'
p4319
I1931
sS'liberties'
p4320
I4122
sS'dyed'
p4321
I2431
sS'preposterously'
p4322
I2546
sS'sparks'
p4323
I4339
sS'partly'
p4324
I2604
sS'self-killed'
p4325
I309
sS'proceeds'
p4326
I2907
sS'endeared'
p4327
I1138
sS'love-pined'
p4328
I3226
sS'bones'
p4329
I1159
sS'renowned'
p4330
I3873
sS'compared'
p4331
I2293
sS'didst'
p4332
I1225
sS'deadly'
p4333
I3263
sS'oak'
p4334
I3305
sS'forests'
p4335
I2470
sS'smiling'
p4336
I2803
sS'slumbers'
p4337
I1799
sS'other'
p4338
I589
sS'prizing'
p4339
I3048
sS'sick'
p4340
I2119
sS'unlettered'
p4341
I2215
sS'behold'
p4342
I545
sS'out'
p4343
I678
sS'scandal'
p4344
I2587
sS'illusion'
p4345
I3463
sS'dresses'
p4346
I3769
sS'pupil'
p4347
I711
sS'semblance'
p4348
I590
sS'kinds'
p4349
I2543
sS'secretly'
p4350
I3863
sS'ears'
p4351
I3006
sS'oppression'
p4352
I1050
sS'variation'
p4353
I2058
sS'insults'
p4354
I2520
sS'methinks'
p4355
I618
sS'chance'
p4356
I770
sS'longing'
p4357
I3100
sS'earthly'
p4358
I734
sS'pacify'
p4359
I3379
sS'gloriously'
p4360
I4181
sS'astronomy'
p4361
I616
sS'veil'
p4362
I2358
sS'tan'
p4363
I2652
sS'ghost'
p4364
I2233
sS'stirred'
p4365
I855
sS'misdeem'
p4366
I4047
sS'self-example'
p4367
I3037
sS'ranks'
p4368
I1177
sS"he's"
p4369
I1838
sS'love-kindling'
p4370
I3174
sS'jewel'
p4371
I1040
sS'abhor'
p4372
I3144
sS'entreat'
p4373
I3244
sS'look'
p4374
I153
sS'lift'
p4375
I3832
sS'thrivers'
p4376
I2830
sS"sway'st"
p4377
I2855
sS'vassal'
p4378
I1739
sS'understand'
p4379
I3911
sS'accidents'
p4380
I2644
sS'indirectly'
p4381
I1919
sS'augmented'
p4382
I3679
ssS'rhymepairs'
p4383
(lp4384
(lp4385
S'increase'
p4386
aS'decease'
p4387
aa(lp4388
S'die'
p4389
aS'memory'
p4390
aa(lp4391
S'eyes'
p4392
aS'lies'
p4393
aa(lp4394
S'fuel'
p4395
aS'cruel'
p4396
aa(lp4397
S'ornament'
p4398
aS'content'
p4399
aa(lp4400
S'spring'
p4401
aS'niggarding'
p4402
aa(lp4403
S'be'
p4404
aS'thee'
p4405
aa(lp4406
S'brow'
p4407
aS'now'
p4408
aa(lp4409
S'field'
p4410
aS'held'
p4411
aa(lp4412
S'lies'
p4413
aS'eyes'
p4414
aa(lp4415
S'days'
p4416
aS'praise'
p4417
aa(lp4418
S'use'
p4419
aS"excuse'"
p4420
aa(lp4421
S'mine'
p4422
aS'thine'
p4423
aa(lp4424
S'old'
p4425
aS'cold'
p4426
aa(lp4427
S'viewest'
p4428
aS'renewest'
p4429
aa(lp4430
S'another'
p4431
aS'mother'
p4432
aa(lp4433
S'womb'
p4434
aS'tomb'
p4435
aa(lp4436
S'husbandry'
p4437
aS'posterity'
p4438
aa(lp4439
S'thee'
p4440
aS'see'
p4441
aa(lp4442
S'prime'
p4443
aS'time'
p4444
aa(lp4445
S'be'
p4446
aS'thee'
p4447
aa(lp4448
S'spend'
p4449
aS'lend'
p4450
aa(lp4451
S'legacy'
p4452
aS'free'
p4453
aa(lp4454
S'abuse'
p4455
aS'use'
p4456
aa(lp4457
S'give'
p4458
aS'live'
p4459
aa(lp4460
S'alone'
p4461
aS'gone'
p4462
aa(lp4463
S'deceive'
p4464
aS'leave'
p4465
aa(lp4466
S'thee'
p4467
aS'be'
p4468
aa(lp4469
S'frame'
p4470
aS'same'
p4471
aa(lp4472
S'dwell'
p4473
aS'excel'
p4474
aa(lp4475
S'on'
p4476
aS'gone'
p4477
aa(lp4478
S'there'
p4479
aS'where'
p4480
aa(lp4481
S'left'
p4482
aS'bereft'
p4483
aa(lp4484
S'glass'
p4485
aS'was'
p4486
aa(lp4487
S'meet'
p4488
aS'sweet'
p4489
aa(lp4490
S'deface'
p4491
aS'place'
p4492
aa(lp4493
S'distilled'
p4494
aS'self-killed'
p4495
aa(lp4496
S'usury'
p4497
aS'thee'
p4498
aa(lp4499
S'loan'
p4500
aS'one'
p4501
aa(lp4502
S'art'
p4503
aS'depart'
p4504
aa(lp4505
S'thee'
p4506
aS'posterity'
p4507
aa(lp4508
S'fair'
p4509
aS'heir'
p4510
aa(lp4511
S'light'
p4512
aS'sight'
p4513
aa(lp4514
S'eye'
p4515
aS'majesty'
p4516
aa(lp4517
S'hill'
p4518
aS'still'
p4519
aa(lp4520
S'age'
p4521
aS'pilgrimage'
p4522
aa(lp4523
S'car'
p4524
aS'are'
p4525
aa(lp4526
S'day'
p4527
aS'way'
p4528
aa(lp4529
S'noon'
p4530
aS'son'
p4531
aa(lp4532
S'sadly'
p4533
aS'gladly'
p4534
aa(lp4535
S'joy'
p4536
aS'annoy'
p4537
aa(lp4538
S'sounds'
p4539
aS'confounds'
p4540
aa(lp4541
S'ear'
p4542
aS'bear'
p4543
aa(lp4544
S'another'
p4545
aS'mother'
p4546
aa(lp4547
S'ordering'
p4548
aS'sing'
p4549
aa(lp4550
S'one'
p4551
aS"none'"
p4552
aa(lp4553
S'eye'
p4554
aS'die'
p4555
aa(lp4556
S'life'
p4557
aS'wife'
p4558
aa(lp4559
S'weep'
p4560
aS'keep'
p4561
aa(lp4562
S'behind'
p4563
aS'mind'
p4564
aa(lp4565
S'spend'
p4566
aS'end'
p4567
aa(lp4568
S'it'
p4569
aS'it'
p4570
aa(lp4571
S'sits'
p4572
aS'commits'
p4573
aa(lp4574
S'any'
p4575
aS'many'
p4576
aa(lp4577
S'unprovident'
p4578
aS'evident'
p4579
aa(lp4580
S'hate'
p4581
aS'ruinate'
p4582
aa(lp4583
S'conspire'
p4584
aS'desire'
p4585
aa(lp4586
S'mind'
p4587
aS'kind'
p4588
aa(lp4589
S'love'
p4590
aS'prove'
p4591
aa(lp4592
S'me'
p4593
aS'thee'
p4594
aa(lp4595
S"grow'st"
p4596
aS"bestow'st"
p4597
aa(lp4598
S'departest'
p4599
aS'convertest'
p4600
aa(lp4601
S'increase'
p4602
aS'cease'
p4603
aa(lp4604
S'decay'
p4605
aS'away'
p4606
aa(lp4607
S'store'
p4608
aS'more'
p4609
aa(lp4610
S'perish'
p4611
aS'cherish'
p4612
aa(lp4613
S'thereby'
p4614
aS'die'
p4615
aa(lp4616
S'time'
p4617
aS'prime'
p4618
aa(lp4619
S'night'
p4620
aS'white'
p4621
aa(lp4622
S'leaves'
p4623
aS'sheaves'
p4624
aa(lp4625
S'herd'
p4626
aS'beard'
p4627
aa(lp4628
S'make'
p4629
aS'forsake'
p4630
aa(lp4631
S'go'
p4632
aS'grow'
p4633
aa(lp4634
S'defence'
p4635
aS'hence'
p4636
aa(lp4637
S'are'
p4638
aS'prepare'
p4639
aa(lp4640
S'live'
p4641
aS'give'
p4642
aa(lp4643
S'lease'
p4644
aS'decease'
p4645
aa(lp4646
S'were'
p4647
aS'bear'
p4648
aa(lp4649
S'decay'
p4650
aS'day'
p4651
aa(lp4652
S'uphold'
p4653
aS'cold'
p4654
aa(lp4655
S'know'
p4656
aS'so'
p4657
aa(lp4658
S'pluck'
p4659
aS'luck'
p4660
aa(lp4661
S'astronomy'
p4662
aS'quality'
p4663
aa(lp4664
S'tell'
p4665
aS'well'
p4666
aa(lp4667
S'wind'
p4668
aS'find'
p4669
aa(lp4670
S'derive'
p4671
aS'thrive'
p4672
aa(lp4673
S'art'
p4674
aS'convert'
p4675
aa(lp4676
S'prognosticate'
p4677
aS'date'
p4678
aa(lp4679
S'grows'
p4680
aS'shows'
p4681
aa(lp4682
S'moment'
p4683
aS'comment'
p4684
aa(lp4685
S'increase'
p4686
aS'decrease'
p4687
aa(lp4688
S'sky'
p4689
aS'memory'
p4690
aa(lp4691
S'stay'
p4692
aS'decay'
p4693
aa(lp4694
S'sight'
p4695
aS'night'
p4696
aa(lp4697
S'you'
p4698
aS'new'
p4699
aa(lp4700
S'way'
p4701
aS'decay'
p4702
aa(lp4703
S'Time'
p4704
aS'rhyme'
p4705
aa(lp4706
S'hours'
p4707
aS'flowers'
p4708
aa(lp4709
S'unset'
p4710
aS'counterfeit'
p4711
aa(lp4712
S'repair'
p4713
aS'fair'
p4714
aa(lp4715
S'pen'
p4716
aS'men'
p4717
aa(lp4718
S'still'
p4719
aS'skill'
p4720
aa(lp4721
S'come'
p4722
aS'tomb'
p4723
aa(lp4724
S'deserts'
p4725
aS'parts'
p4726
aa(lp4727
S'eyes'
p4728
aS'lies'
p4729
aa(lp4730
S'graces'
p4731
aS'faces'
p4732
aa(lp4733
S'age'
p4734
aS'rage'
p4735
aa(lp4736
S'tongue'
p4737
aS'song'
p4738
aa(lp4739
S'time'
p4740
aS'rhyme'
p4741
aa(lp4742
S'day'
p4743
aS'May'
p4744
aa(lp4745
S'temperate'
p4746
aS'date'
p4747
aa(lp4748
S'shines'
p4749
aS'declines'
p4750
aa(lp4751
S'dimmed'
p4752
aS'untrimmed'
p4753
aa(lp4754
S'fade'
p4755
aS'shade'
p4756
aa(lp4757
S"ow'st"
p4758
aS"grow'st"
p4759
aa(lp4760
S'see'
p4761
aS'thee'
p4762
aa(lp4763
S'paws'
p4764
aS'jaws'
p4765
aa(lp4766
S'brood'
p4767
aS'blood'
p4768
aa(lp4769
S"fleet'st"
p4770
aS'sweets'
p4771
aa(lp4772
S'Time'
p4773
aS'crime'
p4774
aa(lp4775
S'brow'
p4776
aS'allow'
p4777
aa(lp4778
S'pen'
p4779
aS'men'
p4780
aa(lp4781
S'wrong'
p4782
aS'young'
p4783
aa(lp4784
S'painted'
p4785
aS'acquainted'
p4786
aa(lp4787
S'passion'
p4788
aS'fashion'
p4789
aa(lp4790
S'rolling'
p4791
aS'controlling'
p4792
aa(lp4793
S'gazeth'
p4794
aS'amazeth'
p4795
aa(lp4796
S'created'
p4797
aS'defeated'
p4798
aa(lp4799
S'a-doting'
p4800
aS'nothing'
p4801
aa(lp4802
S'pleasure'
p4803
aS'treasure'
p4804
aa(lp4805
S'muse'
p4806
aS'use'
p4807
aa(lp4808
S'verse'
p4809
aS'rehearse'
p4810
aa(lp4811
S'compare'
p4812
aS'rare'
p4813
aa(lp4814
S'gems'
p4815
aS'hems'
p4816
aa(lp4817
S'write'
p4818
aS'bright'
p4819
aa(lp4820
S'fair'
p4821
aS'air'
p4822
aa(lp4823
S'well'
p4824
aS'sell'
p4825
aa(lp4826
S'old'
p4827
aS'behold'
p4828
aa(lp4829
S'date'
p4830
aS'expiate'
p4831
aa(lp4832
S'thee'
p4833
aS'me'
p4834
aa(lp4835
S'heart'
p4836
aS'art'
p4837
aa(lp4838
S'wary'
p4839
aS'chary'
p4840
aa(lp4841
S'will'
p4842
aS'ill'
p4843
aa(lp4844
S'slain'
p4845
aS'again'
p4846
aa(lp4847
S'stage'
p4848
aS'rage'
p4849
aa(lp4850
S'part'
p4851
aS'heart'
p4852
aa(lp4853
S'say'
p4854
aS'decay'
p4855
aa(lp4856
S'rite'
p4857
aS'might'
p4858
aa(lp4859
S'eloquence'
p4860
aS'recompense'
p4861
aa(lp4862
S'breast'
p4863
aS'expressed'
p4864
aa(lp4865
S'writ'
p4866
aS'wit'
p4867
aa(lp4868
S'stelled'
p4869
aS'held'
p4870
aa(lp4871
S'heart'
p4872
aS'art'
p4873
aa(lp4874
S'skill'
p4875
aS'still'
p4876
aa(lp4877
S'lies'
p4878
aS'eyes'
p4879
aa(lp4880
S'done'
p4881
aS'sun'
p4882
aa(lp4883
S'me'
p4884
aS'thee'
p4885
aa(lp4886
S'art'
p4887
aS'heart'
p4888
aa(lp4889
S'stars'
p4890
aS'bars'
p4891
aa(lp4892
S'boast'
p4893
aS'most'
p4894
aa(lp4895
S'spread'
p4896
aS'buried'
p4897
aa(lp4898
S'eye'
p4899
aS'die'
p4900
aa(lp4901
S'fight'
p4902
aS'quite'
p4903
aa(lp4904
S'foiled'
p4905
aS'toiled'
p4906
aa(lp4907
S'beloved'
p4908
aS'removed'
p4909
aa(lp4910
S'vassalage'
p4911
aS'embassage'
p4912
aa(lp4913
S'knit'
p4914
aS'wit'
p4915
aa(lp4916
S'mine'
p4917
aS'thine'
p4918
aa(lp4919
S'it'
p4920
aS'it'
p4921
aa(lp4922
S'moving'
p4923
aS'loving'
p4924
aa(lp4925
S'aspect'
p4926
aS'respect'
p4927
aa(lp4928
S'thee'
p4929
aS'me'
p4930
aa(lp4931
S'bed'
p4932
aS'head'
p4933
aa(lp4934
S'tired'
p4935
aS'expired'
p4936
aa(lp4937
S'abide'
p4938
aS'wide'
p4939
aa(lp4940
S'thee'
p4941
aS'see'
p4942
aa(lp4943
S'sight'
p4944
aS'night'
p4945
aa(lp4946
S'view'
p4947
aS'new'
p4948
aa(lp4949
S'mind'
p4950
aS'find'
p4951
aa(lp4952
S'plight'
p4953
aS'night'
p4954
aa(lp4955
S'rest'
p4956
aS'oppressed'
p4957
aa(lp4958
S'reign'
p4959
aS'complain'
p4960
aa(lp4961
S'me'
p4962
aS'thee'
p4963
aa(lp4964
S'bright'
p4965
aS'night'
p4966
aa(lp4967
S'heaven'
p4968
aS'even'
p4969
aa(lp4970
S'longer'
p4971
aS'stronger'
p4972
aa(lp4973
S'eyes'
p4974
aS'cries'
p4975
aa(lp4976
S'state'
p4977
aS'fate'
p4978
aa(lp4979
S'hope'
p4980
aS'scope'
p4981
aa(lp4982
S'possessed'
p4983
aS'least'
p4984
aa(lp4985
S'despising'
p4986
aS'arising'
p4987
aa(lp4988
S'state'
p4989
aS'gate'
p4990
aa(lp4991
S'brings'
p4992
aS'kings'
p4993
aa(lp4994
S'thought'
p4995
aS'sought'
p4996
aa(lp4997
S'past'
p4998
aS'waste'
p4999
aa(lp5000
S'flow'
p5001
aS'woe'
p5002
aa(lp5003
S'night'
p5004
aS'sight'
p5005
aa(lp5006
S'foregone'
p5007
aS'moan'
p5008
aa(lp5009
S"o'er"
p5010
aS'before'
p5011
aa(lp5012
S'friend'
p5013
aS'end'
p5014
aa(lp5015
S'hearts'
p5016
aS'parts'
p5017
aa(lp5018
S'dead'
p5019
aS'buried'
p5020
aa(lp5021
S'tear'
p5022
aS'appear'
p5023
aa(lp5024
S'eye'
p5025
aS'lie'
p5026
aa(lp5027
S'live'
p5028
aS'give'
p5029
aa(lp5030
S'gone'
p5031
aS'alone'
p5032
aa(lp5033
S'thee'
p5034
aS'me'
p5035
aa(lp5036
S'day'
p5037
aS're-survey'
p5038
aa(lp5039
S'cover'
p5040
aS'lover'
p5041
aa(lp5042
S'time'
p5043
aS'rhyme'
p5044
aa(lp5045
S'pen'
p5046
aS'men'
p5047
aa(lp5048
S'thought'
p5049
aS'brought'
p5050
aa(lp5051
S'age'
p5052
aS'equipage'
p5053
aa(lp5054
S'prove'
p5055
aS"love'"
p5056
aa(lp5057
S'seen'
p5058
aS'green'
p5059
aa(lp5060
S'eye'
p5061
aS'alchemy'
p5062
aa(lp5063
S'ride'
p5064
aS'hide'
p5065
aa(lp5066
S'face'
p5067
aS'disgrace'
p5068
aa(lp5069
S'shine'
p5070
aS'mine'
p5071
aa(lp5072
S'brow'
p5073
aS'now'
p5074
aa(lp5075
S'disdaineth'
p5076
aS'staineth'
p5077
aa(lp5078
S'day'
p5079
aS'way'
p5080
aa(lp5081
S'cloak'
p5082
aS'smoke'
p5083
aa(lp5084
S'break'
p5085
aS'speak'
p5086
aa(lp5087
S'face'
p5088
aS'disgrace'
p5089
aa(lp5090
S'grief'
p5091
aS'relief'
p5092
aa(lp5093
S'loss'
p5094
aS'cross'
p5095
aa(lp5096
S'sheds'
p5097
aS'deeds'
p5098
aa(lp5099
S'done'
p5100
aS'sun'
p5101
aa(lp5102
S'mud'
p5103
aS'bud'
p5104
aa(lp5105
S'this'
p5106
aS'amiss'
p5107
aa(lp5108
S'compare'
p5109
aS'are'
p5110
aa(lp5111
S'sense'
p5112
aS'commence'
p5113
aa(lp5114
S'advocate'
p5115
aS'hate'
p5116
aa(lp5117
S'be'
p5118
aS'me'
p5119
aa(lp5120
S'twain'
p5121
aS'remain'
p5122
aa(lp5123
S'one'
p5124
aS'alone'
p5125
aa(lp5126
S'respect'
p5127
aS'effect'
p5128
aa(lp5129
S'spite'
p5130
aS'delight'
p5131
aa(lp5132
S'thee'
p5133
aS'me'
p5134
aa(lp5135
S'shame'
p5136
aS'name'
p5137
aa(lp5138
S'sort'
p5139
aS'report'
p5140
aa(lp5141
S'delight'
p5142
aS'spite'
p5143
aa(lp5144
S'youth'
p5145
aS'truth'
p5146
aa(lp5147
S'wit'
p5148
aS'sit'
p5149
aa(lp5150
S'more'
p5151
aS'store'
p5152
aa(lp5153
S'despised'
p5154
aS'sufficed'
p5155
aa(lp5156
S'give'
p5157
aS'live'
p5158
aa(lp5159
S'thee'
p5160
aS'me'
p5161
aa(lp5162
S'invent'
p5163
aS'excellent'
p5164
aa(lp5165
S'verse'
p5166
aS'rehearse'
p5167
aa(lp5168
S'me'
p5169
aS'thee'
p5170
aa(lp5171
S'sight'
p5172
aS'light'
p5173
aa(lp5174
S'worth'
p5175
aS'forth'
p5176
aa(lp5177
S'invocate'
p5178
aS'date'
p5179
aa(lp5180
S'days'
p5181
aS'praise'
p5182
aa(lp5183
S'sing'
p5184
aS'bring'
p5185
aa(lp5186
S'me'
p5187
aS'thee'
p5188
aa(lp5189
S'live'
p5190
aS'give'
p5191
aa(lp5192
S'one'
p5193
aS'alone'
p5194
aa(lp5195
S'prove'
p5196
aS'love'
p5197
aa(lp5198
S'leave'
p5199
aS'deceive'
p5200
aa(lp5201
S'twain'
p5202
aS'remain'
p5203
aa(lp5204
S'all'
p5205
aS'call'
p5206
aa(lp5207
S'before'
p5208
aS'more'
p5209
aa(lp5210
S'receivest'
p5211
aS'deceivest'
p5212
aa(lp5213
S'usest'
p5214
aS'refusest'
p5215
aa(lp5216
S'thief'
p5217
aS'grief'
p5218
aa(lp5219
S'poverty'
p5220
aS'injury'
p5221
aa(lp5222
S'shows'
p5223
aS'foes'
p5224
aa(lp5225
S'commits'
p5226
aS'befits'
p5227
aa(lp5228
S'heart'
p5229
aS'art'
p5230
aa(lp5231
S'won'
p5232
aS'son'
p5233
aa(lp5234
S'assailed'
p5235
aS'prevailed'
p5236
aa(lp5237
S'forbear'
p5238
aS'there'
p5239
aa(lp5240
S'youth'
p5241
aS'truth'
p5242
aa(lp5243
S'thee'
p5244
aS'me'
p5245
aa(lp5246
S'grief'
p5247
aS'chief'
p5248
aa(lp5249
S'dearly'
p5250
aS'nearly'
p5251
aa(lp5252
S'ye'
p5253
aS'me'
p5254
aa(lp5255
S'her'
p5256
aS'her'
p5257
aa(lp5258
S'gain'
p5259
aS'twain'
p5260
aa(lp5261
S'loss'
p5262
aS'cross'
p5263
aa(lp5264
S'one'
p5265
aS'alone'
p5266
aa(lp5267
S'see'
p5268
aS'thee'
p5269
aa(lp5270
S'unrespected'
p5271
aS'directed'
p5272
aa(lp5273
S'bright'
p5274
aS'light'
p5275
aa(lp5276
S'show'
p5277
aS'so'
p5278
aa(lp5279
S'made'
p5280
aS'shade'
p5281
aa(lp5282
S'day'
p5283
aS'stay'
p5284
aa(lp5285
S'thee'
p5286
aS'me'
p5287
aa(lp5288
S'thought'
p5289
aS'brought'
p5290
aa(lp5291
S'way'
p5292
aS'stay'
p5293
aa(lp5294
S'stand'
p5295
aS'land'
p5296
aa(lp5297
S'thee'
p5298
aS'be'
p5299
aa(lp5300
S'thought'
p5301
aS'wrought'
p5302
aa(lp5303
S'gone'
p5304
aS'moan'
p5305
aa(lp5306
S'slow'
p5307
aS'woe'
p5308
aa(lp5309
S'fire'
p5310
aS'desire'
p5311
aa(lp5312
S'abide'
p5313
aS'slide'
p5314
aa(lp5315
S'gone'
p5316
aS'alone'
p5317
aa(lp5318
S'thee'
p5319
aS'melancholy'
p5320
aa(lp5321
S'recured'
p5322
aS'assured'
p5323
aa(lp5324
S'thee'
p5325
aS'me'
p5326
aa(lp5327
S'glad'
p5328
aS'sad'
p5329
aa(lp5330
S'war'
p5331
aS'bar'
p5332
aa(lp5333
S'sight'
p5334
aS'right'
p5335
aa(lp5336
S'lie'
p5337
aS'deny'
p5338
aa(lp5339
S'eyes'
p5340
aS'lies'
p5341
aa(lp5342
S'impanelled'
p5343
aS'determined'
p5344
aa(lp5345
S'heart'
p5346
aS'part'
p5347
aa(lp5348
S'part'
p5349
aS'heart'
p5350
aa(lp5351
S'took'
p5352
aS'look'
p5353
aa(lp5354
S'other'
p5355
aS'smother'
p5356
aa(lp5357
S'feast'
p5358
aS'guest'
p5359
aa(lp5360
S'heart'
p5361
aS'part'
p5362
aa(lp5363
S'love'
p5364
aS'move'
p5365
aa(lp5366
S'me'
p5367
aS'thee'
p5368
aa(lp5369
S'sight'
p5370
aS'delight'
p5371
aa(lp5372
S'way'
p5373
aS'stay'
p5374
aa(lp5375
S'thrust'
p5376
aS'trust'
p5377
aa(lp5378
S'are'
p5379
aS'care'
p5380
aa(lp5381
S'grief'
p5382
aS'thief'
p5383
aa(lp5384
S'chest'
p5385
aS'breast'
p5386
aa(lp5387
S'art'
p5388
aS'part'
p5389
aa(lp5390
S'fear'
p5391
aS'dear'
p5392
aa(lp5393
S'come'
p5394
aS'sum'
p5395
aa(lp5396
S'defects'
p5397
aS'respects'
p5398
aa(lp5399
S'pass'
p5400
aS'was'
p5401
aa(lp5402
S'eye'
p5403
aS'gravity'
p5404
aa(lp5405
S'here'
p5406
aS'uprear'
p5407
aa(lp5408
S'desert'
p5409
aS'part'
p5410
aa(lp5411
S'laws'
p5412
aS'cause'
p5413
aa(lp5414
S'way'
p5415
aS'say'
p5416
aa(lp5417
S'end'
p5418
aS"friend'"
p5419
aa(lp5420
S'woe'
p5421
aS'know'
p5422
aa(lp5423
S'me'
p5424
aS'thee'
p5425
aa(lp5426
S'on'
p5427
aS'groan'
p5428
aa(lp5429
S'hide'
p5430
aS'side'
p5431
aa(lp5432
S'mind'
p5433
aS'behind'
p5434
aa(lp5435
S'offence'
p5436
aS'thence'
p5437
aa(lp5438
S'speed'
p5439
aS'need'
p5440
aa(lp5441
S'find'
p5442
aS'wind'
p5443
aa(lp5444
S'slow'
p5445
aS'know'
p5446
aa(lp5447
S'pace'
p5448
aS'race'
p5449
aa(lp5450
S'made'
p5451
aS'jade'
p5452
aa(lp5453
S'wilful-slow'
p5454
aS'go'
p5455
aa(lp5456
S'key'
p5457
aS'survey'
p5458
aa(lp5459
S'treasure'
p5460
aS'pleasure'
p5461
aa(lp5462
S'rare'
p5463
aS'are'
p5464
aa(lp5465
S'set'
p5466
aS'carcanet'
p5467
aa(lp5468
S'chest'
p5469
aS'special-blest'
p5470
aa(lp5471
S'hide'
p5472
aS'pride'
p5473
aa(lp5474
S'scope'
p5475
aS'hope'
p5476
aa(lp5477
S'made'
p5478
aS'shade'
p5479
aa(lp5480
S'tend'
p5481
aS'lend'
p5482
aa(lp5483
S'counterfeit'
p5484
aS'set'
p5485
aa(lp5486
S'you'
p5487
aS'new'
p5488
aa(lp5489
S'year'
p5490
aS'appear'
p5491
aa(lp5492
S'show'
p5493
aS'know'
p5494
aa(lp5495
S'part'
p5496
aS'heart'
p5497
aa(lp5498
S'seem'
p5499
aS'deem'
p5500
aa(lp5501
S'give'
p5502
aS'live'
p5503
aa(lp5504
S'dye'
p5505
aS'wantonly'
p5506
aa(lp5507
S'roses'
p5508
aS'discloses'
p5509
aa(lp5510
S'show'
p5511
aS'so'
p5512
aa(lp5513
S'fade'
p5514
aS'made'
p5515
aa(lp5516
S'youth'
p5517
aS'truth'
p5518
aa(lp5519
S'monuments'
p5520
aS'contents'
p5521
aa(lp5522
S'rhyme'
p5523
aS'time'
p5524
aa(lp5525
S'overturn'
p5526
aS'burn'
p5527
aa(lp5528
S'masonry'
p5529
aS'memory'
p5530
aa(lp5531
S'enmity'
p5532
aS'posterity'
p5533
aa(lp5534
S'room'
p5535
aS'doom'
p5536
aa(lp5537
S'arise'
p5538
aS'eyes'
p5539
aa(lp5540
S'said'
p5541
aS'allayed'
p5542
aa(lp5543
S'appetite'
p5544
aS'might'
p5545
aa(lp5546
S'fill'
p5547
aS'kill'
p5548
aa(lp5549
S'fulness'
p5550
aS'dulness'
p5551
aa(lp5552
S'be'
p5553
aS'see'
p5554
aa(lp5555
S'new'
p5556
aS'view'
p5557
aa(lp5558
S'care'
p5559
aS'rare'
p5560
aa(lp5561
S'tend'
p5562
aS'spend'
p5563
aa(lp5564
S'desire'
p5565
aS'require'
p5566
aa(lp5567
S'hour'
p5568
aS'sour'
p5569
aa(lp5570
S'you'
p5571
aS'adieu'
p5572
aa(lp5573
S'thought'
p5574
aS'nought'
p5575
aa(lp5576
S'suppose'
p5577
aS'those'
p5578
aa(lp5579
S'will'
p5580
aS'ill'
p5581
aa(lp5582
S'slave'
p5583
aS'crave'
p5584
aa(lp5585
S'pleasure'
p5586
aS'leisure'
p5587
aa(lp5588
S'beck'
p5589
aS'check'
p5590
aa(lp5591
S'liberty'
p5592
aS'injury'
p5593
aa(lp5594
S'strong'
p5595
aS'belong'
p5596
aa(lp5597
S'time'
p5598
aS'crime'
p5599
aa(lp5600
S'hell'
p5601
aS'well'
p5602
aa(lp5603
S'is'
p5604
aS'amis'
p5605
aa(lp5606
S'beguiled'
p5607
aS'child'
p5608
aa(lp5609
S'look'
p5610
aS'book'
p5611
aa(lp5612
S'sun'
p5613
aS'done'
p5614
aa(lp5615
S'say'
p5616
aS'they'
p5617
aa(lp5618
S'frame'
p5619
aS'same'
p5620
aa(lp5621
S'days'
p5622
aS'praise'
p5623
aa(lp5624
S'shore'
p5625
aS'before'
p5626
aa(lp5627
S'end'
p5628
aS'contend'
p5629
aa(lp5630
S'light'
p5631
aS'fight'
p5632
aa(lp5633
S'crowned'
p5634
aS'confound'
p5635
aa(lp5636
S'youth'
p5637
aS'truth'
p5638
aa(lp5639
S'brow'
p5640
aS'mow'
p5641
aa(lp5642
S'stand'
p5643
aS'hand'
p5644
aa(lp5645
S'open'
p5646
aS'broken'
p5647
aa(lp5648
S'night'
p5649
aS'sight'
p5650
aa(lp5651
S'thee'
p5652
aS'me'
p5653
aa(lp5654
S'pry'
p5655
aS'jealousy'
p5656
aa(lp5657
S'great'
p5658
aS'defeat'
p5659
aa(lp5660
S'awake'
p5661
aS'sake'
p5662
aa(lp5663
S'elsewhere'
p5664
aS'near'
p5665
aa(lp5666
S'eye'
p5667
aS'remedy'
p5668
aa(lp5669
S'part'
p5670
aS'heart'
p5671
aa(lp5672
S'mine'
p5673
aS'define'
p5674
aa(lp5675
S'account'
p5676
aS'surmount'
p5677
aa(lp5678
S'indeed'
p5679
aS'read'
p5680
aa(lp5681
S'antiquity'
p5682
aS'iniquity'
p5683
aa(lp5684
S'praise'
p5685
aS'days'
p5686
aa(lp5687
S'now'
p5688
aS'brow'
p5689
aa(lp5690
S"o'erworn"
p5691
aS'morn'
p5692
aa(lp5693
S'night'
p5694
aS'sight'
p5695
aa(lp5696
S'king'
p5697
aS'spring'
p5698
aa(lp5699
S'fortify'
p5700
aS'memory'
p5701
aa(lp5702
S'knife'
p5703
aS'life'
p5704
aa(lp5705
S'seen'
p5706
aS'green'
p5707
aa(lp5708
S'defaced'
p5709
aS'down-rased'
p5710
aa(lp5711
S'age'
p5712
aS'rage'
p5713
aa(lp5714
S'gain'
p5715
aS'main'
p5716
aa(lp5717
S'shore'
p5718
aS'store'
p5719
aa(lp5720
S'State'
p5721
aS'ruminate'
p5722
aa(lp5723
S'decay'
p5724
aS'away'
p5725
aa(lp5726
S'choose'
p5727
aS'lose'
p5728
aa(lp5729
S'sea'
p5730
aS'plea'
p5731
aa(lp5732
S'power'
p5733
aS'flower'
p5734
aa(lp5735
S'out'
p5736
aS'stout'
p5737
aa(lp5738
S'days'
p5739
aS'decays'
p5740
aa(lp5741
S'alack'
p5742
aS'back'
p5743
aa(lp5744
S'hid'
p5745
aS'forbid'
p5746
aa(lp5747
S'might'
p5748
aS'bright'
p5749
aa(lp5750
S'cry'
p5751
aS'jollity'
p5752
aa(lp5753
S'born'
p5754
aS'forsworn'
p5755
aa(lp5756
S'misplaced'
p5757
aS'disgraced'
p5758
aa(lp5759
S'strumpeted'
p5760
aS'disabled'
p5761
aa(lp5762
S'authority'
p5763
aS'simplicity'
p5764
aa(lp5765
S'skill'
p5766
aS'ill'
p5767
aa(lp5768
S'gone'
p5769
aS'alone'
p5770
aa(lp5771
S'live'
p5772
aS'achieve'
p5773
aa(lp5774
S'impiety'
p5775
aS'society'
p5776
aa(lp5777
S'cheek'
p5778
aS'seek'
p5779
aa(lp5780
S'hue'
p5781
aS'true'
p5782
aa(lp5783
S'is'
p5784
aS'his'
p5785
aa(lp5786
S'veins'
p5787
aS'gains'
p5788
aa(lp5789
S'had'
p5790
aS'bad'
p5791
aa(lp5792
S'outworn'
p5793
aS'born'
p5794
aa(lp5795
S'now'
p5796
aS'brow'
p5797
aa(lp5798
S'dead'
p5799
aS'head'
p5800
aa(lp5801
S'away'
p5802
aS'gay'
p5803
aa(lp5804
S'seen'
p5805
aS'green'
p5806
aa(lp5807
S'true'
p5808
aS'new'
p5809
aa(lp5810
S'store'
p5811
aS'yore'
p5812
aa(lp5813
S'view'
p5814
aS'due'
p5815
aa(lp5816
S'mend'
p5817
aS'commend'
p5818
aa(lp5819
S'crowned'
p5820
aS'confound'
p5821
aa(lp5822
S'own'
p5823
aS'shown'
p5824
aa(lp5825
S'mind'
p5826
aS'kind'
p5827
aa(lp5828
S'deeds'
p5829
aS'weeds'
p5830
aa(lp5831
S'show'
p5832
aS'grow'
p5833
aa(lp5834
S'defect'
p5835
aS'suspect'
p5836
aa(lp5837
S'fair'
p5838
aS'air'
p5839
aa(lp5840
S'approve'
p5841
aS'love'
p5842
aa(lp5843
S'time'
p5844
aS'prime'
p5845
aa(lp5846
S'days'
p5847
aS'praise'
p5848
aa(lp5849
S'charged'
p5850
aS'enlarged'
p5851
aa(lp5852
S'show'
p5853
aS'owe'
p5854
aa(lp5855
S'dead'
p5856
aS'fled'
p5857
aa(lp5858
S'bell'
p5859
aS'dwell'
p5860
aa(lp5861
S'not'
p5862
aS'forgot'
p5863
aa(lp5864
S'so'
p5865
aS'woe'
p5866
aa(lp5867
S'verse'
p5868
aS'rehearse'
p5869
aa(lp5870
S'clay'
p5871
aS'decay'
p5872
aa(lp5873
S'moan'
p5874
aS'gone'
p5875
aa(lp5876
S'recite'
p5877
aS'quite'
p5878
aa(lp5879
S'love'
p5880
aS'prove'
p5881
aa(lp5882
S'lie'
p5883
aS'I'
p5884
aa(lp5885
S'desert'
p5886
aS'impart'
p5887
aa(lp5888
S'this'
p5889
aS'is'
p5890
aa(lp5891
S'untrue'
p5892
aS'you'
p5893
aa(lp5894
S'forth'
p5895
aS'worth'
p5896
aa(lp5897
S'behold'
p5898
aS'cold'
p5899
aa(lp5900
S'hang'
p5901
aS'sang'
p5902
aa(lp5903
S'day'
p5904
aS'away'
p5905
aa(lp5906
S'west'
p5907
aS'rest'
p5908
aa(lp5909
S'fire'
p5910
aS'expire'
p5911
aa(lp5912
S'lie'
p5913
aS'by'
p5914
aa(lp5915
S'strong'
p5916
aS'long'
p5917
aa(lp5918
S'arrest'
p5919
aS'interest'
p5920
aa(lp5921
S'away'
p5922
aS'stay'
p5923
aa(lp5924
S'review'
p5925
aS'due'
p5926
aa(lp5927
S'thee'
p5928
aS'me'
p5929
aa(lp5930
S'life'
p5931
aS'knife'
p5932
aa(lp5933
S'dead'
p5934
aS'remembered'
p5935
aa(lp5936
S'contains'
p5937
aS'remains'
p5938
aa(lp5939
S'life'
p5940
aS'strife'
p5941
aa(lp5942
S'ground'
p5943
aS'found'
p5944
aa(lp5945
S'anon'
p5946
aS'alone'
p5947
aa(lp5948
S'treasure'
p5949
aS'pleasure'
p5950
aa(lp5951
S'sight'
p5952
aS'delight'
p5953
aa(lp5954
S'look'
p5955
aS'took'
p5956
aa(lp5957
S'day'
p5958
aS'away'
p5959
aa(lp5960
S'pride'
p5961
aS'aside'
p5962
aa(lp5963
S'change'
p5964
aS'strange'
p5965
aa(lp5966
S'same'
p5967
aS'name'
p5968
aa(lp5969
S'weed'
p5970
aS'proceed'
p5971
aa(lp5972
S'you'
p5973
aS'new'
p5974
aa(lp5975
S'argument'
p5976
aS'spent'
p5977
aa(lp5978
S'old'
p5979
aS'told'
p5980
aa(lp5981
S'wear'
p5982
aS'bear'
p5983
aa(lp5984
S'waste'
p5985
aS'taste'
p5986
aa(lp5987
S'show'
p5988
aS'know'
p5989
aa(lp5990
S'memory'
p5991
aS'eternity'
p5992
aa(lp5993
S'contain'
p5994
aS'brain'
p5995
aa(lp5996
S'find'
p5997
aS'mind'
p5998
aa(lp5999
S'look'
p6000
aS'book'
p6001
aa(lp6002
S'muse'
p6003
aS'use'
p6004
aa(lp6005
S'verse'
p6006
aS'disperse'
p6007
aa(lp6008
S'sing'
p6009
aS'wing'
p6010
aa(lp6011
S'fly'
p6012
aS'majesty'
p6013
aa(lp6014
S'compile'
p6015
aS'style'
p6016
aa(lp6017
S'thee'
p6018
aS'be'
p6019
aa(lp6020
S'advance'
p6021
aS'ignorance'
p6022
aa(lp6023
S'aid'
p6024
aS'decayed'
p6025
aa(lp6026
S'grace'
p6027
aS'place'
p6028
aa(lp6029
S'argument'
p6030
aS'invent'
p6031
aa(lp6032
S'pen'
p6033
aS'again'
p6034
aa(lp6035
S'word'
p6036
aS'afford'
p6037
aa(lp6038
S'give'
p6039
aS'live'
p6040
aa(lp6041
S'say'
p6042
aS'pay'
p6043
aa(lp6044
S'write'
p6045
aS'might'
p6046
aa(lp6047
S'name'
p6048
aS'fame'
p6049
aa(lp6050
S'is'
p6051
aS'his'
p6052
aa(lp6053
S'bear'
p6054
aS'appear'
p6055
aa(lp6056
S'afloat'
p6057
aS'boat'
p6058
aa(lp6059
S'ride'
p6060
aS'pride'
p6061
aa(lp6062
S'away'
p6063
aS'decay'
p6064
aa(lp6065
S'make'
p6066
aS'take'
p6067
aa(lp6068
S'rotten'
p6069
aS'forgotten'
p6070
aa(lp6071
S'have'
p6072
aS'grave'
p6073
aa(lp6074
S'die'
p6075
aS'lie'
p6076
aa(lp6077
S'verse'
p6078
aS'rehearse'
p6079
aa(lp6080
S"o'er-read"
p6081
aS'dead'
p6082
aa(lp6083
S'pen'
p6084
aS'men'
p6085
aa(lp6086
S'muse'
p6087
aS'use'
p6088
aa(lp6089
S"o'erlook"
p6090
aS'book'
p6091
aa(lp6092
S'hue'
p6093
aS'anew'
p6094
aa(lp6095
S'praise'
p6096
aS'days'
p6097
aa(lp6098
S'devised'
p6099
aS'sympathized'
p6100
aa(lp6101
S'lend'
p6102
aS'friend'
p6103
aa(lp6104
S'used'
p6105
aS'abused'
p6106
aa(lp6107
S'need'
p6108
aS'exceed'
p6109
aa(lp6110
S'set'
p6111
aS'debt'
p6112
aa(lp6113
S'report'
p6114
aS'short'
p6115
aa(lp6116
S'show'
p6117
aS'grow'
p6118
aa(lp6119
S'impute'
p6120
aS'mute'
p6121
aa(lp6122
S'dumb'
p6123
aS'tomb'
p6124
aa(lp6125
S'eyes'
p6126
aS'devise'
p6127
aa(lp6128
S'more'
p6129
aS'store'
p6130
aa(lp6131
S'you'
p6132
aS'grew'
p6133
aa(lp6134
S'dwell'
p6135
aS'tell'
p6136
aa(lp6137
S'glory'
p6138
aS'story'
p6139
aa(lp6140
S'writ'
p6141
aS'wit'
p6142
aa(lp6143
S'clear'
p6144
aS'where'
p6145
aa(lp6146
S'curse'
p6147
aS'worse'
p6148
aa(lp6149
S'still'
p6150
aS'quill'
p6151
aa(lp6152
S'compiled'
p6153
aS'filed'
p6154
aa(lp6155
S'words'
p6156
aS'affords'
p6157
aa(lp6158
S'Amen'
p6159
aS'pen'
p6160
aa(lp6161
S'true'
p6162
aS'you'
p6163
aa(lp6164
S'more'
p6165
aS'before'
p6166
aa(lp6167
S'respect'
p6168
aS'effect'
p6169
aa(lp6170
S'verse'
p6171
aS'inhearse'
p6172
aa(lp6173
S'you'
p6174
aS'grew'
p6175
aa(lp6176
S'write'
p6177
aS'night'
p6178
aa(lp6179
S'dead'
p6180
aS'astonished'
p6181
aa(lp6182
S'ghost'
p6183
aS'boast'
p6184
aa(lp6185
S'intelligence'
p6186
aS'thence'
p6187
aa(lp6188
S'line'
p6189
aS'mine'
p6190
aa(lp6191
S'possessing'
p6192
aS'releasing'
p6193
aa(lp6194
S'estimate'
p6195
aS'determinate'
p6196
aa(lp6197
S'granting'
p6198
aS'wanting'
p6199
aa(lp6200
S'deserving'
p6201
aS'swerving'
p6202
aa(lp6203
S'knowing'
p6204
aS'growing'
p6205
aa(lp6206
S'mistaking'
p6207
aS'making'
p6208
aa(lp6209
S'flatter'
p6210
aS'matter'
p6211
aa(lp6212
S'light'
p6213
aS'fight'
p6214
aa(lp6215
S'scorn'
p6216
aS'forsworn'
p6217
aa(lp6218
S'acquainted'
p6219
aS'attainted'
p6220
aa(lp6221
S'story'
p6222
aS'glory'
p6223
aa(lp6224
S'too'
p6225
aS'do'
p6226
aa(lp6227
S'thee'
p6228
aS'me'
p6229
aa(lp6230
S'belong'
p6231
aS'wrong'
p6232
aa(lp6233
S'fault'
p6234
aS'halt'
p6235
aa(lp6236
S'offence'
p6237
aS'defence'
p6238
aa(lp6239
S'ill'
p6240
aS'will'
p6241
aa(lp6242
S'change'
p6243
aS'strange'
p6244
aa(lp6245
S'tongue'
p6246
aS'wronk'
p6247
aa(lp6248
S'dwell'
p6249
aS'tell'
p6250
aa(lp6251
S'debate'
p6252
aS'hate'
p6253
aa(lp6254
S'now'
p6255
aS'bow'
p6256
aa(lp6257
S'cross'
p6258
aS'after-loss'
p6259
aa(lp6260
S'sorrow'
p6261
aS'morrow'
p6262
aa(lp6263
S'woe'
p6264
aS'overthrow'
p6265
aa(lp6266
S'last'
p6267
aS'taste'
p6268
aa(lp6269
S'spite'
p6270
aS'might'
p6271
aa(lp6272
S'woe'
p6273
aS'so'
p6274
aa(lp6275
S'skill'
p6276
aS'ill'
p6277
aa(lp6278
S'force'
p6279
aS'horse'
p6280
aa(lp6281
S'pleasure'
p6282
aS'measure'
p6283
aa(lp6284
S'rest'
p6285
aS'best'
p6286
aa(lp6287
S'me'
p6288
aS'be'
p6289
aa(lp6290
S'costs'
p6291
aS'boast'
p6292
aa(lp6293
S'take'
p6294
aS'make'
p6295
aa(lp6296
S'away'
p6297
aS'stay'
p6298
aa(lp6299
S'mine'
p6300
aS'thine'
p6301
aa(lp6302
S'wrongs'
p6303
aS'belongs'
p6304
aa(lp6305
S'end'
p6306
aS'depend'
p6307
aa(lp6308
S'mind'
p6309
aS'find'
p6310
aa(lp6311
S'lie'
p6312
aS'die'
p6313
aa(lp6314
S'blot'
p6315
aS'not'
p6316
aa(lp6317
S'true'
p6318
aS'new'
p6319
aa(lp6320
S'face'
p6321
aS'place'
p6322
aa(lp6323
S'eye'
p6324
aS'history'
p6325
aa(lp6326
S'change'
p6327
aS'strange'
p6328
aa(lp6329
S'decree'
p6330
aS'be'
p6331
aa(lp6332
S'dwell'
p6333
aS'tell'
p6334
aa(lp6335
S'grow'
p6336
aS'show'
p6337
aa(lp6338
S'none'
p6339
aS'stone'
p6340
aa(lp6341
S'show'
p6342
aS'slow'
p6343
aa(lp6344
S'graces'
p6345
aS'faces'
p6346
aa(lp6347
S'expense'
p6348
aS'excellence'
p6349
aa(lp6350
S'sweet'
p6351
aS'meet'
p6352
aa(lp6353
S'die'
p6354
aS'dignity'
p6355
aa(lp6356
S'deeds'
p6357
aS'weeds'
p6358
aa(lp6359
S'shame'
p6360
aS'name'
p6361
aa(lp6362
S'rose'
p6363
aS'enclose'
p6364
aa(lp6365
S'days'
p6366
aS'praise'
p6367
aa(lp6368
S'sport'
p6369
aS'report'
p6370
aa(lp6371
S'got'
p6372
aS'blot'
p6373
aa(lp6374
S'thee'
p6375
aS'see'
p6376
aa(lp6377
S'privilege'
p6378
aS'edge'
p6379
aa(lp6380
S'wantonness'
p6381
aS'less'
p6382
aa(lp6383
S'sport'
p6384
aS'resort'
p6385
aa(lp6386
S'queen'
p6387
aS'seen'
p6388
aa(lp6389
S'esteemed'
p6390
aS'deemed'
p6391
aa(lp6392
S'betray'
p6393
aS'away'
p6394
aa(lp6395
S'translate'
p6396
aS'state'
p6397
aa(lp6398
S'sort'
p6399
aS'report'
p6400
aa(lp6401
S'been'
p6402
aS'seen'
p6403
aa(lp6404
S'year'
p6405
aS'everywhere'
p6406
aa(lp6407
S'time'
p6408
aS'prime'
p6409
aa(lp6410
S'increase'
p6411
aS'decease'
p6412
aa(lp6413
S'me'
p6414
aS'thee'
p6415
aa(lp6416
S'fruit'
p6417
aS'mute'
p6418
aa(lp6419
S'cheer'
p6420
aS'near'
p6421
aa(lp6422
S'spring'
p6423
aS'thing'
p6424
aa(lp6425
S'trim'
p6426
aS'him'
p6427
aa(lp6428
S'smell'
p6429
aS'tell'
p6430
aa(lp6431
S'hue'
p6432
aS'grew'
p6433
aa(lp6434
S'white'
p6435
aS'delight'
p6436
aa(lp6437
S'rose'
p6438
aS'those'
p6439
aa(lp6440
S'away'
p6441
aS'play'
p6442
aa(lp6443
S'long'
p6444
aS'song'
p6445
aa(lp6446
S'might'
p6447
aS'light'
p6448
aa(lp6449
S'redeem'
p6450
aS'esteem'
p6451
aa(lp6452
S'spent'
p6453
aS'argument'
p6454
aa(lp6455
S'survey'
p6456
aS'decay'
p6457
aa(lp6458
S'there'
p6459
aS'everywhere'
p6460
aa(lp6461
S'life'
p6462
aS'knife'
p6463
aa(lp6464
S'amends'
p6465
aS'depends'
p6466
aa(lp6467
S'dyed'
p6468
aS'dignified'
p6469
aa(lp6470
S'say'
p6471
aS'lay'
p6472
aa(lp6473
S'fixed'
p6474
aS"intermixed'"
p6475
aa(lp6476
S'dumb'
p6477
aS'tomb'
p6478
aa(lp6479
S'thee'
p6480
aS'be'
p6481
aa(lp6482
S'how'
p6483
aS'now'
p6484
aa(lp6485
S'seeming'
p6486
aS'esteeming'
p6487
aa(lp6488
S'appear'
p6489
aS'where'
p6490
aa(lp6491
S'spring'
p6492
aS'sing'
p6493
aa(lp6494
S'lays'
p6495
aS'days'
p6496
aa(lp6497
S'now'
p6498
aS'bough'
p6499
aa(lp6500
S'night'
p6501
aS'delight'
p6502
aa(lp6503
S'tongue'
p6504
aS'song'
p6505
aa(lp6506
S'forth'
p6507
aS'worth'
p6508
aa(lp6509
S'pride'
p6510
aS'beside'
p6511
aa(lp6512
S'write'
p6513
aS'quite'
p6514
aa(lp6515
S'face'
p6516
aS'disgrace'
p6517
aa(lp6518
S'mend'
p6519
aS'tend'
p6520
aa(lp6521
S'well'
p6522
aS'tell'
p6523
aa(lp6524
S'sit'
p6525
aS'it'
p6526
aa(lp6527
S'old'
p6528
aS'cold'
p6529
aa(lp6530
S'eyed'
p6531
aS'pride'
p6532
aa(lp6533
S'turned'
p6534
aS'burned'
p6535
aa(lp6536
S'seen'
p6537
aS'green'
p6538
aa(lp6539
S'hand'
p6540
aS'stand'
p6541
aa(lp6542
S'perceived'
p6543
aS'deceived'
p6544
aa(lp6545
S'unbred'
p6546
aS'dead'
p6547
aa(lp6548
S'idolatry'
p6549
aS'be'
p6550
aa(lp6551
S'show'
p6552
aS'so'
p6553
aa(lp6554
S'kind'
p6555
aS'confined'
p6556
aa(lp6557
S'excellence'
p6558
aS'difference'
p6559
aa(lp6560
S'argument'
p6561
aS'spent'
p6562
aa(lp6563
S'words'
p6564
aS'affords'
p6565
aa(lp6566
S'alone'
p6567
aS'one'
p6568
aa(lp6569
S'time'
p6570
aS'rhyme'
p6571
aa(lp6572
S'wights'
p6573
aS'knights'
p6574
aa(lp6575
S'best'
p6576
aS'expressed'
p6577
aa(lp6578
S'brow'
p6579
aS'now'
p6580
aa(lp6581
S'prophecies'
p6582
aS'eyes'
p6583
aa(lp6584
S'prefiguring'
p6585
aS'sing'
p6586
aa(lp6587
S'days'
p6588
aS'praise'
p6589
aa(lp6590
S'soul'
p6591
aS'control'
p6592
aa(lp6593
S'come'
p6594
aS'doom'
p6595
aa(lp6596
S'endured'
p6597
aS'assured'
p6598
aa(lp6599
S'presage'
p6600
aS'age'
p6601
aa(lp6602
S'time'
p6603
aS'rhyme'
p6604
aa(lp6605
S'subscribes'
p6606
aS'tribes'
p6607
aa(lp6608
S'monument'
p6609
aS'spent'
p6610
aa(lp6611
S'character'
p6612
aS'register'
p6613
aa(lp6614
S'spirit'
p6615
aS'merit'
p6616
aa(lp6617
S'divine'
p6618
aS'thine'
p6619
aa(lp6620
S'same'
p6621
aS'name'
p6622
aa(lp6623
S'case'
p6624
aS'place'
p6625
aa(lp6626
S'age'
p6627
aS'page'
p6628
aa(lp6629
S'bred'
p6630
aS'dead'
p6631
aa(lp6632
S'heart'
p6633
aS'depart'
p6634
aa(lp6635
S'qualify'
p6636
aS'lie'
p6637
aa(lp6638
S'ranged'
p6639
aS'exchanged'
p6640
aa(lp6641
S'again'
p6642
aS'stain'
p6643
aa(lp6644
S'reigned'
p6645
aS'stained'
p6646
aa(lp6647
S'blood'
p6648
aS'good'
p6649
aa(lp6650
S'call'
p6651
aS'all'
p6652
aa(lp6653
S'there'
p6654
aS'dear'
p6655
aa(lp6656
S'view'
p6657
aS'new'
p6658
aa(lp6659
S'truth'
p6660
aS'youth'
p6661
aa(lp6662
S'above'
p6663
aS'love'
p6664
aa(lp6665
S'end'
p6666
aS'friend'
p6667
aa(lp6668
S'grind'
p6669
aS'confined'
p6670
aa(lp6671
S'best'
p6672
aS'breast'
p6673
aa(lp6674
S'chide'
p6675
aS'provide'
p6676
aa(lp6677
S'deeds'
p6678
aS'breeds'
p6679
aa(lp6680
S'brand'
p6681
aS'hand'
p6682
aa(lp6683
S'subdued'
p6684
aS'renewed'
p6685
aa(lp6686
S'drink'
p6687
aS'think'
p6688
aa(lp6689
S'infection'
p6690
aS'correction'
p6691
aa(lp6692
S'ye'
p6693
aS'me'
p6694
aa(lp6695
S'fill'
p6696
aS'ill'
p6697
aa(lp6698
S'brow'
p6699
aS'allow'
p6700
aa(lp6701
S'strive'
p6702
aS'alive'
p6703
aa(lp6704
S'tongue'
p6705
aS'wrong'
p6706
aa(lp6707
S'care'
p6708
aS'are'
p6709
aa(lp6710
S'sense'
p6711
aS'dispense'
p6712
aa(lp6713
S'bred'
p6714
aS'dead'
p6715
aa(lp6716
S'mind'
p6717
aS'blind'
p6718
aa(lp6719
S'about'
p6720
aS'out'
p6721
aa(lp6722
S'heart'
p6723
aS'part'
p6724
aa(lp6725
S'latch'
p6726
aS'catch'
p6727
aa(lp6728
S'sight'
p6729
aS'night'
p6730
aa(lp6731
S'creature'
p6732
aS'feature'
p6733
aa(lp6734
S'you'
p6735
aS'untrue'
p6736
aa(lp6737
S'you'
p6738
aS'true'
p6739
aa(lp6740
S'flattery'
p6741
aS'alchemy'
p6742
aa(lp6743
S'indigest'
p6744
aS'best'
p6745
aa(lp6746
S'resemble'
p6747
aS'assemble'
p6748
aa(lp6749
S'seeing'
p6750
aS"'greeing"
p6751
aa(lp6752
S'up'
p6753
aS'cup'
p6754
aa(lp6755
S'sin'
p6756
aS'begin'
p6757
aa(lp6758
S'lie'
p6759
aS'why'
p6760
aa(lp6761
S'dearer'
p6762
aS'clearer'
p6763
aa(lp6764
S'accidents'
p6765
aS'intents'
p6766
aa(lp6767
S'kings'
p6768
aS'things'
p6769
aa(lp6770
S'tyranny'
p6771
aS'incertainty'
p6772
aa(lp6773
S"best'"
p6774
aS'rest'
p6775
aa(lp6776
S'so'
p6777
aS'grow'
p6778
aa(lp6779
S'minds'
p6780
aS'finds'
p6781
aa(lp6782
S'love'
p6783
aS'remove'
p6784
aa(lp6785
S'mark'
p6786
aS'bark'
p6787
aa(lp6788
S'shaken'
p6789
aS'taken'
p6790
aa(lp6791
S'cheeks'
p6792
aS'weeks'
p6793
aa(lp6794
S'come'
p6795
aS'doom'
p6796
aa(lp6797
S'proved'
p6798
aS'loved'
p6799
aa(lp6800
S'all'
p6801
aS'call'
p6802
aa(lp6803
S'repay'
p6804
aS'day'
p6805
aa(lp6806
S'minds'
p6807
aS'winds'
p6808
aa(lp6809
S'right'
p6810
aS'sight'
p6811
aa(lp6812
S'down'
p6813
aS'frown'
p6814
aa(lp6815
S'accumulate'
p6816
aS'hate'
p6817
aa(lp6818
S'prove'
p6819
aS'love'
p6820
aa(lp6821
S'keen'
p6822
aS'unseen'
p6823
aa(lp6824
S'urge'
p6825
aS'purge'
p6826
aa(lp6827
S'sweetness'
p6828
aS'meetness'
p6829
aa(lp6830
S'feeding'
p6831
aS'needing'
p6832
aa(lp6833
S'anticipate'
p6834
aS'state'
p6835
aa(lp6836
S'assured'
p6837
aS'cured'
p6838
aa(lp6839
S'true'
p6840
aS'you'
p6841
aa(lp6842
S'tears'
p6843
aS'fears'
p6844
aa(lp6845
S'within'
p6846
aS'win'
p6847
aa(lp6848
S'committed'
p6849
aS'fitted'
p6850
aa(lp6851
S'never'
p6852
aS'fever'
p6853
aa(lp6854
S'true'
p6855
aS'anew'
p6856
aa(lp6857
S'better'
p6858
aS'greater'
p6859
aa(lp6860
S'content'
p6861
aS'spent'
p6862
aa(lp6863
S'now'
p6864
aS'bow'
p6865
aa(lp6866
S'feel'
p6867
aS'steel'
p6868
aa(lp6869
S'shaken'
p6870
aS'taken'
p6871
aa(lp6872
S'time'
p6873
aS'crime'
p6874
aa(lp6875
S'remembered'
p6876
aS'tendered'
p6877
aa(lp6878
S'hits'
p6879
aS'fits'
p6880
aa(lp6881
S'fee'
p6882
aS'me'
p6883
aa(lp6884
S'esteemed'
p6885
aS'deemed'
p6886
aa(lp6887
S'being'
p6888
aS'seeing'
p6889
aa(lp6890
S'eyes'
p6891
aS'spies'
p6892
aa(lp6893
S'blood'
p6894
aS'good'
p6895
aa(lp6896
S'level'
p6897
aS'bevel'
p6898
aa(lp6899
S'own'
p6900
aS'shown'
p6901
aa(lp6902
S'maintain'
p6903
aS'reign'
p6904
aa(lp6905
S'brain'
p6906
aS'remain'
p6907
aa(lp6908
S'memory'
p6909
aS'eternity'
p6910
aa(lp6911
S'heart'
p6912
aS'part'
p6913
aa(lp6914
S'subsist'
p6915
aS'missed'
p6916
aa(lp6917
S'hold'
p6918
aS'bold'
p6919
aa(lp6920
S'score'
p6921
aS'more'
p6922
aa(lp6923
S'thee'
p6924
aS'me'
p6925
aa(lp6926
S'change'
p6927
aS'strange'
p6928
aa(lp6929
S'might'
p6930
aS'sight'
p6931
aa(lp6932
S'admire'
p6933
aS'desire'
p6934
aa(lp6935
S'old'
p6936
aS'told'
p6937
aa(lp6938
S'defy'
p6939
aS'lie'
p6940
aa(lp6941
S'past'
p6942
aS'haste'
p6943
aa(lp6944
S'be'
p6945
aS'thee'
p6946
aa(lp6947
S'state'
p6948
aS'hate'
p6949
aa(lp6950
S'unfathered'
p6951
aS'gathered'
p6952
aa(lp6953
S'accident'
p6954
aS'discontent'
p6955
aa(lp6956
S'falls'
p6957
aS'calls'
p6958
aa(lp6959
S'heretic'
p6960
aS'politic'
p6961
aa(lp6962
S'hours'
p6963
aS'showers'
p6964
aa(lp6965
S'time'
p6966
aS'crime'
p6967
aa(lp6968
S'canopy'
p6969
aS'eternity'
p6970
aa(lp6971
S'honouring'
p6972
aS'ruining'
p6973
aa(lp6974
S'favour'
p6975
aS'savour'
p6976
aa(lp6977
S'rent'
p6978
aS'spent'
p6979
aa(lp6980
S'heart'
p6981
aS'art'
p6982
aa(lp6983
S'free'
p6984
aS'thee'
p6985
aa(lp6986
S'soul'
p6987
aS'control'
p6988
aa(lp6989
S'fair'
p6990
aS'heir'
p6991
aa(lp6992
S'name'
p6993
aS'shame'
p6994
aa(lp6995
S'power'
p6996
aS'bower'
p6997
aa(lp6998
S'face'
p6999
aS'disgrace'
p7000
aa(lp7001
S'black'
p7002
aS'lack'
p7003
aa(lp7004
S'seem'
p7005
aS'esteem'
p7006
aa(lp7007
S'woe'
p7008
aS'so'
p7009
aa(lp7010
S"play'st"
p7011
aS"sway'st"
p7012
aa(lp7013
S'sounds'
p7014
aS'confounds'
p7015
aa(lp7016
S'leap'
p7017
aS'reap'
p7018
aa(lp7019
S'hand'
p7020
aS'stand'
p7021
aa(lp7022
S'state'
p7023
aS'gait'
p7024
aa(lp7025
S'chips'
p7026
aS'lips'
p7027
aa(lp7028
S'this'
p7029
aS'kiss'
p7030
aa(lp7031
S'shame'
p7032
aS'blame'
p7033
aa(lp7034
S'lust'
p7035
aS'trust'
p7036
aa(lp7037
S'straight'
p7038
aS'bait'
p7039
aa(lp7040
S'had'
p7041
aS'mad'
p7042
aa(lp7043
S'so'
p7044
aS'woe'
p7045
aa(lp7046
S'extreme'
p7047
aS'dream'
p7048
aa(lp7049
S'well'
p7050
aS'hell'
p7051
aa(lp7052
S'sun'
p7053
aS'dun'
p7054
aa(lp7055
S'red'
p7056
aS'head'
p7057
aa(lp7058
S'white'
p7059
aS'delight'
p7060
aa(lp7061
S'cheeks'
p7062
aS'reeks'
p7063
aa(lp7064
S'know'
p7065
aS'go'
p7066
aa(lp7067
S'sound'
p7068
aS'ground'
p7069
aa(lp7070
S'rare'
p7071
aS'compare'
p7072
aa(lp7073
S'art'
p7074
aS'heart'
p7075
aa(lp7076
S'cruel'
p7077
aS'jewel'
p7078
aa(lp7079
S'behold'
p7080
aS'bold'
p7081
aa(lp7082
S'groan'
p7083
aS'alone'
p7084
aa(lp7085
S'swear'
p7086
aS'bear'
p7087
aa(lp7088
S'face'
p7089
aS'place'
p7090
aa(lp7091
S'deeds'
p7092
aS'proceeds'
p7093
aa(lp7094
S'me'
p7095
aS'be'
p7096
aa(lp7097
S'disdain'
p7098
aS'pain'
p7099
aa(lp7100
S'heaven'
p7101
aS'even'
p7102
aa(lp7103
S'east'
p7104
aS'west'
p7105
aa(lp7106
S'face'
p7107
aS'grace'
p7108
aa(lp7109
S'heart'
p7110
aS'part'
p7111
aa(lp7112
S'black'
p7113
aS'lack'
p7114
aa(lp7115
S'groan'
p7116
aS'alone'
p7117
aa(lp7118
S'me'
p7119
aS'be'
p7120
aa(lp7121
S'taken'
p7122
aS'forsaken'
p7123
aa(lp7124
S'engrossed'
p7125
aS'crossed'
p7126
aa(lp7127
S'ward'
p7128
aS'guard'
p7129
aa(lp7130
S'bail'
p7131
aS'gaol'
p7132
aa(lp7133
S'thee'
p7134
aS'me'
p7135
aa(lp7136
S'thine'
p7137
aS'mine'
p7138
aa(lp7139
S'will'
p7140
aS'still'
p7141
aa(lp7142
S'free'
p7143
aS'me'
p7144
aa(lp7145
S'kind'
p7146
aS'bind'
p7147
aa(lp7148
S'take'
p7149
aS'sake'
p7150
aa(lp7151
S'use'
p7152
aS'abuse'
p7153
aa(lp7154
S'me'
p7155
aS'free'
p7156
aa(lp7157
S'will'
p7158
aS'still'
p7159
aa(lp7160
S'over-plus'
p7161
aS'thus'
p7162
aa(lp7163
S'spacious'
p7164
aS'gracious'
p7165
aa(lp7166
S'thine'
p7167
aS'shine'
p7168
aa(lp7169
S'still'
p7170
aS'will'
p7171
aa(lp7172
S'store'
p7173
aS'more'
p7174
aa(lp7175
S'kill'
p7176
aS"'Will'"
p7177
aa(lp7178
S'near'
p7179
aS'there'
p7180
aa(lp7181
S"'Will'"
p7182
aS'fulfil'
p7183
aa(lp7184
S'love'
p7185
aS'prove'
p7186
aa(lp7187
S'one'
p7188
aS'none'
p7189
aa(lp7190
S'untold'
p7191
aS'hold'
p7192
aa(lp7193
S'be'
p7194
aS'thee'
p7195
aa(lp7196
S'still'
p7197
aS'Will'
p7198
aa(lp7199
S'eyes'
p7200
aS'lies'
p7201
aa(lp7202
S'see'
p7203
aS'be'
p7204
aa(lp7205
S'looks'
p7206
aS'hooks'
p7207
aa(lp7208
S'ride'
p7209
aS'tied'
p7210
aa(lp7211
S'plot'
p7212
aS'not'
p7213
aa(lp7214
S'place'
p7215
aS'face'
p7216
aa(lp7217
S'erred'
p7218
aS'transferred'
p7219
aa(lp7220
S'truth'
p7221
aS'youth'
p7222
aa(lp7223
S'lies'
p7224
aS'subtleties'
p7225
aa(lp7226
S'young'
p7227
aS'tongue'
p7228
aa(lp7229
S'best'
p7230
aS'suppressed'
p7231
aa(lp7232
S'unjust'
p7233
aS'trust'
p7234
aa(lp7235
S'old'
p7236
aS'told'
p7237
aa(lp7238
S'me'
p7239
aS'be'
p7240
aa(lp7241
S'wrong'
p7242
aS'tongue'
p7243
aa(lp7244
S'heart'
p7245
aS'art'
p7246
aa(lp7247
S'sight'
p7248
aS'might'
p7249
aa(lp7250
S'aside'
p7251
aS'bide'
p7252
aa(lp7253
S'knows'
p7254
aS'foes'
p7255
aa(lp7256
S'enemies'
p7257
aS'injuries'
p7258
aa(lp7259
S'slain'
p7260
aS'pain'
p7261
aa(lp7262
S'press'
p7263
aS'express'
p7264
aa(lp7265
S'disdain'
p7266
aS'pain'
p7267
aa(lp7268
S'were'
p7269
aS'near'
p7270
aa(lp7271
S'so'
p7272
aS'know'
p7273
aa(lp7274
S'mad'
p7275
aS'bad'
p7276
aa(lp7277
S'thee'
p7278
aS'be'
p7279
aa(lp7280
S'belied'
p7281
aS'wide'
p7282
aa(lp7283
S'eyes'
p7284
aS'despise'
p7285
aa(lp7286
S'note'
p7287
aS'dote'
p7288
aa(lp7289
S'delighted'
p7290
aS'invited'
p7291
aa(lp7292
S'prone'
p7293
aS'alone'
p7294
aa(lp7295
S'can'
p7296
aS'man'
p7297
aa(lp7298
S'thee'
p7299
aS'be'
p7300
aa(lp7301
S'gain'
p7302
aS'pain'
p7303
aa(lp7304
S'hate'
p7305
aS'state'
p7306
aa(lp7307
S'loving'
p7308
aS'reproving'
p7309
aa(lp7310
S'thine'
p7311
aS'mine'
p7312
aa(lp7313
S'ornaments'
p7314
aS'rents'
p7315
aa(lp7316
S'those'
p7317
aS'grows'
p7318
aa(lp7319
S'thee'
p7320
aS'be'
p7321
aa(lp7322
S'hide'
p7323
aS'denied'
p7324
aa(lp7325
S'catch'
p7326
aS'dispatch'
p7327
aa(lp7328
S'away'
p7329
aS'stay'
p7330
aa(lp7331
S'chase'
p7332
aS'face'
p7333
aa(lp7334
S'bent'
p7335
aS'discontent'
p7336
aa(lp7337
S'thee'
p7338
aS'me'
p7339
aa(lp7340
S'behind'
p7341
aS'kind'
p7342
aa(lp7343
S'Will'
p7344
aS'still'
p7345
aa(lp7346
S'despair'
p7347
aS'fair'
p7348
aa(lp7349
S'still'
p7350
aS'ill'
p7351
aa(lp7352
S'evil'
p7353
aS'devil'
p7354
aa(lp7355
S'side'
p7356
aS'pride'
p7357
aa(lp7358
S'fiend'
p7359
aS'friend'
p7360
aa(lp7361
S'tell'
p7362
aS'hell'
p7363
aa(lp7364
S'doubt'
p7365
aS'out'
p7366
aa(lp7367
S'make'
p7368
aS'sake'
p7369
aa(lp7370
S"hate'"
p7371
aS'state'
p7372
aa(lp7373
S'come'
p7374
aS'doom'
p7375
aa(lp7376
S'sweet'
p7377
aS'greet'
p7378
aa(lp7379
S'end'
p7380
aS'fiend'
p7381
aa(lp7382
S'day'
p7383
aS'away'
p7384
aa(lp7385
S'threw'
p7386
aS"you'"
p7387
aa(lp7388
S'earth'
p7389
aS'dearth'
p7390
aa(lp7391
S'array'
p7392
aS'gay'
p7393
aa(lp7394
S'lease'
p7395
aS'excess'
p7396
aa(lp7397
S'spend'
p7398
aS'end'
p7399
aa(lp7400
S'loss'
p7401
aS'dross'
p7402
aa(lp7403
S'store'
p7404
aS'more'
p7405
aa(lp7406
S'men'
p7407
aS'then'
p7408
aa(lp7409
S'still'
p7410
aS'ill'
p7411
aa(lp7412
S'disease'
p7413
aS'please'
p7414
aa(lp7415
S'love'
p7416
aS'approve'
p7417
aa(lp7418
S'kept'
p7419
aS'except'
p7420
aa(lp7421
S'care'
p7422
aS'are'
p7423
aa(lp7424
S'unrest'
p7425
aS'expressed'
p7426
aa(lp7427
S'bright'
p7428
aS'night'
p7429
aa(lp7430
S'head'
p7431
aS'fled'
p7432
aa(lp7433
S'sight'
p7434
aS'aright'
p7435
aa(lp7436
S'dote'
p7437
aS'denote'
p7438
aa(lp7439
S'so'
p7440
aS'no'
p7441
aa(lp7442
S'true'
p7443
aS'view'
p7444
aa(lp7445
S'tears'
p7446
aS'clears'
p7447
aa(lp7448
S'blind'
p7449
aS'find'
p7450
aa(lp7451
S'not'
p7452
aS'forgot'
p7453
aa(lp7454
S'partake'
p7455
aS'sake'
p7456
aa(lp7457
S'friend'
p7458
aS'spend'
p7459
aa(lp7460
S'upon'
p7461
aS'moan'
p7462
aa(lp7463
S'respect'
p7464
aS'defect'
p7465
aa(lp7466
S'despise'
p7467
aS'eyes'
p7468
aa(lp7469
S'mind'
p7470
aS'blind'
p7471
aa(lp7472
S'might'
p7473
aS'sight'
p7474
aa(lp7475
S'sway'
p7476
aS'day'
p7477
aa(lp7478
S'ill'
p7479
aS'skill'
p7480
aa(lp7481
S'deeds'
p7482
aS'exceeds'
p7483
aa(lp7484
S'more'
p7485
aS'abhor'
p7486
aa(lp7487
S'hate'
p7488
aS'state'
p7489
aa(lp7490
S'me'
p7491
aS'thee'
p7492
aa(lp7493
S'is'
p7494
aS'amiss'
p7495
aa(lp7496
S'love'
p7497
aS'prove'
p7498
aa(lp7499
S'betray'
p7500
aS'may'
p7501
aa(lp7502
S'treason'
p7503
aS'reason'
p7504
aa(lp7505
S'thee'
p7506
aS'be'
p7507
aa(lp7508
S'pride'
p7509
aS'side'
p7510
aa(lp7511
S'call'
p7512
aS'fall'
p7513
aa(lp7514
S'forsworn'
p7515
aS'torn'
p7516
aa(lp7517
S'swearing'
p7518
aS'bearing'
p7519
aa(lp7520
S'thee'
p7521
aS'thee'
p7522
aa(lp7523
S'most'
p7524
aS'lost'
p7525
aa(lp7526
S'kindness'
p7527
aS'blindness'
p7528
aa(lp7529
S'constancy'
p7530
aS'see'
p7531
aa(lp7532
g5884
aS'be'
p7533
aa(lp7534
S'asleep'
p7535
aS'steep'
p7536
aa(lp7537
S'found'
p7538
aS'ground'
p7539
aa(lp7540
S'Love'
p7541
aS'prove'
p7542
aa(lp7543
S'endure'
p7544
aS'cure'
p7545
aa(lp7546
S'new-fired'
p7547
aS'desired'
p7548
aa(lp7549
S'breast'
p7550
aS'guest'
p7551
aa(lp7552
S'lies'
p7553
aS'eyes'
p7554
aa(lp7555
S'asleep'
p7556
aS'keep'
p7557
aa(lp7558
S'brand'
p7559
aS'hand'
p7560
aa(lp7561
S'fire'
p7562
aS'desire'
p7563
aa(lp7564
S'warmed'
p7565
aS'disarmed'
p7566
aa(lp7567
S'by'
p7568
aS'remedy'
p7569
aa(lp7570
S'perpetual'
p7571
aS'thrall'
p7572
aa(lp7573
S'prove'
p7574
aS'love'
p7575
aa(lp7576
S'hands'
p7577
aS'bands'
p7578
aa(lp7579
S'might'
p7580
aS'sight'
p7581
aa(lp7582
S'light'
p7583
aS'sprite'
p7584
aa(lp7585
S'look'
p7586
aS'book'
p7587
aa(lp7588
S'brook'
p7589
aS'look'
p7590
aa(lp7591
S'is'
p7592
aS'bliss'
p7593
aa(lp7594
S'alone'
p7595
aS'none'
p7596
aa(lp7597
S'bred'
p7598
aS'fed'
p7599
aa(lp7600
S'heart'
p7601
aS'art'
p7602
aa(lp7603
S'part'
p7604
aS'smart'
p7605
aa(lp7606
S'brood'
p7607
aS'food'
p7608
aa(lp7609
S'proud'
p7610
aS'mood'
p7611
aa(lp7612
S'feet'
p7613
aS'entreat'
p7614
aa(lp7615
S'cherish'
p7616
aS'perish'
p7617
aa(lp7618
S'admire'
p7619
aS'fire'
p7620
aa(lp7621
S'praised'
p7622
aS'raised'
p7623
aa(lp7624
S'dazed'
p7625
aS'amazed'
p7626
aa(lp7627
S'view'
p7628
aS'hew'
p7629
aa(lp7630
S'due'
p7631
aS'true'
p7632
aa(lp7633
S'astonishment'
p7634
aS'wonderment'
p7635
aa(lp7636
S'write'
p7637
aS'endite'
p7638
aa(lp7639
S'gate'
p7640
aS'date'
p7641
aa(lp7642
S'delight'
p7643
aS'sprite'
p7644
aa(lp7645
S'night'
p7646
aS'dight'
p7647
aa(lp7648
S'bower'
p7649
aS'power'
p7650
aa(lp7651
S'hour'
p7652
aS'flower'
p7653
aa(lp7654
S'receive'
p7655
aS'weave'
p7656
aa(lp7657
S'rain'
p7658
aS'entertain'
p7659
aa(lp7660
S'desire'
p7661
aS'admire'
p7662
aa(lp7663
S'pride'
p7664
aS'envied'
p7665
aa(lp7666
S'implied'
p7667
aS'wide'
p7668
aa(lp7669
S'dishonor'
p7670
aS'her'
p7671
aa(lp7672
S'honor'
p7673
aS'banner'
p7674
aa(lp7675
S'eyes'
p7676
aS'enemies'
p7677
aa(lp7678
S'tried'
p7679
aS'pride'
p7680
aa(lp7681
S'mind'
p7682
aS'kind'
p7683
aa(lp7684
S'pride'
p7685
aS'abide'
p7686
aa(lp7687
S'dried'
p7688
aS'divide'
p7689
aa(lp7690
S'fire'
p7691
aS'aspire'
p7692
aa(lp7693
S'desire'
p7694
aS'entire'
p7695
aa(lp7696
S'ever'
p7697
aS'sever'
p7698
aa(lp7699
S'pain'
p7700
aS'remain'
p7701
aa(lp7702
S'heart'
p7703
aS'dart'
p7704
aa(lp7705
S'you'
p7706
aS'view'
p7707
aa(lp7708
S'hew'
p7709
aS'askew'
p7710
aa(lp7711
S'inspired'
p7712
aS'fired'
p7713
aa(lp7714
S'desired'
p7715
aS'admired'
p7716
aa(lp7717
S'best'
p7718
aS'breast'
p7719
aa(lp7720
S'light'
p7721
aS'might'
p7722
aa(lp7723
S'fire'
p7724
aS'conspire'
p7725
aa(lp7726
S'near'
p7727
aS'dear'
p7728
aa(lp7729
S'guest'
p7730
aS'rest'
p7731
aa(lp7732
S'wound'
p7733
aS'bound'
p7734
aa(lp7735
S'within'
p7736
aS'begin'
p7737
aa(lp7738
S'speak'
p7739
aS'weak'
p7740
aa(lp7741
S'never'
p7742
aS'ever'
p7743
aa(lp7744
S'compare'
p7745
aS'dare'
p7746
aa(lp7747
S'sprite'
p7748
aS'light'
p7749
aa(lp7750
S'night'
p7751
aS'sight'
p7752
aa(lp7753
S'never'
p7754
aS'ever'
p7755
aa(lp7756
S'persever'
p7757
aS'sever'
p7758
aa(lp7759
S'tender'
p7760
aS'her'
p7761
aa(lp7762
S'be'
p7763
aS'see'
p7764
aa(lp7765
S'this'
p7766
aS'bliss'
p7767
aa(lp7768
S'be'
p7769
aS'me'
p7770
aa(lp7771
S'see'
p7772
aS'thee'
p7773
aa(lp7774
S'make'
p7775
aS'take'
p7776
aa(lp7777
S'shake'
p7778
aS'make'
p7779
aa(lp7780
S'comptroll'
p7781
aS'enroll'
p7782
aa(lp7783
S'sort'
p7784
aS'sport'
p7785
aa(lp7786
S'peace'
p7787
aS'address'
p7788
aa(lp7789
S'truth'
p7790
aS"renew'th"
p7791
aa(lp7792
S'ruth'
p7793
aS'persueth'
p7794
aa(lp7795
S'toil'
p7796
aS'spoil'
p7797
aa(lp7798
S'assoyle'
p7799
aS'turmoil'
p7800
aa(lp7801
S'pacify'
p7802
aS'die'
p7803
aa(lp7804
S'peace'
p7805
aS'surcease'
p7806
aa(lp7807
S'eyes'
p7808
aS'enemies'
p7809
aa(lp7810
S'entertain'
p7811
aS'train'
p7812
aa(lp7813
S'remain'
p7814
aS'eyen'
p7815
aa(lp7816
S'long'
p7817
aS'throng'
p7818
aa(lp7819
S'strong'
p7820
aS'wrong'
p7821
aa(lp7822
S'hands'
p7823
aS'bands'
p7824
aa(lp7825
S'complain'
p7826
aS'gain'
p7827
aa(lp7828
S'graceth'
p7829
aS'embaseth'
p7830
aa(lp7831
S'sky'
p7832
aS'descry'
p7833
aa(lp7834
S'majesty'
p7835
aS'mortality'
p7836
aa(lp7837
S'born'
p7838
aS'return'
p7839
aa(lp7840
S'scorn'
p7841
aS'forlorn'
p7842
aa(lp7843
S'climb'
p7844
aS'slime'
p7845
aa(lp7846
S'me'
p7847
aS'be'
p7848
aa(lp7849
S'dismayed'
p7850
aS'afraid'
p7851
aa(lp7852
S'quite'
p7853
aS'light'
p7854
aa(lp7855
S'might'
p7856
aS'fight'
p7857
aa(lp7858
S'belay'
p7859
aS'assay'
p7860
aa(lp7861
S'may'
p7862
aS'dismay'
p7863
aa(lp7864
S'heart'
p7865
aS'convert'
p7866
aa(lp7867
S'her'
p7868
aS'her'
p7869
aa(lp7870
S'toil'
p7871
aS'spoil'
p7872
aa(lp7873
S'gain'
p7874
aS'vain'
p7875
aa(lp7876
S'contain'
p7877
aS'plain'
p7878
aa(lp7879
S'found'
p7880
aS'sound'
p7881
aa(lp7882
S'round'
p7883
aS'ground'
p7884
aa(lp7885
S'weene'
p7886
aS'sheen'
p7887
aa(lp7888
S'behold'
p7889
aS'manifold'
p7890
aa(lp7891
S'gaze'
p7892
aS'amaze'
p7893
aa(lp7894
S'light'
p7895
aS'delight'
p7896
aa(lp7897
S'sight'
p7898
aS'bright'
p7899
aa(lp7900
S'fly'
p7901
aS'by'
p7902
aa(lp7903
S'spy'
p7904
aS'eye'
p7905
aa(lp7906
S'heart'
p7907
aS'dart'
p7908
aa(lp7909
S'slain'
p7910
aS'pain'
p7911
aa(lp7912
S'face'
p7913
aS'embase'
p7914
aa(lp7915
S'skill'
p7916
aS'fill'
p7917
aa(lp7918
S'will'
p7919
aS'spill'
p7920
aa(lp7921
S'guide'
p7922
aS'beside'
p7923
aa(lp7924
S'glide'
p7925
aS'pride'
p7926
aa(lp7927
S'heart'
p7928
aS'art'
p7929
aa(lp7930
S'need'
p7931
aS'indeed'
p7932
aa(lp7933
S'round'
p7934
aS'redound'
p7935
aa(lp7936
S'tear'
p7937
aS'wear'
p7938
aa(lp7939
S'tear'
p7940
aS'hear'
p7941
aa(lp7942
S'heart'
p7943
aS'smart'
p7944
aa(lp7945
S'part'
p7946
aS'art'
p7947
aa(lp7948
S'water'
p7949
aS'laughter'
p7950
aa(lp7951
S'vain'
p7952
aS'remain'
p7953
aa(lp7954
S'spring'
p7955
aS'king'
p7956
aa(lp7957
S'sounded'
p7958
aS'crowned'
p7959
aa(lp7960
S'resounded'
p7961
aS'rebounded'
p7962
aa(lp7963
S'praise'
p7964
aS'lays'
p7965
aa(lp7966
S'raise'
p7967
aS'disobeys'
p7968
aa(lp7969
S'ought'
p7970
aS'nought'
p7971
aa(lp7972
S'thee'
p7973
aS'be'
p7974
aa(lp7975
S'grace'
p7976
aS'place'
p7977
aa(lp7978
S'pour'
p7979
aS'floor'
p7980
aa(lp7981
S'power'
p7982
aS'devour'
p7983
aa(lp7984
S'field'
p7985
aS'yield'
p7986
aa(lp7987
S'wild'
p7988
aS'defiled'
p7989
aa(lp7990
S'lioness'
p7991
aS'cruelness'
p7992
aa(lp7993
S'say'
p7994
aS'prey'
p7995
aa(lp7996
S'art'
p7997
aS'part'
p7998
aa(lp7999
S'face'
p8000
aS'grace'
p8001
aa(lp8002
S'displace'
p8003
aS'chase'
p8004
aa(lp8005
S'allure'
p8006
aS'impure'
p8007
aa(lp8008
S'inure'
p8009
aS'recure'
p8010
aa(lp8011
S'dismay'
p8012
aS'away'
p8013
aa(lp8014
S'looks'
p8015
aS'books'
p8016
aa(lp8017
S'pray'
p8018
aS'day'
p8019
aa(lp8020
S'inclined'
p8021
aS'find'
p8022
aa(lp8023
S'mind'
p8024
aS'attend'
p8025
aa(lp8026
S'is'
p8027
aS'amiss'
p8028
aa(lp8029
S'bliss'
p8030
aS'sacrifice'
p8031
aa(lp8032
S'ire'
p8033
aS'desire'
p8034
aa(lp8035
S'accept'
p8036
aS'kept'
p8037
aa(lp8038
S'sake'
p8039
aS'make'
p8040
aa(lp8041
S'deceive'
p8042
aS'unreave'
p8043
aa(lp8044
S'conceive'
p8045
aS'weave'
p8046
aa(lp8047
S'shun'
p8048
aS'undone'
p8049
aa(lp8050
S'begun'
p8051
aS'spun'
p8052
aa(lp8053
S'end'
p8054
aS'rend'
p8055
aa(lp8056
S'find'
p8057
aS'wind'
p8058
aa(lp8059
S'wonderment'
p8060
aS'complement'
p8061
aa(lp8062
S'part'
p8063
aS'art'
p8064
aa(lp8065
S'smart'
p8066
aS'dart'
p8067
aa(lp8068
S'me'
p8069
aS'see'
p8070
aa(lp8071
S'agree'
p8072
aS'be'
p8073
aa(lp8074
S'send'
p8075
aS'offend'
p8076
aa(lp8077
S'intreat'
p8078
aS'beat'
p8079
aa(lp8080
S'endure'
p8081
aS'unsure'
p8082
aa(lp8083
S'mystery'
p8084
aS'doubtfully'
p8085
aa(lp8086
S'die'
p8087
aS'cruelty'
p8088
aa(lp8089
S'pride'
p8090
aS'tried'
p8091
aa(lp8092
S'hide'
p8093
aS'abide'
p8094
aa(lp8095
S'grace'
p8096
aS'embrace'
p8097
aa(lp8098
S'be'
p8099
aS'me'
p8100
aa(lp8101
S'briar'
p8102
aS'near'
p8103
aa(lp8104
S'bough'
p8105
aS'rough'
p8106
aa(lp8107
S'tough'
p8108
aS'enough'
p8109
aa(lp8110
S'pill'
p8111
aS'ill'
p8112
aa(lp8113
S'still'
p8114
aS'will'
p8115
aa(lp8116
S'more'
p8117
aS'store'
p8118
aa(lp8119
S'pain'
p8120
aS'gain'
p8121
aa(lp8122
S'proud'
p8123
aS'shroud'
p8124
aa(lp8125
S'unclean'
p8126
aS'weene'
p8127
aa(lp8128
S'beseen'
p8129
aS'been'
p8130
aa(lp8131
S'attire'
p8132
aS'admire'
p8133
aa(lp8134
S'inquire'
p8135
aS'expire'
p8136
aa(lp8137
S'remain'
p8138
aS'pain'
p8139
aa(lp8140
S'perish'
p8141
aS'cherish'
p8142
aa(lp8143
S'wear'
p8144
aS'bear'
p8145
aa(lp8146
S'mind'
p8147
aS'inclined'
p8148
aa(lp8149
S'find'
p8150
aS'mind'
p8151
aa(lp8152
S'inspire'
p8153
aS'attire'
p8154
aa(lp8155
S'fire'
p8156
aS'ire'
p8157
aa(lp8158
S'fly'
p8159
aS'tree'
p8160
aa(lp8161
S'chace'
p8162
aS'embrace'
p8163
aa(lp8164
S'deprave'
p8165
aS'gave'
p8166
aa(lp8167
S'scorn'
p8168
aS'forlorn'
p8169
aa(lp8170
S'borne'
p8171
aS'adorn'
p8172
aa(lp8173
S'meeds'
p8174
aS'deeds'
p8175
aa(lp8176
S'needs'
p8177
aS'exceeds'
p8178
aa(lp8179
S'thrall'
p8180
aS'all'
p8181
aa(lp8182
S'bays'
p8183
aS'praise'
p8184
aa(lp8185
S'fire'
p8186
aS'desire'
p8187
aa(lp8188
S'great'
p8189
aS'intreat'
p8190
aa(lp8191
S'heat'
p8192
aS'sweat'
p8193
aa(lp8194
S'cold'
p8195
aS'manifold'
p8196
aa(lp8197
S'told'
p8198
aS'cold'
p8199
aa(lp8200
S'ice'
p8201
aS'device'
p8202
aa(lp8203
S'mind'
p8204
aS'kind'
p8205
aa(lp8206
S'heart'
p8207
aS'part'
p8208
aa(lp8209
S'grace'
p8210
aS'deface'
p8211
aa(lp8212
S'race'
p8213
aS'chase'
p8214
aa(lp8215
S'hath'
p8216
aS'wrath'
p8217
aa(lp8218
S'scath'
p8219
aS'bath'
p8220
aa(lp8221
S'hue'
p8222
aS'embrew'
p8223
aa(lp8224
S'accord'
p8225
aS'abhored'
p8226
aa(lp8227
S'heat'
p8228
aS'beat'
p8229
aa(lp8230
S'mollify'
p8231
aS'apply'
p8232
aa(lp8233
S'fry'
p8234
ag5884
aa(lp8235
S'whit'
p8236
aS'wit'
p8237
aa(lp8238
S'fit'
p8239
aS'smit'
p8240
aa(lp8241
S'pride'
p8242
aS'applied'
p8243
aa(lp8244
S'burn'
p8245
aS'turn'
p8246
aa(lp8247
S'deny'
p8248
aS'Fa&edry'
p8249
aa(lp8250
S'dread'
p8251
aS'dead'
p8252
aa(lp8253
S'aread'
p8254
aS'head'
p8255
aa(lp8256
S'it'
p8257
aS'writ'
p8258
aa(lp8259
S'wit'
p8260
aS'fit'
p8261
aa(lp8262
S'toil'
p8263
aS'spoil'
p8264
aa(lp8265
S'rest'
p8266
aS'breast'
p8267
aa(lp8268
S'wide'
p8269
aS'guide'
p8270
aa(lp8271
S'way'
p8272
aS'astray'
p8273
aa(lp8274
S'ray'
p8275
aS'dismay'
p8276
aa(lp8277
S'overcast'
p8278
aS'plast'
p8279
aa(lp8280
S'past'
p8281
aS'last'
p8282
aa(lp8283
S'life'
p8284
aS'grief'
p8285
aa(lp8286
S'comfortless'
p8287
aS'pensiveness'
p8288
aa(lp8289
S'covetize'
p8290
aS'suffice'
p8291
aa(lp8292
S'pain'
p8293
aS'complain'
p8294
aa(lp8295
S'sustain'
p8296
aS'vain'
p8297
aa(lp8298
S'more'
p8299
aS'poor'
p8300
aa(lp8301
S'store'
p8302
aS'before'
p8303
aa(lp8304
S'brook'
p8305
aS'look'
p8306
aa(lp8307
S'me'
p8308
aS'she'
p8309
aa(lp8310
S'end'
p8311
aS'spend'
p8312
aa(lp8313
S'cease'
p8314
aS'release'
p8315
aa(lp8316
S'peace'
p8317
aS'increase'
p8318
aa(lp8319
S'eyes'
p8320
aS'miseries'
p8321
aa(lp8322
S'extermities'
p8323
aS'dispise'
p8324
aa(lp8325
S'gained'
p8326
aS'maintained'
p8327
aa(lp8328
S'moan'
p8329
aS'one'
p8330
aa(lp8331
S'tresses'
p8332
aS'dresses'
p8333
aa(lp8334
S'gold'
p8335
aS'told'
p8336
aa(lp8337
S'bold'
p8338
aS'enfold'
p8339
aa(lp8340
S'snare'
p8341
aS'aware'
p8342
aa(lp8343
S'stare'
p8344
aS'are'
p8345
aa(lp8346
S'net'
p8347
aS'get'
p8348
aa(lp8349
S'free'
p8350
aS'be'
p8351
aa(lp8352
S'wrack'
p8353
aS'make'
p8354
aa(lp8355
S'seas'
p8356
aS'ease'
p8357
aa(lp8358
S'please'
p8359
aS'appease'
p8360
aa(lp8361
S'skill'
p8362
aS'will'
p8363
aa(lp8364
S'still'
p8365
aS'spill'
p8366
aa(lp8367
S'decays'
p8368
aS'praise'
p8369
aa(lp8370
S'good'
p8371
aS'blood'
p8372
aa(lp8373
S'love'
p8374
aS'Jove'
p8375
aa(lp8376
S'art'
p8377
aS'dart'
p8378
aa(lp8379
S'art'
p8380
aS'part'
p8381
aa(lp8382
S'sadness'
p8383
aS'gladness'
p8384
aa(lp8385
S'madness'
p8386
aS'sadness'
p8387
aa(lp8388
S'trance'
p8389
aS'glance'
p8390
aa(lp8391
S'meat'
p8392
aS'eat'
p8393
aa(lp8394
S'cheer'
p8395
aS'appear'
p8396
aa(lp8397
S'it'
p8398
aS'sit'
p8399
aa(lp8400
S'wit'
p8401
aS'flit'
p8402
aa(lp8403
S'day'
p8404
aS'ray'
p8405
aa(lp8406
S'spray'
p8407
aS'dismay'
p8408
aa(lp8409
S'fled'
p8410
aS'head'
p8411
aa(lp8412
S'cheered'
p8413
aS'cleared'
p8414
aa(lp8415
S'will'
p8416
aS'skill'
p8417
aa(lp8418
S'foe'
p8419
aS'forgo'
p8420
aa(lp8421
S'so'
p8422
aS'woe'
p8423
aa(lp8424
S'most'
p8425
aS'lost'
p8426
aa(lp8427
S'boast'
p8428
aS'tossed'
p8429
aa(lp8430
S'beguile'
p8431
aS'spoil'
p8432
aa(lp8433
S'named'
p8434
aS'shamed'
p8435
aa(lp8436
S'tormenteth'
p8437
aS'augmenteth'
p8438
aa(lp8439
S'pain'
p8440
aS'bane'
p8441
aa(lp8442
S'vain'
p8443
aS'remain'
p8444
aa(lp8445
S'smart'
p8446
aS'heart'
p8447
aa(lp8448
S'start'
p8449
aS'pervert'
p8450
aa(lp8451
S'chain'
p8452
aS'restrain'
p8453
aa(lp8454
S'cruelty'
p8455
aS'die'
p8456
aa(lp8457
S'speak'
p8458
aS'break'
p8459
aa(lp8460
S'shall'
p8461
aS'gall'
p8462
aa(lp8463
S'thrall'
p8464
aS'all'
p8465
aa(lp8466
S'tie'
p8467
aS'die'
p8468
aa(lp8469
S'secretly'
p8470
aS'humility'
p8471
aa(lp8472
S'plead'
p8473
aS'read'
p8474
aa(lp8475
S'spell'
p8476
aS'well'
p8477
aa(lp8478
S'Greece'
p8479
aS'fleece'
p8480
aa(lp8481
S'war'
p8482
aS'bar'
p8483
aa(lp8484
S'war'
p8485
aS'are'
p8486
aa(lp8487
S'make'
p8488
aS'aslake'
p8489
aa(lp8490
S'take'
p8491
aS'awake'
p8492
aa(lp8493
S'despight'
p8494
aS'fight'
p8495
aa(lp8496
S'peace'
p8497
aS'increase'
p8498
aa(lp8499
S'clean'
p8500
aS'mean'
p8501
aa(lp8502
S'view'
p8503
aS'true'
p8504
aa(lp8505
S'shew'
p8506
aS'hue'
p8507
aa(lp8508
S'eye'
p8509
aS'immortally'
p8510
aa(lp8511
S'cruelty'
p8512
aS'visnomy'
p8513
aa(lp8514
S'were'
p8515
aS'appear'
p8516
aa(lp8517
S'see'
p8518
aS'be'
p8519
aa(lp8520
S'spent'
p8521
aS'sent'
p8522
aa(lp8523
S'way'
p8524
aS'stay'
p8525
aa(lp8526
S'obey'
p8527
aS'sway'
p8528
aa(lp8529
S'form'
p8530
aS'be'
p8531
aa(lp8532
S'see'
p8533
aS'she'
p8534
aa(lp8535
S'back'
p8536
aS'wrack'
p8537
aa(lp8538
S'sustain'
p8539
aS'rain'
p8540
aa(lp8541
S'looks'
p8542
aS'hooks'
p8543
aa(lp8544
S'tried'
p8545
aS'hide'
p8546
aa(lp8547
S'guide'
p8548
aS'pride'
p8549
aa(lp8550
S'decay'
p8551
aS'pray'
p8552
aa(lp8553
S'slay'
p8554
aS'play'
p8555
aa(lp8556
S'smile'
p8557
aS'beguile'
p8558
aa(lp8559
S'bane'
p8560
aS'pain'
p8561
aa(lp8562
S'hand'
p8563
aS'understand'
p8564
aa(lp8565
S'ire'
p8566
aS'fire'
p8567
aa(lp8568
S'hire'
p8569
aS'conspire'
p8570
aa(lp8571
S'ordained'
p8572
aS'pained'
p8573
aa(lp8574
S'contrained'
p8575
aS'complained'
p8576
aa(lp8577
S'heart'
p8578
aS'smart'
p8579
aa(lp8580
S'will'
p8581
aS'ill'
p8582
aa(lp8583
S'cruel'
p8584
aS'jewel'
p8585
aa(lp8586
S'kill'
p8587
aS'spill'
p8588
aa(lp8589
S'will'
p8590
aS'ill'
p8591
aa(lp8592
S'eyes'
p8593
aS'enemies'
p8594
aa(lp8595
S'cruelties'
p8596
aS'lies'
p8597
aa(lp8598
S'do'
p8599
aS'to'
p8600
aa(lp8601
S'be'
p8602
aS'me'
p8603
aa(lp8604
S'malady'
p8605
aS'apply'
p8606
aa(lp8607
S'grief'
p8608
aS'relief'
p8609
aa(lp8610
S'priefe'
p8611
aS'chief'
p8612
aa(lp8613
S'disease'
p8614
aS'please'
p8615
aa(lp8616
S'appease'
p8617
aS'ease'
p8618
aa(lp8619
S'heart'
p8620
aS'art'
p8621
aa(lp8622
S'reveal'
p8623
aS'heal'
p8624
aa(lp8625
S'images'
p8626
aS'ages'
p8627
aa(lp8628
S'made'
p8629
aS'fade'
p8630
aa(lp8631
S'trade'
p8632
aS'assayed'
p8633
aa(lp8634
S'commend'
p8635
aS'end'
p8636
aa(lp8637
S'attend'
p8638
aS'bend'
p8639
aa(lp8640
S'allure'
p8641
aS'endure'
p8642
aa(lp8643
S'her'
p8644
aS'greater'
p8645
aa(lp8646
S'depart'
p8647
aS'heart'
p8648
aa(lp8649
S'field'
p8650
aS'shield'
p8651
aa(lp8652
S'yield'
p8653
aS'exiled'
p8654
aa(lp8655
S'pain'
p8656
aS'remain'
p8657
aa(lp8658
S'vain'
p8659
aS'disdain'
p8660
aa(lp8661
S'breed'
p8662
aS'feed'
p8663
aa(lp8664
S'make'
p8665
aS'take'
p8666
aa(lp8667
S'hide'
p8668
aS'hide'
p8669
aa(lp8670
S'fray'
p8671
aS'prey'
p8672
aa(lp8673
S'play'
p8674
aS'decay'
p8675
aa(lp8676
S'hue'
p8677
aS'shew'
p8678
aa(lp8679
S'view'
p8680
aS'enbrew'
p8681
aa(lp8682
S'ornament'
p8683
aS'instrument'
p8684
aa(lp8685
S'agree'
p8686
aS'see'
p8687
aa(lp8688
S'stay'
p8689
aS'play'
p8690
aa(lp8691
S'sits'
p8692
aS'wits'
p8693
aa(lp8694
S'fits'
p8695
aS'flits'
p8696
aa(lp8697
S'comedy'
p8698
aS'tragedy'
p8699
aa(lp8700
S'eye'
p8701
aS'cry'
p8702
aa(lp8703
S'smart'
p8704
aS'heart'
p8705
aa(lp8706
S'moan'
p8707
aS'stone'
p8708
aa(lp8709
S'behold'
p8710
aS'mould'
p8711
aa(lp8712
S'compare'
p8713
aS'fair'
p8714
aa(lp8715
S'are'
p8716
aS'rare'
p8717
aa(lp8718
S'fire'
p8719
aS'desire'
p8720
aa(lp8721
S'inquire'
p8722
aS'aspire'
p8723
aa(lp8724
S'sky'
p8725
aS'high'
p8726
aa(lp8727
S'best'
p8728
aS'rest'
p8729
aa(lp8730
S'unkind'
p8731
aS'find'
p8732
aa(lp8733
S'greediness'
p8734
aS'oppress'
p8735
aa(lp8736
S'pityless'
p8737
aS'comfortless'
p8738
aa(lp8739
S'prostrate'
p8740
aS'ruinate'
p8741
aa(lp8742
S'obstinate'
p8743
aS'desolate'
p8744
aa(lp8745
S'floods'
p8746
aS'goods'
p8747
aa(lp8748
g5884
aS'destroy'
p8749
aa(lp8750
S'you'
p8751
aS'sue'
p8752
aa(lp8753
S'were'
p8754
aS'bear'
p8755
aa(lp8756
S'appear'
p8757
aS'everywhere'
p8758
aa(lp8759
S'jot'
p8760
aS'shot'
p8761
aa(lp8762
S'not'
p8763
aS'got'
p8764
aa(lp8765
S'stoures'
p8766
aS'yours'
p8767
aa(lp8768
S'grace'
p8769
aS'space'
p8770
aa(lp8771
S'herself'
p8772
aS'aid'
p8773
aa(lp8774
S'reposeth'
p8775
aS'supposeth'
p8776
aa(lp8777
S'afraid'
p8778
aS'air'
p8779
aa(lp8780
S'unstayed'
p8781
aS'preyed'
p8782
aa(lp8783
S'repair'
p8784
aS'assurance'
p8785
aa(lp8786
S'fair'
p8787
aS'stair'
p8788
aa(lp8789
S'endurence'
p8790
aS'far'
p8791
aa(lp8792
S'are'
p8793
aS'heart'
p8794
aa(lp8795
S'assured'
p8796
aS'allured'
p8797
aa(lp8798
S'start'
p8799
aS'aright'
p8800
aa(lp8801
S'part'
p8802
aS'depart'
p8803
aa(lp8804
S'delight'
p8805
aS'friends'
p8806
aa(lp8807
S'spite'
p8808
aS'might'
p8809
aa(lp8810
S'bends'
p8811
aS'rest'
p8812
aa(lp8813
S'best'
p8814
aS'year'
p8815
aa(lp8816
S'skilled'
p8817
aS'fulfilled'
p8818
aa(lp8819
S'sphere'
p8820
aS'spent'
p8821
aa(lp8822
S'clear'
p8823
aS'appear'
p8824
aa(lp8825
S'outwent'
p8826
aS'contains'
p8827
aa(lp8828
S'invent'
p8829
aS'languishment'
p8830
aa(lp8831
S'pains'
p8832
aS'ways'
p8833
aa(lp8834
S'days'
p8835
aS'thought'
p8836
aa(lp8837
S'beauty'
p8838
aS'duty'
p8839
aa(lp8840
S'aught'
p8841
aS'born'
p8842
aa(lp8843
S'wrought'
p8844
aS'upbrought'
p8845
aa(lp8846
S'adorn'
p8847
aS'admire'
p8848
aa(lp8849
S'morn'
p8850
aS'scorn'
p8851
aa(lp8852
S'aspire'
p8853
aS'be'
p8854
aa(lp8855
S'degree'
p8856
aS'anew'
p8857
aa(lp8858
S'run'
p8859
aS'begun'
p8860
aa(lp8861
S'ensue'
p8862
aS'amend'
p8863
aa(lp8864
S'view'
p8865
aS'eschew'
p8866
aa(lp8867
S'offend'
p8868
aS'ray'
p8869
aa(lp8870
S'send'
p8871
aS'blend'
p8872
aa(lp8873
S'away'
p8874
aS'sprite'
p8875
aa(lp8876
S'delight'
p8877
aS'heretofore'
p8878
aa(lp8879
S'assay'
p8880
aS'dismay'
p8881
aa(lp8882
S'sore'
p8883
aS'arrive'
p8884
aa(lp8885
S'shore'
p8886
aS'store'
p8887
aa(lp8888
S'alive'
p8889
aS'rest'
p8890
aa(lp8891
S'achieve'
p8892
aS'deprive'
p8893
aa(lp8894
S'oppressed'
p8895
aS'this'
p8896
aa(lp8897
S'bliss'
p8898
aS'flowers'
p8899
aa(lp8900
S'found'
p8901
aS'around'
p8902
aa(lp8903
S'bowers'
p8904
aS'red'
p8905
aa(lp8906
S'Gillyflowers'
p8907
aS'Bellamores'
p8908
aa(lp8909
S'spread'
p8910
aS'Columbines'
p8911
aa(lp8912
S'bed'
p8913
aS'shed'
p8914
aa(lp8915
S'Jasmines'
p8916
aS'smell'
p8917
aa(lp8918
S'excel'
p8919
aS'liberty'
p8920
aa(lp8921
S'vain'
p8922
aS'gain'
p8923
aa(lp8924
S'fly'
p8925
aS'ill'
p8926
aa(lp8927
S'tie'
p8928
aS'captivity'
p8929
aa(lp8930
S'fill'
p8931
aS'bound'
p8932
aa(lp8933
S'spill'
p8934
aS'will'
p8935
aa(lp8936
S'wound'
p8937
aS'tower'
p8938
aa(lp8939
S'bower'
p8940
aS'thrown'
p8941
aa(lp8942
S'have'
p8943
aS'gave'
p8944
aa(lp8945
S'one'
p8946
aS'mate'
p8947
aa(lp8948
S'paragon'
p8949
aS'none'
p8950
aa(lp8951
S'state'
p8952
aS'peer'
p8953
aa(lp8954
S'gate'
p8955
aS'dilate'
p8956
aa(lp8957
S'appear'
p8958
aS'me'
p8959
aa(lp8960
S'be'
p8961
aS'away'
p8962
aa(lp8963
S'chase'
p8964
aS'place'
p8965
aa(lp8966
S'pray'
p8967
aS'forsook'
p8968
aa(lp8969
S'assay'
p8970
aS'way'
p8971
aa(lp8972
S'brook'
p8973
aS'bide'
p8974
aa(lp8975
S'look'
p8976
aS'took'
p8977
aa(lp8978
S'tied'
p8979
aS'wild'
p8980
aa(lp8981
S'beguiled'
p8982
aS'sin'
p8983
aa(lp8984
S'day'
p8985
aS'away'
p8986
aa(lp8987
S'win'
p8988
aS'die'
p8989
aa(lp8990
S'begin'
p8991
aS'sin'
p8992
aa(lp8993
S'felicity'
p8994
aS'again'
p8995
aa(lp8996
S'worthily'
p8997
aS'buy'
p8998
aa(lp8999
S'entertain'
p9000
aS'ought'
p9001
aa(lp9002
S'taught'
p9003
aS'wise'
p9004
aa(lp9005
S'world'
p9006
aS'enrolled'
p9007
aa(lp9008
S'emprize'
p9009
aS'memory'
p9010
aa(lp9011
S'devise'
p9012
aS'prize'
p9013
aa(lp9014
S'chastity'
p9015
aS'monument'
p9016
aa(lp9017
S'eternity'
p9018
aS'posterity'
p9019
aa(lp9020
S'wonderment'
p9021
aS'spoil'
p9022
aa(lp9023
S'toil'
p9024
aS'displayed'
p9025
aa(lp9026
S'king'
p9027
aS'spring'
p9028
aa(lp9029
S'displayed'
p9030
aS'awake'
p9031
aa(lp9032
S'laid'
p9033
aS'staid'
p9034
aa(lp9035
S'take'
p9036
aS'crew'
p9037
aa(lp9038
S'make'
p9039
aS'make'
p9040
aa(lp9041
S'due'
p9042
aS'prime'
p9043
aa(lp9044
S'time'
p9045
aS'compare'
p9046
aa(lp9047
S'work'
p9048
aS'lurk'
p9049
aa(lp9050
S'unaware'
p9051
aS'love'
p9052
aa(lp9053
S'snare'
p9054
aS'are'
p9055
aa(lp9056
S'remove'
p9057
aS'Eglantine'
p9058
aa(lp9059
S'above'
p9060
aS'prove'
p9061
aa(lp9062
S'fine'
p9063
aS'see'
p9064
aa(lp9065
S'bee'
p9066
aS'sky'
p9067
aa(lp9068
S'wings'
p9069
aS'things'
p9070
aa(lp9071
S'mortality'
p9072
aS'light'
p9073
aa(lp9074
S'spy'
p9075
aS'fly'
p9076
aa(lp9077
S'flight'
p9078
aS'ease'
p9079
aa(lp9080
S'delight'
p9081
aS'might'
p9082
aa(lp9083
S'please'
p9084
aS'happiness'
p9085
aa(lp9086
S'bliss'
p9087
aS'tie'
p9088
aa(lp9089
S'care'
p9090
aS'hair'
p9091
aa(lp9092
S'fly'
p9093
aS'flight'
p9094
aa(lp9095
S'spy'
p9096
aS'eye'
p9097
aa(lp9098
S'sight'
p9099
aS'thrall'
p9100
aa(lp9101
S'bright'
p9102
aS'delight'
p9103
aa(lp9104
S'all'
p9105
aS'repent'
p9106
aa(lp9107
S'lent'
p9108
aS'designed'
p9109
aa(lp9110
S'trade'
p9111
aS'made'
p9112
aa(lp9113
S'mind'
p9114
aS'descent'
p9115
aa(lp9116
S'kind'
p9117
aS'kind'
p9118
aa(lp9119
S'lent'
p9120
aS'raised'
p9121
aa(lp9122
S'ornament'
p9123
aS'excellent'
p9124
aa(lp9125
S'praised'
p9126
aS'live'
p9127
aa(lp9128
S'give'
p9129
aS'away'
p9130
aa(lp9131
S'strand'
p9132
aS'hand'
p9133
aa(lp9134
S'prey'
p9135
aS'immortalize'
p9136
aa(lp9137
S'assay'
p9138
aS'decay'
p9139
aa(lp9140
S'likewise'
p9141
aS'fame'
p9142
aa(lp9143
S'devise'
p9144
aS'eternize'
p9145
aa(lp9146
S'name'
p9147
aS'subdue'
p9148
aa(lp9149
S'renew'
p9150
aS'delight'
p9151
aa(lp9152
S'treasure'
p9153
aS'pleasure'
p9154
aa(lp9155
S'sprite'
p9156
aS'astray'
p9157
aa(lp9158
S'sight'
p9159
aS'insight'
p9160
aa(lp9161
S'prey'
p9162
aS'apace'
p9163
aa(lp9164
S'May'
p9165
aS'display'
p9166
aa(lp9167
S'place'
p9168
aS'rest'
p9169
aa(lp9170
S'blest'
p9171
aS'ivory'
p9172
aa(lp9173
S'plain'
p9174
aS'entertain'
p9175
aa(lp9176
S'royalty'
p9177
aS'price'
p9178
aa(lp9179
S'lie'
p9180
aS'by'
p9181
aa(lp9182
S'entice'
p9183
aS'taste'
p9184
aa(lp9185
S'vice'
p9186
aS'paradise'
p9187
aa(lp9188
S'placed'
p9189
aS'spread'
p9190
aa(lp9191
S'fed'
p9192
aS'hind'
p9193
aa(lp9194
S'place'
p9195
aS'face'
p9196
aa(lp9197
S'mind'
p9198
aS'decked'
p9199
aa(lp9200
S'signed'
p9201
aS'find'
p9202
aa(lp9203
S'aspect'
p9204
aS'again'
p9205
aa(lp9206
S'direct'
p9207
aS'object'
p9208
aa(lp9209
S'vain'
p9210
aS'see'
p9211
aa(lp9212
S'me'
p9213
aS'see'
p9214
aa(lp9215
S'it'
p9216
aS'wit'
p9217
aa(lp9218
S'me'
p9219
aS'hue'
p9220
aa(lp9221
S'be'
p9222
aS'free'
p9223
aa(lp9224
S'ensue'
p9225
aS'seed'
p9226
aa(lp9227
S'you'
p9228
aS'true'
p9229
aa(lp9230
S'proceed'
p9231
aS'made'
p9232
aa(lp9233
S'fade'
p9234
aS'compile'
p9235
aa(lp9236
S'run'
p9237
aS'fordone'
p9238
aa(lp9239
S'awhile'
p9240
aS'anew'
p9241
aa(lp9242
S'toil'
p9243
aS'assoyle'
p9244
aa(lp9245
S'due'
p9246
aS'praise'
p9247
aa(lp9248
S'mew'
p9249
aS'hue'
p9250
aa(lp9251
S'raise'
p9252
aS'mean'
p9253
aa(lp9254
S'Queene'
p9255
aS'mark'
p9256
aa(lp9257
S'heares'
p9258
aS'appears'
p9259
aa(lp9260
S'spark'
p9261
aS'lay'
p9262
aa(lp9263
S'bark'
p9264
aS'dark'
p9265
aa(lp9266
S'away'
p9267
aS'dight'
p9268
aa(lp9269
S'display'
p9270
aS'way'
p9271
aa(lp9272
S'sprite'
p9273
aS'wonderment'
p9274
aa(lp9275
S'astonishment'
p9276
aS'placed'
p9277
aa(lp9278
S'you'
p9279
aS'rue'
p9280
aa(lp9281
S'debased'
p9282
aS'invent'
p9283
aa(lp9284
S'graced'
p9285
aS'enchased'
p9286
aa(lp9287
S'monument'
p9288
aS'worth'
p9289
aa(lp9290
S'relent'
p9291
aS'spent'
p9292
aa(lp9293
S'forth'
p9294
aS'me'
p9295
aa(lp9296
S'degree'
p9297
aS'pain'
p9298
aa(lp9299
S'covetize'
p9300
aS'suffice'
p9301
aa(lp9302
S'complain'
p9303
aS'more'
p9304
aa(lp9305
S'sustain'
p9306
aS'vain'
p9307
aa(lp9308
S'poor'
p9309
aS'brook'
p9310
aa(lp9311
S'store'
p9312
aS'before'
p9313
aa(lp9314
S'look'
p9315
aS'me'
p9316
aa(lp9317
S'she'
p9318
aS'desire'
p9319
aa(lp9320
S'fire'
p9321
aS'unrest'
p9322
aa(lp9323
S'breast'
p9324
aS'rest'
p9325
aa(lp9326
S'sprites'
p9327
aS'delights'
p9328
aa(lp9329
S'sights'
p9330
aS'plights'
p9331
aa(lp9332
S'attain'
p9333
aS'constrain'
p9334
aa(lp9335
S'perfection'
p9336
aS'election'
p9337
aa(lp9338
S'things'
p9339
aS'sings'
p9340
aa(lp9341
S'flatter'
p9342
aS'clatter'
p9343
aa(lp9344
S'matter'
p9345
aS'her'
p9346
aa(lp9347
S'admire'
p9348
aS'aspire'
p9349
aa(lp9350
S'entire'
p9351
aS'inspire'
p9352
aa(lp9353
S'quill'
p9354
aS'fill'
p9355
aa(lp9356
S'thunder'
p9357
aS'wonder'
p9358
aa(lp9359
S'sting'
p9360
aS'spring'
p9361
aa(lp9362
S'fell'
p9363
aS'well'
p9364
aa(lp9365
S'hell'
p9366
aS'tell'
p9367
aa(lp9368
S'hire'
p9369
aS'ire'
p9370
aa(lp9371
S'fire'
p9372
aS'conspire'
p9373
aa(lp9374
S'head'
p9375
aS'bred'
p9376
aa(lp9377
S'reward'
p9378
aS'prepared'
p9379
aa(lp9380
S'love'
p9381
aS'move'
p9382
aa(lp9383
S'outworn'
p9384
aS'morn'
p9385
aa(lp9386
S'adorn'
p9387
aS'forlorn'
p9388
aa(lp9389
S'end'
p9390
aS'reascend'
p9391
aa(lp9392
S'spend'
p9393
aS'extend'
p9394
aa(lp9395
S'beguile'
p9396
aS'mile'
p9397
aa(lp9398
S'last'
p9399
aS'fast'
p9400
aa(lp9401
S'light'
p9402
aS'night'
p9403
aa(lp9404
S'astray'
p9405
aS'dismay'
p9406
aa(lp9407
S'day'
p9408
aS'ray'
p9409
aa(lp9410
S'vain'
p9411
aS'remain'
p9412
aa(lp9413
S'plain'
p9414
aS'sustain'
p9415
aa(lp9416
S'part'
p9417
aS'heart'
p9418
aa(lp9419
S'mind'
p9420
aS'blind'
p9421
aa(lp9422
S'bough'
p9423
aS'vow'
p9424
aa(lp9425
S'mate'
p9426
aS'late'
p9427
aa(lp9428
S'disconsolate'
p9429
aS'desolate'
p9430
aa(lp9431
S'love'
p9432
aS'dove'
p9433
aa(lp9434
S'hove'
p9435
aS'move'
p9436
aa(lp9437
S'sight'
p9438
aS'delight'
p9439
aa(lp9440
S'miss'
p9441
aS'bliss'
p9442
aasS'D'
p9443
I26
sS'L'
p9444
I4
sS'O'
p9445
(lp9446
(lp9447
F0.7586967742848997
aF7.519431259584899e-222
aF0.06964313642700075
aF4.6213040232100295e-244
aF1.3290550088128931e-48
aF0.003818294110503597
aF0.008278260959818725
aF3.078140615352571e-249
aF1.6578872307885357e-240
aF3.8775151948046853e-227
aF0.08755202757955513
aF3.163272103589919e-192
aF0.04695112472888543
aF1.996575368888896e-286
aF0.003463321662017499
aF1.0891828529755162e-50
aF0.010124234916985664
aF8.909144067014002e-124
aF1.6620211165227252e-162
aF0.0
aF2.415877171891929e-95
aF0.0
aF1.543990904100409e-121
aF0.008161821347288715
aF0.0033110039830391005
aF0.0
aa(lp9448
F0.35249344822786016
aF0.04579780686932473
aF0.02790685324977307
aF5.787382388783544e-47
aF0.05323713225752028
aF1.7196702577973943e-59
aF0.000724372028085912
aF0.17324453985288002
aF1.4230471439209748e-133
aF0.1543729155114919
aF0.0797930568487867
aF7.931427811487939e-36
aF0.020575335650506642
aF1.0046103164395178e-30
aF0.025817462979889304
aF0.03201177730884287
aF0.006554381414907272
aF1.8068981455344115e-90
aF0.002219100206828141
aF0.00480490957914622
aF1.6356714131163393e-113
aF0.004205601776466213
aF0.009613447099212498
aF0.005545426636732638
aF0.0010824325017301925
aF2.006082545067626e-276
aa(lp9449
F0.07655600151782889
aF0.013917870767260341
aF0.023113727334443453
aF0.34484588259469345
aF0.07796910831388149
aF0.050812126980373476
aF0.021385297295337516
aF0.0318559821753171
aF0.10865733405245988
aF0.0052657846334553645
aF7.853890605218521e-26
aF0.06898973977967779
aF0.0012725449820600284
aF0.02535745417486813
aF0.00926226666582506
aF0.06321532324085223
aF0.0010523528249502619
aF0.03317720656357253
aF0.0021130734228724545
aF0.009288474708053149
aF0.013674568391500963
aF0.014054492880967146
aF0.0003815474367730129
aF0.0036790229592846848
aF6.8101364972436244e-62
aF0.00010281630369549596
aa(lp9450
F0.5840983355081764
aF0.075497915973572
aF0.1250572640900464
aF9.508505081187751e-95
aF0.05773659656739044
aF0.004826491133062248
aF0.005569503124859497
aF5.476839949155012e-68
aF0.025817123189651774
aF1.5386496655543545e-202
aF0.028560314320807325
aF2.7291008054932882e-204
aF0.04050188896640788
aF0.007552378159207381
aF0.011753755676589202
aF0.007116502613836218
aF0.0056158820165886645
aF0.0006470717941527215
aF6.235984392089219e-229
aF0.003730372485245011
aF4.136085844271836e-103
aF0.006332851695154076
aF0.005202957538763156
aF0.003269548763218395
aF0.0011132463832752137
aF9.601175798520236e-172
aasS'A_start'
p9451
(lp9452
F0.25
aF0.25
aF0.25
aF0.25
asb.