(iHMM
HiddenMarkovModel
p0
(dp1
S'A'
p2
(lp3
(lp4
F0.0496370726315422
aF0.06274244366380038
aF0.028463535821827375
aF1.5117208516552553e-09
aF1.9142348062525635e-24
aF0.06123483325980246
aF0.060209382224382935
aF0.7320466345916614
aF2.412609795963227e-08
aF0.005666072169154513
aa(lp5
F0.33517706421636456
aF1.541384117660113e-25
aF0.049512924585327876
aF0.22400996191401962
aF0.004906857860425893
aF0.07225332794664861
aF0.009034783585510497
aF0.08325398519093763
aF0.025858789788541323
aF0.19599230491221786
aa(lp6
F5.404478453453481e-10
aF5.0564498734604805e-21
aF2.694514527802315e-16
aF1.0726093718329991e-21
aF4.665289291396265e-21
aF0.9985499431591832
aF1.0699094692032814e-41
aF6.425032429232989e-43
aF0.0014500563003881424
aF5.466381830849212e-29
aa(lp7
F2.350631058014835e-12
aF2.543748663879634e-31
aF9.038446976774385e-30
aF4.969658102060342e-26
aF1.5050029014040698e-55
aF0.3306706021844336
aF1.2267484453222683e-57
aF1.1637161828982355e-14
aF0.6693293978132171
aF7.817036740576326e-17
aa(lp8
F0.06368301219175589
aF7.887445505238392e-38
aF0.025178288950078388
aF0.1453938858767066
aF5.0401830320074124e-49
aF9.596297255987177e-24
aF0.10692230604089585
aF6.982411490847387e-63
aF2.4190962277395734e-69
aF0.6588225069405521
aa(lp9
F1.8044688543386174e-48
aF1.5545050399928318e-42
aF1.07756135820527e-22
aF1.2721598927290836e-16
aF4.4542543099529277e-44
aF0.07936573312409609
aF3.806869020549425e-40
aF0.2710488442363417
aF0.6495854226395579
aF5.07937778576773e-40
aa(lp10
F0.006668576480720397
aF0.9614192830795668
aF1.899971538211243e-68
aF1.7251152098791632e-32
aF3.36074433560193e-63
aF9.58049656637553e-10
aF4.699686237727554e-55
aF1.3364486036879238e-41
aF0.028660098479082914
aF0.0032520410025825477
aa(lp11
F0.24567304703290085
aF1.0268875627575042e-87
aF0.00011255140621014256
aF0.28941842778002097
aF0.09026823132416185
aF0.0302635492007554
aF0.029398556939399433
aF0.13559872604600812
aF0.01728710942484804
aF0.16197980084569202
aa(lp12
F0.10231467555518613
aF0.07773678882656032
aF0.006889524033494806
aF0.024470719381091115
aF0.026344440615632597
aF0.026655366326626396
aF0.11508114978834472
aF0.5860842131691989
aF0.03440371915105281
aF1.9403152809684662e-05
aa(lp13
F0.32835423337177966
aF0.0021700877323078036
aF9.034843986813901e-30
aF0.2264611338001105
aF0.028527531807802143
aF0.004435812343495487
aF0.05547639805962287
aF0.014526744546427977
aF0.013327755495059794
aF0.32672030284339487
aasS'map'
p14
(dp15
S'fawn'
p16
I3132
sS'succour'
p17
I3235
sS'pardon'
p18
I1753
sS"t'abide"
p19
I3400
sS'yellow'
p20
I2005
sS'four'
p21
I1479
sS'hath'
p22
I457
sS'woods'
p23
I3521
sS'sleep'
p24
I1432
sS'abide'
p25
I1022
sS"friend's"
p26
I1170
sS'hanging'
p27
I936
sS'mansion'
p28
I2355
sS'appetite'
p29
I1698
sS'evermore'
p30
I1310
sS'hate'
p31
I479
sS'poorly'
p32
I1648
sS'whose'
p33
I160
sS'feeding'
p34
I1702
sS'reposeth'
p35
I4029
sS'effectually'
p36
I2606
sS'granting'
p37
I2246
sS'love-learned'
p38
I3866
sS'sweetest'
p39
I1266
sS'boundless'
p40
I1865
sS'presents'
p41
I1037
sS'bays'
p42
I3669
sS'whatsoever'
p43
I1000
sS'under'
p44
I339
sS'lord'
p45
I980
sS'sorry'
p46
I797
sS'pride'
p47
I961
sS'sway'
p48
I1904
sS'worth'
p49
I99
sS'frowns'
p50
I2323
sS'amorous'
p51
I4240
sS'discased'
p52
I3202
sS'dispense'
p53
I2600
sS'void'
p54
I4258
sS'hadst'
p55
I1368
sS'lurk'
p56
I4189
sS'inhearse'
p57
I2225
sS"women's"
p58
I824
sS'every'
p59
I254
sS'foul'
p60
I2726
sS'nourished'
p61
I2021
sS"o'er-read"
p62
I2157
sS'wonts'
p63
I3805
sS'flys'
p64
I4212
sS'thenceforth'
p65
I3823
sS'perusal'
p66
I1342
sS'uttering'
p67
I1949
sS'prize'
p68
I1550
sS'sunk'
p69
I541
sS'cause'
p70
I1571
sS'graced'
p71
I2114
sS'harrowed'
p72
I4162
sS'relics'
p73
I3572
sS'succession'
p74
I139
sS'graces'
p75
I729
sS'triumph'
p76
I953
sS'enjoy'
p77
I1092
sS'charter'
p78
I1748
sS'force'
p79
I1696
sS'depraves'
p80
I3687
sS'tired'
p81
I1013
sS'razed'
p82
I972
sS'warns'
p83
I3270
sS'out-going'
p84
I379
sS'direct'
p85
I3731
sS'tires'
p86
I1651
sS'longwhile'
p87
I3965
sS'crave'
p88
I1737
sS'persuade'
p89
I876
sS'down-rased'
p90
I1848
sS'rigorous'
p91
I3402
sS'esteem'
p92
I2420
sS'quill'
p93
I2187
sS'even'
p94
I672
sS'beated'
p95
I1826
sS'captain'
p96
I1631
sS'hide'
p97
I1203
sS"ne'er"
p98
I736
sS'wreck'
p99
I4016
sS'solemn'
p100
I1624
sS'thunder'
p101
I631
sS'fingers'
p102
I2857
sS'liberty'
p103
I1388
sS"gild'st"
p104
I1067
sS'lowliness'
p105
I3421
sS'worser'
p106
I3057
sS'heart-thrilling'
p107
I3386
sS'above'
p108
I2229
sS'conduct'
p109
I3724
sS'matcheth'
p110
I1960
sS'new'
p111
I142
sS'net'
p112
I3768
sS'increasing'
p113
I1857
sS'ever'
p114
I816
sS'seeks'
p115
I3382
sS'told'
p116
I1492
sS'deemed'
p117
I2370
sS'sinks'
p118
I1482
sS"t'adorn"
p119
I3544
sS'men'
p120
I668
sS'here'
p121
I583
sS'herd'
p122
I554
sS'beck'
p123
I1740
sS"sweet'st"
p124
I2921
sS'pursuit'
p125
I2884
sS'humility'
p126
I3864
sS'active'
p127
I1320
sS'quite'
p128
I271
sS'a-doting'
p129
I845
sS'dry'
p130
I1236
sS'resty'
p131
I2421
sS'substance'
p132
I297
sS'daughter'
p133
I3802
sS'uplifting'
p134
I4307
sS'attending'
p135
I363
sS'leaves'
p136
I272
sS'climbed'
p137
I355
sS'credit'
p138
I2982
sS'smoke'
p139
I1230
sS'permit'
p140
I1198
sS'bettered'
p141
I2049
sS'mistake'
p142
I3123
sS'settled'
p143
I1564
sS'fell'
p144
I846
sS'mutual'
p145
I414
sS'golden'
p146
I191
sS'swearing'
p147
I3155
sS'divide'
p148
I1494
sS'blessed-fair'
p149
I2315
sS'sorrows'
p150
I1070
sS'patience'
p151
I1746
sS'guests'
p152
I4260
sS'stern'
p153
I2375
sS'glance'
p154
I2060
sS"light's"
p155
I38
sS'mote'
p156
I3465
sS'plot'
p157
I2972
sS'treading'
p158
I3417
sS'shiny'
p159
I3595
sS'would'
p160
I517
sS'to'
p161
I31
sS'gulls'
p162
I2237
sS'recured'
p163
I1483
sS'convertest'
p164
I506
sS'arms'
p165
I3959
sS'junes'
p166
I2475
sS'orpheus'
p167
I3874
sS'music'
p168
I386
sS'therefore'
p169
I886
sS'survive'
p170
I1157
sS'gilding'
p171
I832
sS'tell'
p172
I151
sS'breathe'
p173
I778
sS'leese'
p174
I300
sS'unbless'
p175
I163
sS'holy'
p176
I1145
sS'wary'
p177
I884
sS'brings'
p178
I1104
sS'infusion'
p179
I3645
sS'muse'
p180
I854
sS'pierced'
p181
I1500
sS'grief'
p182
I1242
sS'glass'
p183
I152
sS'warm'
p184
I146
sS'sting'
p185
I4326
sS'former'
p186
I1704
sS'excellent'
p187
I1336
sS'robbing'
p188
I1943
sS'workmanship'
p189
I3487
sS'ward'
p190
I2928
sS'hold'
p191
I592
sS'striving'
p192
I2460
sS'must'
p193
I240
sS'shoot'
p194
I2696
sS'join'
p195
I2277
sS'room'
p196
I1691
sS'err'
p197
I2902
sS'rights'
p198
I745
sS'work'
p199
I249
sS'eclipse'
p200
I2508
sS'roof'
p201
I485
sS'meadows'
p202
I1191
sS'ere'
p203
I306
sS'vow'
p204
I2274
sS'sharp'
p205
I1597
sS'leaped'
p206
I2404
sS'dost'
p207
I165
sS'revenues'
p208
I3029
sS'root'
p209
I1682
sS'example'
p210
I2197
sS'shook'
p211
I2469
sS'fresher'
p212
I2172
sS'wane'
p213
I502
sS'unjust'
p214
I2986
sS'dolphin'
p215
I3794
sS'laughs'
p216
I3996
sS'disparagement'
p217
I4136
sS'impair'
p218
I2192
sS"wand'rest"
p219
I776
sS'hardens'
p220
I3995
sS'immortally'
p221
I3888
sS'appearance'
p222
I1503
sS'story'
p223
I2201
sS'looser'
p224
I3550
sS'returned'
p225
I1487
sS'ceremony'
p226
I907
sS"consum'st"
p227
I434
sS'thing'
p228
I652
sS'provide'
p229
I2568
sS'dignifies'
p230
I2202
sS'travel'
p231
I1014
sS'feature'
p232
I2617
sS"th'only"
p233
I4359
sS'stint'
p234
I3879
sS'wights'
p235
I2493
sS'faults'
p236
I1269
sS'hot'
p237
I760
sS'writers'
p238
I2163
sS"glory's"
p239
I4039
sS'rashly'
p240
I3782
sS'answer'
p241
I130
sS'gate'
p242
I1101
sS'unwarily'
p243
I3458
sS'dignified'
p244
I2433
sS'construe'
p245
I3869
sS"o'er-snowed"
p246
I277
sS'blanks'
p247
I2087
sS'beauty'
p248
I105
sS'after'
p249
I596
sS'bared'
p250
I4362
sS'wrong'
p251
I813
sS'lay'
p252
I1426
sS'law'
p253
I3349
sS'lap'
p254
I2409
sS'wronk'
p255
I2271
sS'purchase'
p256
I3638
sS'attempt'
p257
I4310
sS'third'
p258
I4221
sS'scourge'
p259
I3600
sS"rud'st"
p260
I2614
sS'revolt'
p261
I2314
sS'greet'
p262
I1561
sS'purging'
p263
I1471
sS'wink'
p264
I1429
sS'maintain'
p265
I2768
sS'haste'
p266
I1011
sS'meekness'
p267
I3543
sS'steals'
p268
I840
sS'alack'
p269
I1215
sS'mightier'
p270
I691
sS'wouldst'
p271
I646
sS'wind'
p272
I629
sS'bed-vow'
p273
I3157
sS'determinate'
p274
I2244
sS'couplement'
p275
I857
sS'lords'
p276
I2336
sS'after-loss'
p277
I2278
sS'office'
p278
I2439
sS'deck'
p279
I3273
sS'consent'
p280
I1058
sS'over'
p281
I3532
sS'choose'
p282
I1863
sS'profaned'
p283
I2846
sS'sickly'
p284
I3104
sS'fortify'
p285
I695
sS'ghastly'
p286
I1038
sS'besiege'
p287
I83
sS'strangle'
p288
I2269
sS"bestow'st"
p289
I504
sS'wrought'
p290
I847
sS'before'
p291
I684
sS'wilt'
p292
I427
sS'fit'
p293
I3557
sS'heretofore'
p294
I4089
sS'thrust'
p295
I1533
sS'crew'
p296
I4071
sS'better'
p297
I1176
sS'fade'
p298
I771
sS'persist'
p299
I3300
sS'carve'
p300
I807
sS'hidden'
p301
I1151
sS'possessing'
p302
I2054
sS'then'
p303
I109
sS'them'
p304
I640
sS'blots'
p305
I1301
sS'enrich'
p306
I2095
sS'thee'
p307
I78
sS'safe'
p308
I3855
sS"truth's"
p309
I650
sS'break'
p310
I1099
sS"winter's"
p311
I304
sS'diseased'
p312
I2711
sS'they'
p313
I292
sS'glazed'
p314
I939
sS'one'
p315
I318
sS'silver'
p316
I1261
sS'shadows'
p317
I1436
sS'rhetoric'
p318
I2174
sS'meat'
p319
I3820
sS'brightness'
p320
I3140
sS'troublous'
p321
I3721
sS'princes'
p322
I633
sS'persever'
p323
I3344
sS'slavery'
p324
I2922
sS'rocks'
p325
I1877
sS'herald'
p326
I59
sS'good'
p327
I621
sS'victories'
p328
I970
sS'mead'
p329
I3972
sS'arrow'
p330
I3473
sS'each'
p331
I340
sS'wantonly'
p332
I1661
sS'dulness'
p333
I1710
sS'went'
p334
I1614
sS'side'
p335
I1507
sS'luck'
p336
I619
sS'true-telling'
p337
I2177
sS'wheel'
p338
I3497
sS'woes'
p339
I1113
sS'concord'
p340
I400
sS'innocent'
p341
I3909
sS"'will'"
p342
I2951
sS'spider'
p343
I4190
sS'taught'
p344
I1861
sS'forgot'
p345
I975
sS'misprision'
p346
I2252
sS'whit'
p347
I1220
sS'truant'
p348
I2430
sS'sounds'
p349
I398
sS'borne'
p350
I564
sS'contend'
p351
I1780
sS'silvered'
p352
I548
sS'decree'
p353
I2325
sS'fraught'
p354
I4092
sS'forts'
p355
I3429
sS'although'
p356
I1299
sS'god'
p357
I1735
sS"th'assurance"
p358
I4030
sS'washed'
p359
I4163
sS'forty'
p360
I86
sS'moiety'
p361
I1513
sS'content'
p362
I62
sS'laid'
p363
I2821
sS'heart-inflaming'
p364
I3188
sS'lviii'
p365
I4028
sS'heavenly'
p366
I353
sS'got'
p367
I2099
sS'newly'
p368
I4109
sS'marigold'
p369
I959
sS'forth'
p370
I1227
sS'assured'
p371
I1489
sS'fadeth'
p372
I2014
sS'hang'
p373
I1662
sS'eternal'
p374
I606
sS'little'
p375
I655
sS'free'
p376
I211
sS'mourning'
p377
I2916
sS'small'
p378
I100
sS'bestow'
p379
I994
sS'whereupon'
p380
I830
sS'evil'
p381
I620
sS'basest'
p382
I1197
sS'crowned'
p383
I1327
sS'mistress'
p384
I819
sS'knit'
p385
I981
sS'silent'
p386
I921
sS"receiv'st"
p387
I394
sS'created'
p388
I841
sS'lour'
p389
I3326
sS'days'
p390
I110
sS'ordering'
p391
I413
sS'renew'
p392
I1697
sS'flown'
p393
I3075
sS'tempting'
p394
I1409
sS'aspire'
p395
I3309
sS'potions'
p396
I2578
sS'loud'
p397
I3053
sS'ruinate'
p398
I484
sS'penury'
p399
I2198
sS'separable'
p400
I1304
sS'untutored'
p401
I2977
sS'already'
p402
I2071
sS'angelic'
p403
I4314
sS'hearsay'
p404
I873
sS"'greeing"
p405
I2634
sS'maladies'
p406
I2700
sS'hearing'
p407
I2222
sS'will'
p408
I104
sS'featured'
p409
I1087
sS'blossomed'
p410
I4117
sS'another'
p411
I154
sS'sober'
p412
I2914
sS'thick'
p413
I3397
sS'filching'
p414
I2046
sS'all-oblivious'
p415
I1690
sS'cheerless'
p416
I3261
sS'exchequer'
p417
I1925
sS'usurer'
p418
I223
sS'their'
p419
I298
sS'top'
p420
I699
sS'hawks'
p421
I2297
sS'millioned'
p422
I2645
sS'greedily'
p423
I3376
sS'master'
p424
I820
sS'too'
p425
I48
sS'dwell'
p426
I252
sS'bitter'
p427
I2579
sS'aslake'
p428
I3878
sS'likest'
p429
I3348
sS'fiery'
p430
I1610
sS'sire'
p431
I417
sS'feathers'
p432
I2108
sS'griefs'
p433
I2289
sS'ink'
p434
I1885
sS'took'
p435
I1515
sS'wisdom'
p436
I509
sS'atalanta'
p437
I4257
sS'wardrobe'
p438
I1633
sS'shortly'
p439
I3943
sS'upbrought'
p440
I4069
sS"youth's"
p441
I97
sS'character'
p442
I1767
sS'begins'
p443
I1018
sS'distance'
p444
I1446
sS'guile'
p445
I3767
sS'soonest'
p446
I4033
sS'coward'
p447
I2034
sS"mother's"
p448
I180
sS'tree'
p449
I3650
sS'bitterness'
p450
I1726
sS'idly'
p451
I2419
sS'matter'
p452
I1452
sS'idle'
p453
I1804
sS'inheritors'
p454
I3088
sS'flame'
p455
I37
sS'false-forged'
p456
I4337
sS'deserving'
p457
I2247
sS'bedecked'
p458
I4196
sS'knights'
p459
I2496
sS'beard'
p460
I561
sS'powers'
p461
I3083
sS'swift-footed'
p462
I799
sS'ravished'
p463
I3255
sS'perspective'
p464
I934
sS'fashion'
p465
I823
sS'sees'
p466
I3126
sS'gaudy'
p467
I58
sS"mind's"
p468
I2076
sS'mought'
p469
I3347
sS'modern'
p470
I2188
sS'mind'
p471
I449
sS'mine'
p472
I126
sS'untrained'
p473
I3948
sS'hairs'
p474
I2893
sS'seed'
p475
I4273
sS'manner'
p476
I2998
sS'bewailed'
p477
I1312
sS"deserv'st"
p478
I1359
sS'protract'
p479
I4348
sS'seem'
p480
I909
sS'ocean'
p481
I1713
sS'seek'
p482
I1574
sS'tells'
p483
I538
sS'contents'
p484
I1674
sS'ray'
p485
I3729
sS'praising'
p486
I1366
sS'nipples'
p487
I4118
sS'strength'
p488
I910
sS'rotten'
p489
I1231
sS'snow'
p490
I2891
sS'chest'
p491
I1544
sS'subjects'
p492
I1775
sS'forces'
p493
I3422
sS'laughed'
p494
I2405
sS'pilgrimage'
p495
I362
sS'rider'
p496
I1588
sS'pandora'
p497
I3596
sS'maiden'
p498
I703
sS'though'
p499
I293
sS'object'
p500
I831
sS'dial'
p501
I2074
sS'dulling'
p502
I2459
sS'errors'
p503
I2369
sS'mouth'
p504
I4325
sS'plenty'
p505
I3746
sS'echoes'
p506
I3520
sS'contain'
p507
I2086
sS'disarmed'
p508
I3196
sS'grave'
p509
I79
sS'shalt'
p510
I187
sS'constancy'
p511
I2486
sS'peers'
p512
I3871
sS'foist'
p513
I2790
sS'enchased'
p514
I4301
sS'flow'
p515
I1114
sS'breathes'
p516
I2160
sS'spend'
p517
I199
sS'ruthless'
p518
I3751
sS'points'
p519
I1003
sS'forsook'
p520
I4154
sS'breathed'
p521
I3069
sS'pretty'
p522
I1390
sS'sum'
p523
I138
sS'fitted'
p524
I2731
sS'reserve'
p525
I1165
sS'saying'
p526
I3079
sS'bait'
p527
I2879
sS'inspire'
p528
I3644
sS'his'
p529
I23
sS'enjoyer'
p530
I2045
sS'plagues'
p531
I625
sS'ending'
p532
I1692
sS'colors'
p533
I4182
sS'showing'
p534
I2067
sS'poison'
p535
I2722
sS'prefiguring'
p536
I2501
sS'subtle'
p537
I3580
sS'faith'
p538
I1895
sS'bail'
p539
I2026
sS'enjoyed'
p540
I2877
sS'contrained'
p541
I3919
sS'apace'
p542
I4244
sS'touches'
p543
I737
sS'acquit'
p544
I3845
sS'proposed'
p545
I2886
sS'spite'
p546
I1303
sS"woman's"
p547
I817
sS'spites'
p548
I1386
sS'cupid'
p549
I3169
sS'bush'
p550
I3976
sS'bliss'
p551
I2885
sS'touched'
p552
I735
sS'rich'
p553
I685
sS'pursuing'
p554
I2053
sS'mend'
p555
I1945
sS"'thou"
p556
I428
sS'forelock'
p557
I4184
sS'columbines'
p558
I4112
sS'borrowed'
p559
I2842
sS'do'
p560
I326
sS'blenches'
p561
I2556
sS'tongue'
p562
I740
sS'forsworn'
p563
I1893
sS'loved'
p564
I1154
sS"abode's"
p565
I3893
sS'kindling'
p566
I3307
sS'stop'
p567
I178
sS'perceive'
p568
I669
sS'leisure'
p569
I1362
sS'raiment'
p570
I880
sS'guileful'
p571
I3394
sS'gored'
p572
I2552
sS'bootless'
p573
I1080
sS'despite'
p574
I193
sS'report'
p575
I1318
sS'congealed'
p576
I3684
sS'saturn'
p577
I2406
sS'seemly'
p578
I881
sS'runs'
p579
I3038
sS'bar'
p580
I1495
sS'spilling'
p581
I3800
sS'fields'
p582
I4264
sS"o'er"
p583
I547
sS'thrusts'
p584
I1591
sS'public'
p585
I951
sS'twice'
p586
I750
sS'eyelids'
p587
I1028
sS'esteeming'
p588
I2441
sS"hate's"
p589
I1383
sS'release'
p590
I3754
sS'gentlest'
p591
I2613
sS'hasten'
p592
I1778
sS'steal'
p593
I1308
sS'thanks'
p594
I1341
sS'victors'
p595
I2238
sS'unprovident'
p596
I473
sS'penance'
p597
I2582
sS"wond'ring"
p598
I2795
sS'unrespected'
p599
I1430
sS'fair'
p600
I128
sS'habit'
p601
I2987
sS'imitate'
p602
I1918
sS'nut'
p603
I3622
sS'proclaims'
p604
I2515
sS'depends'
p605
I2311
sS'allure'
p606
I3546
sS'corrupt'
p607
I2965
sS'fain'
p608
I4352
sS'prostrate'
p609
I4007
sS'best'
p610
I529
sS'subject'
p611
I1333
sS'voyage'
p612
I4057
sS'said'
p613
I1412
sS'draws'
p614
I3554
sS'temptation'
p615
I1395
sS"bett'ring"
p616
I1163
sS'away'
p617
I516
sS'sail'
p618
I2134
sS'bier'
p619
I563
sS'prince'
p620
I4251
sS'mud'
p621
I1259
sS'score'
p622
I2779
sS'finger'
p623
I2367
sS'pebbled'
p624
I1776
sS'scorn'
p625
I1107
sS'drawn'
p626
I718
sS'sorts'
p627
I3626
sS'enlighten'
p628
I3167
sS'approach'
p629
I3967
sS'ire'
p630
I3565
sS'discovery'
p631
I3938
sS'preserve'
p632
I3103
sS'warrior'
p633
I966
sS'we'
p634
I3
sS'never'
p635
I8
sS'terms'
p636
I3094
sS'parallels'
p637
I1792
sS'extend'
p638
I4353
sS'nature'
p639
I234
sS'smelled'
p640
I4098
sS'lover'
p641
I1161
sS'weak'
p642
I1247
sS'ignorance'
p643
I2105
sS'religious'
p644
I1147
sS'authorizing'
p645
I1271
sS'disdaineth'
p646
I1219
sS'wear'
p647
I680
sS'diest'
p648
I383
sS'defiance'
p649
I3292
sS'news'
p650
I3001
sS'debt'
p651
I2184
sS'pity'
p652
I77
sS'foes'
p653
I1385
sS'goddess'
p654
I2566
sS'accident'
p655
I2799
sS'disdain'
p656
I2909
sS'fault'
p657
I1279
sS'ill'
p658
I889
sS'resounded'
p659
I3515
sS'against'
p660
I588
sS'brag'
p661
I777
sS'mildly'
p662
I3323
sS'receives'
p663
I2571
sS'faces'
p664
I733
sS'exceeds'
p665
I3143
sS'expense'
p666
I1123
sS'groans'
p667
I2904
sS'asked'
p668
I107
sS'tough'
p669
I3618
sS'vexed'
p670
I3122
sS'honouring'
p671
I2818
sS'burthen'
p672
I911
sS'vain'
p673
I3444
sS'labouring'
p674
I1761
sS'height'
p675
I675
sS'hers'
p676
I1410
sS'lowly'
p677
I3239
sS'springs'
p678
I2472
sS'trust'
p679
I905
sS'heals'
p680
I1241
sS'licentious'
p681
I3353
sS'speak'
p682
I1237
sS'helice'
p683
I3735
sS'petty'
p684
I2290
sS'unhappily'
p685
I1894
sS'puts'
p686
I1006
sS'hues'
p687
I834
sS'time-bettering'
p688
I2170
sS'foully'
p689
I3839
sS'condemned'
p690
I3766
sS'rebounded'
p691
I3519
sS'three'
p692
I2466
sS'been'
p693
I1759
sS'particulars'
p694
I2301
sS'twain'
p695
I1293
sS'much'
p696
I124
sS'afloat'
p697
I2142
sS'interest'
p698
I1149
sS'incertainty'
p699
I2660
sS'privilege'
p700
I2359
sS'canopy'
p701
I555
sS'fry'
p702
I3705
sS'lovely'
p703
I184
sS'thrice'
p704
I1719
sS'idol'
p705
I2481
sS'threw'
p706
I3076
sS'life'
p707
I433
sS"brav'ry"
p708
I1232
sS'sprite'
p709
I3216
sS'drugs'
p710
I2723
sS'sunshine'
p711
I3828
sS'pointing'
p712
I632
sS'augmenteth'
p713
I3843
sS'decrepit'
p714
I1319
sS'craft'
p715
I3579
sS'chase'
p716
I3043
sS'famine'
p717
I44
sS'dote'
p718
I3009
sS'child'
p719
I127
sS'catch'
p720
I2611
sS"ne'er-cloying"
p721
I2706
sS'doth'
p722
I206
sS'erst'
p723
I557
sS'gracious'
p724
I336
sS'applied'
p725
I3710
sS'physician'
p726
I3106
sS'overturn'
p727
I1679
sS'east'
p728
I2911
sS'sly'
p729
I3771
sS'gentle'
p730
I250
sS'persueth'
p731
I3374
sS'air'
p732
I868
sS'lesser'
p733
I2638
sS'ugly'
p734
I1202
sS'near'
p735
I1813
sS'suppose'
p736
I1731
sS'comptroll'
p737
I3362
sS'aid'
p738
I2117
sS'voice'
p739
I1946
sS'launched'
p740
I4022
sS'weakens'
p741
I902
sS"'mongst"
p742
I3524
sS'changed'
p743
I3341
sS'abhored'
p744
I3698
sS'crowning'
p745
I2662
sS'writes'
p746
I2200
sS'is'
p747
I156
sS'it'
p748
I144
sS'defeated'
p749
I849
sS'shame'
p750
I117
sS'to-morrow'
p751
I1706
sS'splendour'
p752
I1212
sS'in'
p753
I67
sS'bounteous'
p754
I222
sS'sever'
p755
I3314
sS'if'
p756
I132
sS'grown'
p757
I1169
sS'wooing'
p758
I3063
sS'memorial'
p759
I2027
sS'sap'
p760
I275
sS'descent'
p761
I4219
sS'alien'
p762
I2100
sS'cools'
p763
I3203
sS'patent'
p764
I2250
sS'suggest'
p765
I3054
sS'make'
p766
I136
sS'wound'
p767
I1240
sS"lords'"
p768
I2390
sS'who'
p769
I176
sS'beside'
p770
I899
sS'cleared'
p771
I3833
sS"th'"
p772
I243
sS'several'
p773
I2973
sS'grows'
p774
I651
sS'entitled'
p775
I1328
sS'lusty'
p776
I111
sS'fairly'
p777
I261
sS'thereof'
p778
I2132
sS'cheeks'
p779
I2181
sS'juniper'
p780
I3613
sS'lusts'
p781
I3302
sS'tops'
p782
I1189
sS'rain'
p783
I630
sS'hand'
p784
I302
sS'delight'
p785
I1307
sS'descry'
p786
I3410
sS'supposing'
p787
I2317
sS'jealous'
p788
I1730
sS"tempests'"
p789
I3789
sS'bequest'
p790
I209
sS'blamed'
p791
I1373
sS'thoughts'
p792
I1024
sS'censures'
p793
I3119
sS'kept'
p794
I460
sS'thy'
p795
I39
sS'singleness'
p796
I409
sS'askance'
p797
I2555
sS'possessed'
p798
I480
sS'humble'
p799
I2136
sS'redeem'
p800
I2417
sS'inherit'
p801
I2333
sS'doff'
p802
I3634
sS'ragged'
p803
I303
sS'thm'
p804
I3977
sS'quest'
p805
I1509
sS'greatest'
p806
I1541
sS'incapable'
p807
I2620
sS'mother'
p808
I161
sS'hearts'
p809
I1137
sS'the'
p810
I19
sS'yours'
p811
I584
sS'left'
p812
I278
sS'stelled'
p813
I926
sS'rubies'
p814
I3446
sS'therewith'
p815
I3663
sS'appease'
p816
I3566
sS'just'
p817
I2541
sS'wasteful'
p818
I688
sS'yea'
p819
I1367
sS'broom-flower'
p820
I3623
sS"poet's"
p821
I743
sS'unfair'
p822
I262
sS'repose'
p823
I1575
sS'verses'
p824
I2463
sS'maketh'
p825
I2621
sS'farther'
p826
I1061
sS'fullness'
p827
I3819
sS'swears'
p828
I2976
sS'venemous'
p829
I4329
sS'prognosticate'
p830
I647
sS'plight'
p831
I1045
sS'yet'
p832
I226
sS'succeeding'
p833
I811
sS'vices'
p834
I2354
sS'adding'
p835
I852
sS'doubting'
p836
I2047
sS'dearer'
p837
I1174
sS'compeers'
p838
I2230
sS'had'
p839
I612
sS'about'
p840
I2602
sS'presagers'
p841
I915
sS'alchemy'
p842
I1193
sS'belongs'
p843
I925
sS'prisoner'
p844
I283
sS'beloved'
p845
I474
sS'prison'
p846
I2929
sS'hap'
p847
I435
sS'pitiful'
p848
I2831
sS'save'
p849
I580
sS'gave'
p850
I527
sS"others'"
p851
I2113
sS'dignity'
p852
I2340
sS'bands'
p853
I3207
sS'looks'
p854
I350
sS'reviewest'
p855
I2029
sS'firmer'
p856
I3303
sS'birth'
p857
I1173
sS"flesh's"
p858
I3633
sS'shadow'
p859
I1036
sS'divert'
p860
I2655
sS'dreams'
p861
I1431
sS"picture's"
p862
I1496
sS'desire'
p863
I2
sS'brought'
p864
I1172
sS"feed'st"
p865
I40
sS'gift'
p866
I532
sS'new-found'
p867
I2063
sS'vilest'
p868
I1987
sS'unreave'
p869
I3578
sS'offices'
p870
I2094
sS'night'
p871
I540
sS'hung'
p872
I1039
sS'three-score'
p873
I4060
sS'loathsome'
p874
I1268
sS"hate'"
p875
I3067
sS'antique'
p876
I746
sS'right'
p877
I1497
sS'old'
p878
I134
sS'sends'
p879
I4365
sS'flatter'
p880
I1066
sS'easy'
p881
I2537
sS'deaf'
p882
I1081
sS'short-numbered'
p883
I2810
sS'dead'
p884
I1139
sS'born'
p885
I1888
sS'election'
p886
I4321
sS'mazed'
p887
I3319
sS'compassed'
p888
I4078
sS'dear'
p889
I609
sS'amiable'
p890
I3825
sS'bore'
p891
I2816
sS'unvalued'
p892
I4253
sS'creep'
p893
I2649
sS'enemies'
p894
I1055
sS'for'
p895
I169
sS'richer'
p896
I2306
sS"bosom's"
p897
I938
sS'ear'
p898
I402
sS'rehearse'
p899
I856
sS'ice'
p900
I3671
sS"bath'd"
p901
I3219
sS'foe'
p902
I51
sS'equal'
p903
I2196
sS'drudge'
p904
I3154
sS'drink'
p905
I2575
sS'unthrift'
p906
I453
sS'contented'
p907
I1091
sS'knew'
p908
I2642
sS'bold'
p909
I2781
sS'burn'
p910
I794
sS'faery'
p911
I4276
sS'monsters'
p912
I2626
sS'revived'
p913
I3813
sS'shifting'
p914
I826
sS'gladly'
p915
I393
sS'losing'
p916
I1425
sS'all-tyrant'
p917
I3130
sS'peep'
p918
I944
sS'disdains'
p919
I172
sS'shaken'
p920
I2671
sS'takes'
p921
I579
sS'trophy'
p922
I4174
sS'theirs'
p923
I828
sS'coral'
p924
I2888
sS'haply'
p925
I1097
sS'frailer'
p926
I2763
sS'o'
p927
I491
sS'whilest'
p928
I3877
sS'despair'
p929
I3002
sS'cherish'
p930
I530
sS'own'
p931
I29
sS'commit'
p932
I2088
sS'lacked'
p933
I1640
sS'worthily'
p934
I4165
sS'sprites'
p935
I4311
sS'firbloom'
p936
I3617
sS'raised'
p937
I3145
sS'contains'
p938
I2035
sS'issueless'
p939
I436
sS'presence'
p940
I495
sS'civil'
p941
I1287
sS'pays'
p942
I2123
sS'nought'
p943
I659
sS'bound'
p944
I1738
sS'son'
p945
I380
sS'down'
p946
I1481
sS'lies'
p947
I41
sS'refined'
p948
I2219
sS"pour'st"
p949
I1335
sS'often'
p950
I765
sS'strangely'
p951
I1560
sS"virtue's"
p952
I4235
sS'despised'
p953
I1330
sS'suffice'
p954
I3742
sS'jealousy'
p955
I1806
sS'sovereign'
p956
I1188
sS'fight'
p957
I964
sS'forhead'
p958
I3451
sS'virgin'
p959
I3197
sS'victorious'
p960
I3670
sS'way'
p961
I375
sS'call'
p962
I507
sS'was'
p963
I287
sS'war'
p964
I391
sS'happy'
p965
I416
sS'lowest'
p966
I4046
sS'starve'
p967
I4361
sS'head'
p968
I341
sS'faring'
p969
I890
sS'form'
p970
I155
sS'offer'
p971
I3366
sS'something'
p972
I2223
sS'crown'
p973
I2511
sS'becoming'
p974
I2852
sS'sundry'
p975
I4054
sS'forgetful'
p976
I2418
sS'fore'
p977
I374
sS'heinous'
p978
I804
sS'pricked'
p979
I853
sS'heat'
p980
I556
sS'hear'
p981
I388
sS'odours'
p982
I1667
sS'astonished'
p983
I2231
sS'blindness'
p984
I3166
sS'removed'
p985
I977
sS'true'
p986
I401
sS'continuance'
p987
I3500
sS'absent'
p988
I1391
sS'lilies'
p989
I2345
sS'humbled'
p990
I3360
sS'builds'
p991
I4132
sS'captive'
p992
I1912
sS'extremity'
p993
I1603
sS"for't"
p994
I2437
sS'bids'
p995
I1524
sS'bounds'
p996
I4066
sS'until'
p997
I1486
sS'crystal'
p998
I1499
sS'unfathered'
p999
I2396
sS'adore'
p1000
I360
sS'anew'
p1001
I2168
sS'engraft'
p1002
I690
sS'bide'
p1003
I1743
sS'latch'
p1004
I2608
sS'temper'
p1005
I3804
sS'adorn'
p1006
I3660
sS'trim'
p1007
I2401
sS'prayed'
p1008
I4268
sS'proud'
p1009
I96
sS'disgrace'
p1010
I1076
sS"deriv'd"
p1011
I4220
sS'fury'
p1012
I2414
sS'sinful'
p1013
I2461
sS'mirror'
p1014
I3320
sS'steep-up'
p1015
I354
sS"beauty's"
p1016
I11
sS'encage'
p1017
I4213
sS'huswife'
p1018
I3039
sS'sometime'
p1019
I761
sS'subsist'
p1020
I2774
sS'prayer'
p1021
I3384
sS'shines'
p1022
I759
sS'reproving'
p1023
I3023
sS'injurious'
p1024
I1447
sS'posting'
p1025
I1602
sS'willingly'
p1026
I2001
sS'pipe'
p1027
I2449
sS'rough'
p1028
I757
sS'faithful'
p1029
I3666
sS'dying'
p1030
I3098
sS'no'
p1031
I289
sS'boldly'
p1032
I4247
sS'ambrosial'
p1033
I3821
sS'excel'
p1034
I260
sS"lov'st"
p1035
I395
sS'actor'
p1036
I896
sS'thriftless'
p1037
I116
sS'despising'
p1038
I1093
sS'falsely'
p1039
I3118
sS"renew'th"
p1040
I3369
sS'papers'
p1041
I739
sS'tie'
p1042
I1979
sS'vanished'
p1043
I1122
sS'smell'
p1044
I1957
sS'eternity'
p1045
I2084
sS'picture'
p1046
I1523
sS'intend'
p1047
I1026
sS'phoenix'
p1048
I792
sS'delivered'
p1049
I2090
sS'dies'
p1050
I196
sS'why'
p1051
I200
sS'welcome'
p1052
I1720
sS'first-born'
p1053
I864
sS'present-absent'
p1054
I1476
sS'journey'
p1055
I1017
sS'intent'
p1056
I3375
sS'reign'
p1057
I1053
sS'budded'
p1058
I4106
sS'wounded'
p1059
I2753
sS'rolling'
p1060
I827
sS'chopt'
p1061
I1825
sS'hurt'
p1062
I2331
sS'died'
p1063
I1180
sS'wrackful'
p1064
I1874
sS'warn'
p1065
I3692
sS'to-day'
p1066
I1703
sS'longer'
p1067
I585
sS'blushing'
p1068
I2863
sS'outwent'
p1069
I4062
sS'daily'
p1070
I1071
sS'miseries'
p1071
I3758
sS'loyal'
p1072
I4129
sS'cheater'
p1073
I3148
sS'teeth'
p1074
I790
sS'controlling'
p1075
I833
sS'erred'
p1076
I2974
sS'restored'
p1077
I1135
sS'songs'
p1078
I2482
sS'deface'
p1079
I301
sS'chain'
p1080
I3849
sS'whoever'
p1081
I2949
sS'rob'
p1082
I3490
sS"perceiv'st"
p1083
I2023
sS'souls'
p1084
I838
sS'vermilion'
p1085
I2411
sS'engrafted'
p1086
I1329
sS'leads'
p1087
I264
sS'continual'
p1088
I2797
sS'mild'
p1089
I3413
sS'mile'
p1090
I4355
sS'comments'
p1091
I2209
sS'battle'
p1092
I3370
sS'idolatry'
p1093
I2480
sS'abundant'
p1094
I2394
sS'disobeys'
p1095
I3525
sS'needeth'
p1096
I3426
sS'retention'
p1097
I2778
sS'adamant'
p1098
I3850
sS'praises'
p1099
I2206
sS'fancies'
p1100
I4267
sS'april'
p1101
I183
sS'father'
p1102
I611
sS'pen'
p1103
I710
sS'vex'
p1104
I2313
sS'blissing'
p1105
I4134
sS'amaze'
p1106
I3459
sS'charge'
p1107
I3089
sS'praised'
p1108
I2221
sS'excellect'
p1109
I3951
sS'terror'
p1110
I3690
sS'suffered'
p1111
I2745
sS'ride'
p1112
I1196
sS'furrows'
p1113
I877
sS'me'
p1114
I499
sS'strumpeted'
p1115
I1899
sS'string'
p1116
I411
sS'advantage'
p1117
I1852
sS'buriest'
p1118
I63
sS'denied'
p1119
I3036
sS'none'
p1120
I478
sS'votary'
p1121
I3193
sS'mourn'
p1122
I1982
sS'lest'
p1123
I1313
sS'advised'
p1124
I1557
sS'locked'
p1125
I1545
sS'trouble'
p1126
I1082
sS'brows'
p1127
I4107
sS'feeble'
p1128
I370
sS'minute'
p1129
I4356
sS'cool'
p1130
I3199
sS"soul's"
p1131
I996
sS'perceived'
p1132
I2477
sS'clouds'
p1133
I1064
sS'nectar'
p1134
I3822
sS'level'
p1135
I2694
sS'did'
p1136
I248
sS'die'
p1137
I7
sS'dig'
p1138
I91
sS"best'"
p1139
I2658
sS'cloudy'
p1140
I3736
sS'temple'
p1141
I3562
sS'leave'
p1142
I235
sS'settle'
p1143
I3883
sS'excellence'
p1144
I2338
sS'quick'
p1145
I1684
sS'woven'
p1146
I4194
sS'round'
p1147
I3447
sS'enlumined'
p1148
I4147
sS'prevent'
p1149
I2701
sS'brave'
p1150
I542
sS'says'
p1151
I1504
sS'fearing'
p1152
I2657
sS"offender's"
p1153
I1249
sS'double-vantage'
p1154
I2263
sS'sigh'
p1155
I1112
sS'feeling'
p1156
I2758
sS'wherefore'
p1157
I692
sS'cost'
p1158
I1846
sS'dried'
p1159
I3304
sS'run'
p1160
I1616
sS'tempest'
p1161
I3797
sS'drinks'
p1162
I2632
sS'hymn'
p1163
I2218
sS"fleet'st"
p1164
I795
sS'curse'
p1165
I1084
sS'stately'
p1166
I4169
sS'assistance'
p1167
I2098
sS'contracted'
p1168
I32
sS'favour'
p1169
I948
sS'debate'
p1170
I2273
sS'health'
p1171
I1491
sS'suspect'
p1172
I1964
sS'spurring'
p1173
I1596
sS'goes'
p1174
I1779
sS'view'
p1175
I1034
sS'guilt'
p1176
I1311
sS'aswagement'
p1177
I3755
sS'appeal'
p1178
I2697
sS'badge'
p1179
I3642
sS'filled'
p1180
I724
sS'fragrant'
p1181
I2346
sS'unsure'
p1182
I3604
sS"april's"
p1183
I865
sS'prescriptions'
p1184
I3107
sS'wail'
p1185
I440
sS'heavily'
p1186
I1128
sS'honour'
p1187
I603
sS'clerk'
p1188
I2214
sS'learn'
p1189
I922
sS'agreement'
p1190
I3757
sS'water'
p1191
I1464
sS'entertain'
p1192
I1364
sS'governs'
p1193
I2603
sS'address'
p1194
I3368
sS'alone'
p1195
I229
sS'appears'
p1196
I2457
sS'change'
p1197
I488
sS'blunter'
p1198
I1699
sS'boy'
p1199
I2529
sS'enroll'
p1200
I3363
sS'stormy'
p1201
I605
sS'flames'
p1202
I3310
sS'my'
p1203
I135
sS'eke'
p1204
I3485
sS'guilty'
p1205
I2567
sS'bow'
p1206
I2276
sS'spheres'
p1207
I2732
sS'homeward'
p1208
I3955
sS'recounting'
p1209
I1490
sS'treasure'
p1210
I112
sS'love'
p1211
I465
sS'humour'
p1212
I2299
sS'tempteth'
p1213
I3059
sS'robs'
p1214
I1290
sS'bearing'
p1215
I888
sS'paragon'
p1216
I4138
sS'bloody'
p1217
I694
sS'withal'
p1218
I3182
sS'charming'
p1219
I3492
sS'betraying'
p1220
I3149
sS'world-without-end'
p1221
I1724
sS'surmount'
p1222
I1820
sS'swallowed'
p1223
I2880
sS'disguising'
p1224
I3986
sS'sky'
p1225
I670
sS"suff'ring"
p1226
I1422
sS"o'erworn"
p1227
I1831
sS"th'importune"
p1228
I3581
sS'wealth'
p1229
I1105
sS'prove'
p1230
I426
sS'sake'
p1231
I1420
sS'confounded'
p1232
I1859
sS'angry'
p1233
I3108
sS'give'
p1234
I219
sS'visit'
p1235
I4313
sS'tears'
p1236
I1255
sS'by'
p1237
I16
sS'wrongs'
p1238
I1389
sS'live'
p1239
I195
sS'going'
p1240
I1615
sS'prey'
p1241
I1543
sS'memory'
p1242
I22
sS'scope'
p1243
I1088
sS'angels'
p1244
I3333
sS'loving'
p1245
I1004
sS"love's"
p1246
I806
sS'dismay'
p1247
I3436
sS'love-god'
p1248
I3187
sS'riot'
p1249
I1405
sS'sessions'
p1250
I1108
sS'towers'
p1251
I1849
sS'share'
p1252
I1527
sS'acceptable'
p1253
I237
sS"strength's"
p1254
I903
sS'fuel'
p1255
I34
sS'drown'
p1256
I1115
sS'everywhere'
p1257
I2383
sS'virtue'
p1258
I1665
sS"danger's"
p1259
I4357
sS'stain'
p1260
I1222
sS'epitaph'
p1261
I2151
sS'fly'
p1262
I2103
sS'honey'
p1263
I1871
sS'lengths'
p1264
I1461
sS'sheds'
p1265
I1253
sS'decked'
p1266
I4265
sS'well-seeing'
p1267
I3128
sS'deformed'
p1268
I3889
sS'car'
p1269
I364
sS'soul'
p1270
I1816
sS'purge'
p1271
I2702
sS'hardest'
p1272
I2362
sS'sour'
p1273
I1363
sS'can'
p1274
I575
sS'believed'
p1275
I3005
sS'making'
p1276
I46
sS"prevent'st"
p1277
I2428
sS'arrive'
p1278
I4091
sS'laughter'
p1279
I3507
sS'deceased'
p1280
I1162
sS'breeds'
p1281
I2569
sS'spy'
p1282
I3470
sS'dedicated'
p1283
I2164
sS'hooks'
p1284
I2968
sS"servant's"
p1285
I3090
sS'respose'
p1286
I1016
sS'figure'
p1287
I2478
sS'predict'
p1288
I635
sS'gillyflowers'
p1289
I4103
sS'distillation'
p1290
I279
sS'confused'
p1291
I3481
sS'heard'
p1292
I2792
sS'critic'
p1293
I2599
sS'purity'
p1294
I3062
sS'hides'
p1295
I727
sS"mak'st"
p1296
I69
sS'provoke'
p1297
I1589
sS'stole'
p1298
I2124
sS'churls'
p1299
I1955
sS'noyous'
p1300
I4349
sS'winter'
p1301
I269
sS'allege'
p1302
I1572
sS'divided'
p1303
I1356
sS'spreads'
p1304
I3293
sS'vainly'
p1305
I2980
sS'pine'
p1306
I2056
sS"lour'st"
p1307
I3134
sS'write'
p1308
I728
sS'till'
p1309
I848
sS'ransom'
p1310
I1257
sS'sword'
p1311
I1686
sS'familiar'
p1312
I2234
sS'husbandry'
p1313
I170
sS'sworn'
p1314
I3115
sS'limbecks'
p1315
I2727
sS"eye's"
p1316
I1514
sS'map'
p1317
I1930
sS'mar'
p1318
I2462
sS'where-through'
p1319
I942
sS"spider's"
p1320
I3588
sS'coming'
p1321
I587
sS'peerless'
p1322
I4175
sS'may'
p1323
I446
sS'sacrifice'
p1324
I3569
sS'use'
p1325
I121
sS'spot'
p1326
I2348
sS'lamping'
p1327
I3215
sS'brazen'
p1328
I4131
sS'tipped'
p1329
I4328
sS'mad'
p1330
I2882
sS'date'
p1331
I648
sS'end'
p1332
I456
sS'hateth'
p1333
I3131
sS'flourish'
p1334
I1790
sS'grow'
p1335
I573
sS'man'
p1336
I836
sS'temperate'
p1337
I752
sS'branches'
p1338
I3616
sS'neck'
p1339
I2905
sS'liquid'
p1340
I284
sS'beam'
p1341
I4073
sS'candles'
p1342
I872
sS'needy'
p1343
I1892
sS'darkened'
p1344
I3891
sS'so'
p1345
I94
sS'glancing'
p1346
I3464
sS'deceive'
p1347
I232
sS'thorns'
p1348
I1262
sS'tall'
p1349
I2150
sS'truce'
p1350
I3387
sS"victor's"
p1351
I3210
sS'augurs'
p1352
I2510
sS'tormenteth'
p1353
I3840
sS'serving'
p1354
I351
sS'shield'
p1355
I3957
sS'receivest'
p1356
I1369
sS'food'
p1357
I2037
sS'indeed'
p1358
I1822
sS'forfeit'
p1359
I2506
sS'displayed'
p1360
I4179
sS'years'
p1361
I1393
sS'course'
p1362
I768
sS'pitch'
p1363
I366
sS'cold'
p1364
I143
sS'still'
p1365
I296
sS'blooded'
p1366
I3541
sS'birds'
p1367
I2008
sS'trifle'
p1368
I1535
sS'solitary'
p1369
I3962
sS'limbs'
p1370
I1015
sS'derive'
p1371
I637
sS'odour'
p1372
I1656
sS'solace'
p1373
I3966
sS'acknowledge'
p1374
I1309
sS'muses'
p1375
I2211
sS'spur'
p1376
I1590
sS'mantle'
p1377
I3272
sS'curls'
p1378
I549
sS"offence's"
p1379
I1251
sS'forms'
p1380
I4075
sS'maid'
p1381
I3171
sS'spacious'
p1382
I2953
sS"play'st"
p1383
I2853
sS'policy'
p1384
I2714
sS"stol'n"
p1385
I1146
sS'troubled'
p1386
I3984
sS'style'
p1387
I1183
sS'conquest'
p1388
I333
sS'correspondence'
p1389
I3116
sS'prime'
p1390
I181
sS'truest'
p1391
I1534
sS'equipage'
p1392
I1175
sS'thereby'
p1393
I12
sS'quod'
p1394
I4231
sS'sooner'
p1395
I2876
sS'delighted'
p1396
I3011
sS'records'
p1397
I2796
sS'flint'
p1398
I3501
sS'coat-armor'
p1399
I4180
sS'half'
p1400
I726
sS'not'
p1401
I158
sS'sorted'
p1402
I4145
sS'bath'
p1403
I3177
sS'twilight'
p1404
I2012
sS'mantleth'
p1405
I4206
sS'nor'
p1406
I290
sS'wont'
p1407
I2445
sS"phoebus'"
p1408
I3646
sS'term'
p1409
I2310
sS'name'
p1410
I1315
sS'servant'
p1411
I1728
sS'frank'
p1412
I215
sS'drop'
p1413
I2279
sS'arrows'
p1414
I3466
sS'covetize'
p1415
I3740
sS'careless'
p1416
I3798
sS'craftily'
p1417
I3777
sS'cordials'
p1418
I3941
sS'veins'
p1419
I1921
sS'seldom'
p1420
I1621
sS'whenas'
p1421
I3726
sS'eyelid'
p1422
I3827
sS'surfeit'
p1423
I2055
sS"another's"
p1424
I1941
sS'worthier'
p1425
I2120
sS'receipt'
p1426
I2960
sS'long-while'
p1427
I3338
sS'richly'
p1428
I2208
sS'fever'
p1429
I2733
sS'farewell'
p1430
I2241
sS'yield'
p1431
I2154
sS'begun'
p1432
I3583
sS'year'
p1433
I518
sS'hymns'
p1434
I1102
sS'summon'
p1435
I1109
sS'despight'
p1436
I3881
sS'living'
p1437
I329
sS'shown'
p1438
I1951
sS'mouths'
p1439
I2159
sS'space'
p1440
I1448
sS'profit'
p1441
I2096
sS'medicine'
p1442
I2717
sS'astray'
p1443
I3727
sS'increase'
p1444
I1
sS'nurse'
p1445
I892
sS'contained'
p1446
I3321
sS'miles'
p1447
I1460
sS'misseth'
p1448
I4185
sS'bless'
p1449
I4297
sS'grecian'
p1450
I1652
sS'receiving'
p1451
I1468
sS'correct'
p1452
I2581
sS'assurance'
p1453
I3854
sS'shows'
p1454
I658
sS'END'
p1455
I0
sS'worthiness'
p1456
I1639
sS'older'
p1457
I2560
sS'siege'
p1458
I1873
sS'cars'
p1459
I3014
sS'sweet-seasoned'
p1460
I2040
sS'spies'
p1461
I2762
sS'wits'
p1462
I1772
sS'godess'
p1463
I3571
sS'rebel'
p1464
I3084
sS'plea'
p1465
I1285
sS"feel'st"
p1466
I145
sS'care'
p1467
I1542
sS'advance'
p1468
I2116
sS"age's"
p1469
I1835
sS'contemplation'
p1470
I4286
sS'embassage'
p1471
I985
sS"widow's"
p1472
I430
sS'wilful-slow'
p1473
I1613
sS'kingdoms'
p1474
I1981
sS'honest'
p1475
I3165
sS'motion'
p1476
I1474
sS'gusts'
p1477
I604
sS'fetters'
p1478
I3786
sS'thine'
p1479
I30
sS'place'
p1480
I307
sS'recompense'
p1481
I917
sS'envied'
p1482
I3277
sS'slaying'
p1483
I3764
sS'sufferance'
p1484
I1744
sS'widow'
p1485
I442
sS'star'
p1486
I999
sS'think'
p1487
I1096
sS'frequent'
p1488
I2687
sS'first'
p1489
I842
sS'blind'
p1490
I1030
sS'langour'
p1491
I3942
sS'saving'
p1492
I3750
sS'mayst'
p1493
I508
sS'faculty'
p1494
I2775
sS'transform'
p1495
I3651
sS'nativity'
p1496
I1784
sS'consecrate'
p1497
I2030
sS'amidst'
p1498
I4012
sS'directly'
p1499
I3065
sS'habitation'
p1500
I2357
sS'carry'
p1501
I2025
sS'ill-used'
p1502
I2361
sS'array'
p1503
I3082
sS'tame'
p1504
I1745
sS'open'
p1505
I1027
sS'affords'
p1506
I2216
sS'millions'
p1507
I1644
sS'interchange'
p1508
I1858
sS'given'
p1509
I220
sS'greediness'
p1510
I4001
sS'checked'
p1511
I274
sS'wrath'
p1512
I3380
sS'thankless'
p1513
I3637
sS'breed'
p1514
I316
sS'dressed'
p1515
I2402
sS'steep'
p1516
I3172
sS'chastity'
p1517
I4176
sS'plaint'
p1518
I3506
sS'bounty'
p1519
I531
sS'white'
p1520
I546
sS'utmost'
p1521
I1554
sS"tiger's"
p1522
I788
sS'friend'
p1523
I1133
sS'gives'
p1524
I208
sS'hue'
p1525
I835
sS'eyes'
p1526
I27
sS'pomp'
p1527
I2802
sS'grant'
p1528
I475
sS'blazon'
p1529
I2498
sS'that'
p1530
I13
sS'brains'
p1531
I1758
sS"men's"
p1532
I839
sS'proving'
p1533
I140
sS'alas'
p1534
I2548
sS'annoy'
p1535
I396
sS'eyed'
p1536
I2465
sS'girded'
p1537
I559
sS'jasmines'
p1538
I4116
sS'copy'
p1539
I536
sS'than'
p1540
I322
sS"here's"
p1541
I1427
sS'eyen'
p1542
I3393
sS'mow'
p1543
I1796
sS'wide'
p1544
I802
sS'feeds'
p1545
I1795
sS'wert'
p1546
I843
sS'require'
p1547
I1722
sS'folly'
p1548
I512
sS'transferred'
p1549
I2975
sS'apples'
p1550
I4254
sS'were'
p1551
I120
sS'lillies'
p1552
I4115
sS'carcanet'
p1553
I1630
sS'wandering'
p1554
I3852
sS'and'
p1555
I61
sS'rend'
p1556
I3586
sS'angel'
p1557
I3055
sS'slay'
p1558
I2990
sS'correction'
p1559
I2580
sS'confessed'
p1560
I2934
sS'turned'
p1561
I2471
sS'argument'
p1562
I1337
sS'jewels'
p1563
I1540
sS'voices'
p1564
I2596
sS'entombed'
p1565
I2155
sS'worms'
p1566
I332
sS'say'
p1567
I114
sS'perfumes'
p1568
I2476
sS'buried'
p1569
I960
sS'foiled'
p1570
I968
sS'anger'
p1571
I1592
sS'cheek'
p1572
I1649
sS'pityless'
p1573
I4006
sS'pry'
p1574
I1802
sS'any'
p1575
I470
sS'bee'
p1576
I4188
sS'elsewhere'
p1577
I1811
sS'defaced'
p1578
I1844
sS'describe'
p1579
I1646
sS'warriors'
p1580
I4168
sS'mourners'
p1581
I2849
sS'aside'
p1582
I2059
sS'purest'
p1583
I1896
sS'note'
p1584
I419
sS'wretch'
p1585
I1585
sS'take'
p1586
I1316
sS'resembling'
p1587
I359
sS'wanting'
p1588
I991
sS'blunt'
p1589
I782
sS'heal'
p1590
I3946
sS'flattered'
p1591
I2988
sS'urge'
p1592
I2698
sS'begin'
p1593
I2640
sS'sure'
p1594
I1537
sS'altered'
p1595
I2319
sS'theatre'
p1596
I3980
sS'sledge'
p1597
I3703
sS'tallies'
p1598
I2780
sS'price'
p1599
I3385
sS'keeps'
p1600
I716
sS'clearer'
p1601
I1438
sS'paid'
p1602
I1132
sS'remover'
p1603
I2668
sS'unkindness'
p1604
I2743
sS'boiling'
p1605
I3678
sS'render'
p1606
I2835
sS'entreaty'
p1607
I3505
sS'flatterer'
p1608
I2598
sS'tract'
p1609
I376
sS'clatter'
p1610
I4323
sS'coveted'
p1611
I3625
sS'winters'
p1612
I85
sS'forever'
p1613
I4222
sS'garments'
p1614
I2295
sS'later'
p1615
I4234
sS'steady'
p1616
I4049
sS'hungry'
p1617
I1709
sS'fordone'
p1618
I4277
sS'wing'
p1619
I2106
sS"perfect'st"
p1620
I1608
sS'massacres'
p1621
I3359
sS'sunset'
p1622
I2015
sS'amis'
p1623
I1760
sS'glutton'
p1624
I72
sS'pattern'
p1625
I812
sS'perfumed'
p1626
I1660
sS'review'
p1627
I2028
sS'laws'
p1628
I1570
sS'shop'
p1629
I937
sS'shot'
p1630
I4023
sS'tempered'
p1631
I3542
sS'show'
p1632
I299
sS'taketh'
p1633
I3539
sS'cheap'
p1634
I2550
sS'merit'
p1635
I984
sS'trespass'
p1636
I1270
sS'bright'
p1637
I28
sS'unseeing'
p1638
I1440
sS'scarce'
p1639
I3772
sS'tend'
p1640
I1642
sS'ground'
p1641
I2038
sS'amearst'
p1642
I4186
sS'unstayed'
p1643
I4034
sS'slow'
p1644
I1466
sS'woos'
p1645
I1398
sS'unkind'
p1646
I2739
sS'stair'
p1647
I4042
sS'title'
p1648
I1506
sS'warlike'
p1649
I3960
sS'stained'
p1650
I2545
sS'storms'
p1651
I3896
sS'cloak'
p1652
I1226
sS'crime'
p1653
I803
sS'staid'
p1654
I4183
sS'only'
p1655
I60
sS'wood'
p1656
I2854
sS'black'
p1657
I1041
sS'dispise'
p1658
I3763
sS'partake'
p1659
I3129
sS'deign'
p1660
I3214
sS'robe'
p1661
I1632
sS'shrill'
p1662
I3512
sS'hindmost'
p1663
I2224
sS'renewest'
p1664
I157
sS'get'
p1665
I381
sS"'tis"
p1666
I930
sS'lighten'
p1667
I3339
sS'between'
p1668
I4197
sS'expectation'
p1669
I4351
sS'truly'
p1670
I870
sS'whiles'
p1671
I3355
sS'loath'
p1672
I3748
sS'cannot'
p1673
I1343
sS"world's"
p1674
I54
sS'import'
p1675
I2784
sS'dye'
p1676
I1657
sS'clearest'
p1677
I4358
sS'closure'
p1678
I1547
sS'reveal'
p1679
I3945
sS'lame'
p1680
I1323
sS"viper's"
p1681
I3231
sS'floods'
p1682
I4010
sS'orphans'
p1683
I2397
sS"t'accuse"
p1684
I4067
sS'seeting'
p1685
I3178
sS'morning'
p1686
I1185
sS'naked'
p1687
I995
sS'stupid'
p1688
I3862
sS'ruddy'
p1689
I4104
sS'baits'
p1690
I3904
sS'through'
p1691
I190
sS'unwares'
p1692
I3594
sS'where'
p1693
I43
sS'husband'
p1694
I410
sS'beholding'
p1695
I3983
sS'seas'
p1696
I3791
sS'signs'
p1697
I1932
sS'up'
p1698
I343
sS"fortune's"
p1699
I1322
sS'asleep'
p1700
I3168
sS'expiate'
p1701
I878
sS'successive'
p1702
I2840
sS'seal'
p1703
I534
sS'salutation'
p1704
I2761
sS'jot'
p1705
I4021
sS'sport'
p1706
I2350
sS'budding'
p1707
I2347
sS'culver'
p1708
I4363
sS'wonder'
p1709
I1768
sS'youself'
p1710
I4193
sS'planet'
p1711
I4055
sS'invoked'
p1712
I2097
sS'tongue-tied'
p1713
I1907
sS'sorely'
p1714
I3901
sS'steadfast'
p1715
I3953
sS'compounds'
p1716
I2061
sS'crooked'
p1717
I1788
sS'sourest'
p1718
I2342
sS'dateless'
p1719
I1116
sS'ornament'
p1720
I52
sS'slander'
p1721
I1967
sS'colours'
p1722
I3483
sS'glorious'
p1723
I1186
sS'behind'
p1724
I443
sS'departest'
p1725
I503
sS'complexion'
p1726
I763
sS'sable'
p1727
I550
sS'refreshed'
p1728
I4280
sS'impure'
p1729
I3548
sS'enjoys'
p1730
I454
sS'presage'
p1731
I2509
sS'untainted'
p1732
I810
sS'forsake'
p1733
I569
sS'lays'
p1734
I2407
sS'eye'
p1735
I253
sS'reascend'
p1736
I4350
sS'discloses'
p1737
I1663
sS'pluck'
p1738
I613
sS'pained'
p1739
I3916
sS'blame'
p1740
I1371
sS'countenance'
p1741
I2239
sS'disdainful'
p1742
I3655
sS'reigns'
p1743
I1142
sS'spark'
p1744
I3297
sS'comb'
p1745
I4331
sS'come'
p1746
I719
sS'grieved'
p1747
I1258
sS'dates'
p1748
I2789
sS'many'
p1749
I422
sS'region'
p1750
I1218
sS'priests'
p1751
I3563
sS'quiet'
p1752
I1044
sS'called'
p1753
I1558
sS'sustain'
p1754
I3236
sS'inward'
p1755
I714
sS'dwellers'
p1756
I2823
sS'awards'
p1757
I3022
sS'fa&edry'
p1758
I3713
sS"sea's"
p1759
I859
sS'duty'
p1760
I983
sS'among'
p1761
I568
sS'unthrifts'
p1762
I610
sS'madness'
p1763
I3003
sS'afterwards'
p1764
I2643
sS'moly'
p1765
I3624
sS'unthrifty'
p1766
I202
sS'mightiest'
p1767
I3924
sS'unquiet'
p1768
I3225
sS'dispatch'
p1769
I3042
sS'eisel'
p1770
I2577
sS'slain'
p1771
I893
sS'lothsome'
p1772
I3416
sS'stretched'
p1773
I748
sS'learning'
p1774
I2078
sS'proved'
p1775
I2557
sS'endeavor'
p1776
I4284
sS'famished'
p1777
I1519
sS'consider'
p1778
I653
sS'boat'
p1779
I2145
sS'doctor-like'
p1780
I1908
sS'season'
p1781
I3558
sS'arts'
p1782
I2115
sS'profitless'
p1783
I224
sS"starv'd"
p1784
I3747
sS'self-doing'
p1785
I1752
sS'fleeting'
p1786
I2380
sS"ulysses'"
p1787
I3574
sS'absence'
p1788
I1361
sS'mark'
p1789
I412
sS'breath'
p1790
I1664
sS'subscribes'
p1791
I2518
sS"self's"
p1792
I595
sS'beams'
p1793
I2631
sS'mars'
p1794
I1687
sS'dumps'
p1795
I3969
sS'informer'
p1796
I2836
sS'hardly'
p1797
I3479
sS'wants'
p1798
I4372
sS'spare'
p1799
I4024
sS'straying'
p1800
I1404
sS'robbed'
p1801
I3031
sS'thousand'
p1802
I971
sS'blessing'
p1803
I2165
sS'wretched'
p1804
I2308
sS'wounds'
p1805
I4019
sS'shined'
p1806
I3337
sS'tiger'
p1807
I4002
sS'nobler'
p1808
I3151
sS'spills'
p1809
I3585
sS'wake'
p1810
I1812
sS'external'
p1811
I1654
sS'turn'
p1812
I2343
sS'frantic-mad'
p1813
I3112
sS'masonry'
p1814
I1681
sS'careful'
p1815
I1532
sS'spirit'
p1816
I1712
sS'those'
p1817
I213
sS'sound'
p1818
I2896
sS'clears'
p1819
I3125
sS'myself'
p1820
I3401
sS'enfold'
p1821
I3776
sS'rarities'
p1822
I1794
sS'these'
p1823
I1095
sS'sheaves'
p1824
I558
sS'mount'
p1825
I4199
sS'chace'
p1826
I3652
sS'woxen'
p1827
I3229
sS'compile'
p1828
I2111
sS'cast'
p1829
I1555
sS'warning'
p1830
I1986
sS'graven'
p1831
I2423
sS'cancelled'
p1832
I1120
sS'situation'
p1833
I2869
sS'endured'
p1834
I2507
sS'hunts'
p1835
I4003
sS'invited'
p1836
I3016
sS'anchored'
p1837
I2967
sS'bathe'
p1838
I4207
sS'determination'
p1839
I593
sS"t'achieve"
p1840
I3952
sS'brow'
p1841
I82
sS'gluttoning'
p1842
I2057
sS'middle'
p1843
I356
sS'sudden'
p1844
I3970
sS'embrace'
p1845
I3610
sS'limping'
p1846
I1905
sS'argue'
p1847
I4272
sS'commanded'
p1848
I3138
sS'pinks'
p1849
I4110
sS'awhile'
p1850
I4278
sS'fulfilled'
p1851
I4056
sS'different'
p1852
I2408
sS'eye-glances'
p1853
I3489
sS'harsh'
p1854
I526
sS"tyrants'"
p1855
I2523
sS'strains'
p1856
I2292
sS'inquire'
p1857
I3635
sS'pay'
p1858
I314
sS'freewill'
p1859
I3357
sS'same'
p1860
I256
sS'check'
p1861
I1742
sS'shifts'
p1862
I455
sS'thralls'
p1863
I3696
sS'weakness'
p1864
I2257
sS'streams'
p1865
I1194
sS"'truth"
p1866
I2435
sS'noble'
p1867
I3872
sS'wires'
p1868
I2892
sS'decay'
p1869
I511
sS'sickness'
p1870
I2703
sS'tyrannous'
p1871
I2899
sS'defy'
p1872
I2793
sS'drives'
p1873
I3553
sS'weed'
p1874
I102
sS'fruit'
p1875
I2395
sS'scorned'
p1876
I742
sS'extern'
p1877
I2819
sS'changing'
p1878
I769
sS'weep'
p1879
I441
sS"slander's"
p1880
I1963
sS'clogged'
p1881
I4201
sS'vowed'
p1882
I3190
sS'weave'
p1883
I3271
sS'complained'
p1884
I3922
sS'purer'
p1885
I3342
sS'woodbine'
p1886
I4195
sS'plaints'
p1887
I3437
sS'dear-purchased'
p1888
I2688
sS'throned'
p1889
I2366
sS'floor'
p1890
I3529
sS'costs'
p1891
I2303
sS'relief'
p1892
I1246
sS'trains'
p1893
I3902
sS'very'
p1894
I257
sS'reward'
p1895
I4342
sS'extermities'
p1896
I3760
sS'amazed'
p1897
I3249
sS'justify'
p1898
I2989
sS'distills'
p1899
I1669
sS'summer'
p1900
I263
sS'desolate'
p1901
I4014
sS'manifold'
p1902
I3455
sS'ransoms'
p1903
I2756
sS'fester'
p1904
I2344
sS'being'
p1905
I108
sS'when'
p1906
I87
sS'weeds'
p1907
I1956
sS'sights'
p1908
I4316
sS'shamefully'
p1909
I1898
sS'over-plus'
p1910
I2950
sS"abondon'd"
p1911
I3423
sS'imprint'
p1912
I2075
sS'bareness'
p1913
I276
sS'wrecks'
p1914
I3609
sS'cease'
p1915
I514
sS'vanquished'
p1916
I3659
sS'aspect'
p1917
I1001
sS'kind-hearted'
p1918
I496
sS'touch'
p1919
I3180
sS'speed'
p1920
I1587
sS'guides'
p1921
I998
sS'captured'
p1922
I4209
sS'blow'
p1923
I2807
sS'renewed'
p1924
I2574
sS'unwooed'
p1925
I1666
sS'thinking'
p1926
I1992
sS'rose'
p1927
I10
sS'seems'
p1928
I2467
sS"summer's"
p1929
I280
sS"summers'"
p1930
I2468
sS'instrument'
p1931
I3979
sS'verse'
p1932
I720
sS'setting'
p1933
I4306
sS'suppressed'
p1934
I2984
sS'astonishment'
p1935
I3251
sS'dully'
p1936
I1583
sS'valley-fountain'
p1937
I3175
sS'struck'
p1938
I2228
sS'pill'
p1939
I3621
sS'kingdom'
p1940
I1851
sS'boast'
p1941
I949
sS'frown'
p1942
I963
sS'kills'
p1943
I1459
sS'read'
p1944
I639
sS'offence'
p1945
I1599
sS'sums'
p1946
I227
sS'dart'
p1947
I2993
sS'dark'
p1948
I1434
sS'traffic'
p1949
I230
sS'beseechers'
p1950
I2956
sS"look's"
p1951
I3462
sS'confined'
p1952
I2485
sS'world'
p1953
I76
sS'snare'
p1954
I3774
sS'aiming'
p1955
I3474
sS'lady'
p1956
I3404
sS'dare'
p1957
I1009
sS'acquainted'
p1958
I821
sS'fortune'
p1959
I628
sS'goodly'
p1960
I2148
sS'achieve'
p1961
I1915
sS'maintained'
p1962
I3765
sS'miracle'
p1963
I1884
sS'lightning'
p1964
I3328
sS'invention'
p1965
I1345
sS'benefit'
p1966
I1047
sS'beguiled'
p1967
I1757
sS'miraculous'
p1968
I3680
sS'either'
p1969
I1528
sS'robbery'
p1970
I1377
sS'offenders'
p1971
I1417
sS'tower'
p1972
I4130
sS'wend'
p1973
I3894
sS'tombed'
p1974
I239
sS'fulfil'
p1975
I2958
sS'unrighteous'
p1976
I3350
sS'wooers'
p1977
I3576
sS'what'
p1978
I238
sS'truths'
p1979
I2372
sS'servile'
p1980
I4210
sS'elements'
p1981
I1467
sS'respect'
p1982
I1007
sS'images'
p1983
I1155
sS'swerving'
p1984
I2249
sS'divine'
p1985
I2527
sS'thinks'
p1986
I1734
sS'choir'
p1987
I3516
sS'matchable'
p1988
I4141
sS'mood'
p1989
I3240
sS'courses'
p1990
I1764
sS'curious'
p1991
I1351
sS'noon'
p1992
I378
sS'footing'
p1993
I4263
sS'stops'
p1994
I2450
sS'moon'
p1995
I860
sS'forgoing'
p1996
I2827
sS'spotless'
p1997
I4133
sS'expressing'
p1998
I2488
sS'self-loving'
p1999
I1829
sS'knife'
p2000
I1840
sS'destroys'
p2001
I458
sS'felt'
p2002
I2381
sS'snowy'
p2003
I4108
sS'power'
p2004
I1866
sS'seconds'
p2005
I2833
sS'extremest'
p2006
I3842
sS'strained'
p2007
I2175
sS'olives'
p2008
I2514
sS'breasts'
p2009
I2890
sS'forgetfulness'
p2010
I2783
sS'broken'
p2011
I1798
sS'lodestar'
p2012
I3734
sS'embase'
p2013
I3482
sS"o'er-green"
p2014
I2588
sS'assemble'
p2015
I2630
sS'prepared'
p2016
I4345
sS'throw'
p2017
I2592
sS'fondness'
p2018
I3785
sS'tread'
p2019
I3530
sS'on'
p2020
I92
sS'stone'
p2021
I1677
sS'subdued'
p2022
I2572
sS'lioness'
p2023
I3535
sS'zealous'
p2024
I1025
sS'of'
p2025
I101
sS'choirs'
p2026
I2010
sS'feil'
p2027
I2721
sS'greater'
p2028
I1380
sS'whence'
p2029
I1548
sS'enbrew'
p2030
I3978
sS'wolf'
p2031
I2374
sS'stand'
p2032
I700
sS'west'
p2033
I1206
sS'mixed'
p2034
I2834
sS'bond'
p2035
I2942
sS'or'
p2036
I75
sS'diversely'
p2037
I3985
sS'imitated'
p2038
I1647
sS'ladies'
p2039
I2497
sS'long-lived'
p2040
I793
sS'burning'
p2041
I342
sS'weighs'
p2042
I2531
sS'distempered'
p2043
I3183
sS'image'
p2044
I197
sS'skilled'
p2045
I4053
sS'blessed'
p2046
I697
sS'guiltless'
p2047
I3537
sS'penelope'
p2048
I3575
sS'aswage'
p2049
I3900
sS'rues'
p2050
I3993
sS'rising'
p2051
I3153
sS'lively'
p2052
I1922
sS'dreaming'
p2053
I2505
sS'blesses'
p2054
I2352
sS'early'
p2055
I1211
sS'your'
p2056
I582
sS'bends'
p2057
I2669
sS'buds'
p2058
I753
sS"oaths'"
p2059
I3161
sS'fast'
p2060
I501
sS'prepare'
p2061
I586
sS'emprize'
p2062
I4172
sS'there'
p2063
I266
sS'disposed'
p2064
I2256
sS'desert'
p2065
I1567
sS'start'
p2066
I3848
sS'stealth'
p2067
I2081
sS"whate'er"
p2068
I800
sS"'i"
p2069
I3068
sS'lot'
p2070
I4296
sS'house'
p2071
I600
sS'mollify'
p2072
I3701
sS'bubble'
p2073
I4036
sS'leach'
p2074
I3935
sS'afresh'
p2075
I1121
sS'mischief'
p2076
I4343
sS'groan'
p2077
I1594
sS'enough'
p2078
I1234
sS"you'"
p2079
I3077
sS'regard'
p2080
I3931
sS"dyer's"
p2081
I2573
sS'delayed'
p2082
I3676
sS'strikes'
p2083
I415
sS'meetness'
p2084
I2708
sS'shroud'
p2085
I3629
sS'land'
p2086
I1454
sS'brain'
p2087
I2089
sS'wouds'
p2088
I4027
sS'with'
p2089
I36
sS'faster'
p2090
I2427
sS'abused'
p2091
I2180
sS'hire'
p2092
I3912
sS'applying'
p2093
I2729
sS'naming'
p2094
I2353
sS'rage'
p2095
I607
sS'half-trembling'
p2096
I4159
sS'grudging'
p2097
I4052
sS'niggarding'
p2098
I66
sS'self-same'
p2099
I671
sS'strawberry'
p2100
I4111
sS'sadness'
p2101
I3808
sS'scorning'
p2102
I3356
sS'impute'
p2103
I2189
sS'abuses'
p2104
I2766
sS'define'
p2105
I1819
sS'agree'
p2106
I3597
sS'minded'
p2107
I515
sS'strongly'
p2108
I982
sS'gone'
p2109
I233
sS'intents'
p2110
I2650
sS'palate'
p2111
I2637
sS'surly'
p2112
I1984
sS'subdue'
p2113
I4233
sS'taste'
p2114
I1375
sS'ah'
p2115
I437
sS'accents'
p2116
I1950
sS'stealing'
p2117
I1208
sS'am'
p2118
I875
sS'deep'
p2119
I90
sS'an'
p2120
I119
sS'toiled'
p2121
I974
sS'excusing'
p2122
I1276
sS'deem'
p2123
I1655
sS'ensuing'
p2124
I4065
sS'carved'
p2125
I535
sS'walks'
p2126
I2270
sS'ay'
p2127
I1403
sS'aught'
p2128
I1340
sS'horse'
p2129
I1607
sS"hearts'"
p2130
I3868
sS'fill'
p2131
I1707
sS'tedious'
p2132
I3720
sS'again'
p2133
I597
sS'proudly'
p2134
I2900
sS'want'
p2135
I946
sS'pledge'
p2136
I3847
sS"judgment's"
p2137
I2906
sS'deserve'
p2138
I3035
sS"helen's"
p2139
I1650
sS'green'
p2140
I560
sS'repent'
p2141
I1245
sS'orient'
p2142
I337
sS'roses'
p2143
I1263
sS'you'
p2144
I581
sS'dismayed'
p2145
I3298
sS'cypress'
p2146
I3620
sS'abysm'
p2147
I2593
sS'poor'
p2148
I989
sS'reighneth'
p2149
I3533
sS'perils'
p2150
I3733
sS'translated'
p2151
I2371
sS'time'
p2152
I15
sS'merchants'
p2153
I3440
sS'gifts'
p2154
I2464
sS'lovers'
p2155
I1152
sS'suited'
p2156
I2850
sS'brass'
p2157
I1850
sS'celestial'
p2158
I1200
sS'sequent'
p2159
I1782
sS"treason's"
p2160
I3390
sS'building'
p2161
I2149
sS'backward'
p2162
I1763
sS'remote'
p2163
I1449
sS'calls'
p2164
I186
sS'wife'
p2165
I438
sS"life's"
p2166
I1485
sS'mask'
p2167
I3990
sS"'stonished"
p2168
I3461
sS'having'
p2169
I231
sS'extant'
p2170
I2186
sS'repay'
p2171
I2685
sS'hugely'
p2172
I2813
sS'treason'
p2173
I3150
sS'apparel'
p2174
I1005
sS'tanned'
p2175
I1824
sS'unset'
p2176
I701
sS'maturity'
p2177
I1786
sS'all'
p2178
I106
sS'forget'
p2179
I904
sS'vile'
p2180
I1988
sS'suns'
p2181
I1223
sS'forbidden'
p2182
I311
sS'lack'
p2183
I1111
sS'neigh'
p2184
I1611
sS'bosoms'
p2185
I2752
sS'importune'
p2186
I3032
sS'seals'
p2187
I2016
sS'unrest'
p2188
I3111
sS"'gainst"
p2189
I483
sS'forged'
p2190
I2969
sS'welfare'
p2191
I2709
sS'dish'
p2192
I4252
sS'follow'
p2193
I3046
sS'meditation'
p2194
I1881
sS'lace'
p2195
I1917
sS'children'
p2196
I2092
sS'oaths'
p2197
I3164
sS'dreadful'
p2198
I3689
sS'wanton'
p2199
I2389
sS'wish'
p2200
I704
sS'homage'
p2201
I347
sS'sparkling'
p2202
I1069
sS'deceivest'
p2203
I1372
sS"keep'st"
p2204
I3127
sS'revengeful'
p2205
I3649
sS'lustfull'
p2206
I4308
sS'captivity'
p2207
I4125
sS'dressing'
p2208
I2069
sS"is't"
p2209
I1355
sS'nurseth'
p2210
I3102
sS'hideous'
p2211
I270
sS'subtleties'
p2212
I2978
sS'case'
p2213
I1576
sS'woman'
p2214
I844
sS'worse'
p2215
I1774
sS'bowers'
p2216
I4101
sS'song'
p2217
I423
sS'far'
p2218
I1023
sS'caught'
p2219
I3778
sS'saved'
p2220
I3080
sS'coloured'
p2221
I3056
sS'oblation'
p2222
I2832
sS'sufficeth'
p2223
I4096
sS'aware'
p2224
I3779
sS'novel'
p2225
I2786
sS'worst'
p2226
I814
sS'invent'
p2227
I1332
sS'fall'
p2228
I599
sS'awful'
p2229
I3412
sS'hems'
p2230
I866
sS'difference'
p2231
I2487
sS'cunningly'
p2232
I3770
sS'strand'
p2233
I4224
sS'vouchsafe'
p2234
I1167
sS'heaven'
p2235
I634
sS'profane'
p2236
I2272
sS'list'
p2237
I1749
sS'sympathized'
p2238
I2176
sS'large'
p2239
I1462
sS'sang'
p2240
I2007
sS'undone'
p2241
I3582
sS'plain'
p2242
I2178
sS'mistaking'
p2243
I2251
sS"t'"
p2244
I2713
sS'wantonness'
p2245
I2363
sS'relenting'
p2246
I3641
sS"i'll"
p2247
I1182
sS'quicker'
p2248
I1477
sS'ten'
p2249
I319
sS'outworn'
p2250
I1845
sS'lascivious'
p2251
I1384
sS'past'
p2252
I543
sS'winds'
p2253
I756
sS'hope'
p2254
I993
sS'titles'
p2255
I950
sS'rhymes'
p2256
I3220
sS'pass'
p2257
I1559
sS'further'
p2258
I4354
sS'affable'
p2259
I2235
sS'befriends'
p2260
I2738
sS'crests'
p2261
I2522
sS'creatures'
p2262
I4
sS'conscience'
p2263
I3147
sS'gazers'
p2264
I2379
sS'sue'
p2265
I2947
sS'defence'
p2266
I574
sS'stood'
p2267
I3460
sS'darkness'
p2268
I1031
sS'sweetly'
p2269
I407
sS'clock'
p2270
I539
sS'sun'
p2271
I861
sS'wrecked'
p2272
I2147
sS'gardens'
p2273
I702
sS'plast'
p2274
I3732
sS'brief'
p2275
I627
sS'stoop'
p2276
I4142
sS'prevailed'
p2277
I1399
sS'dints'
p2278
I3313
sS'foison'
p2279
I1653
sS'unseen'
p2280
I1207
sS'ill-wresting'
p2281
I3004
sS'learned'
p2282
I2939
sS'doting'
p2283
I2901
sS'themselves'
p2284
I570
sS'womb'
p2285
I166
sS'turmoil'
p2286
I3381
sS'full'
p2287
I1187
sS'ranged'
p2288
I2538
sS'loose'
p2289
I4269
sS'answers'
p2290
I1595
sS'revenge'
p2291
I3135
sS'hours'
p2292
I251
sS'ensconce'
p2293
I1566
sS'so-hot'
p2294
I3672
sS'nimble'
p2295
I1457
sS'excess'
p2296
I3087
sS'hast'
p2297
I444
sS'depend'
p2298
I2312
sS'yellowed'
p2299
I738
sS'table'
p2300
I929
sS'tragedy'
p2301
I3992
sS'speeches'
p2302
I4333
sS'colored'
p2303
I3268
sS'enmity'
p2304
I1689
sS'inspired'
p2305
I3324
sS'losses'
p2306
I1136
sS'dearths'
p2307
I624
sS'qualify'
p2308
I2536
sS'stiffness'
p2309
I4320
sS'action'
p2310
I1870
sS'steepy'
p2311
I1834
sS'sweetness'
p2312
I2328
sS"day's"
p2313
I1051
sS'followed'
p2314
I3074
sS'untold'
p2315
I2962
sS'suddenly'
p2316
I3476
sS'impiety'
p2317
I1914
sS'tendered'
p2318
I2750
sS'amazement'
p2319
I3745
sS"lion's"
p2320
I781
sS'entrap'
p2321
I3391
sS'plights'
p2322
I4318
sS'self-love'
p2323
I179
sS'taker'
p2324
I2883
sS'proceed'
p2325
I2066
sS'cherubins'
p2326
I2628
sS'wiped'
p2327
I4229
sS'faint'
p2328
I2129
sS'single'
p2329
I198
sS'two'
p2330
I1294
sS'pearl'
p2331
I1254
sS'morn'
p2332
I1210
sS'warmed'
p2333
I3194
sS'endowed'
p2334
I528
sS'taken'
p2335
I2674
sS'injury'
p2336
I1381
sS'more'
p2337
I123
sS'horses'
p2338
I2307
sS'triumphant'
p2339
I1213
sS'darting'
p2340
I3467
sS'unlearned'
p2341
I2979
sS'knows'
p2342
I725
sS'delves'
p2343
I1793
sS"ow'st"
p2344
I772
sS'foregone'
p2345
I1125
sS'spoils'
p2346
I2426
sS'possession'
p2347
I773
sS'excuse'
p2348
I1416
sS'lameness'
p2349
I2267
sS"dian's"
p2350
I3170
sS'deigned'
p2351
I4304
sS'broke'
p2352
I3040
sS'varying'
p2353
I2489
sS'known'
p2354
I1382
sS'mounted'
p2355
I1604
sS'glad'
p2356
I798
sS'cunning'
p2357
I947
sS'weighed'
p2358
I4200
sS'fleece'
p2359
I1940
sS'hour'
p2360
I1214
sS'besides'
p2361
I2601
sS'languishment'
p2362
I4063
sS'remain'
p2363
I1300
sS'nine'
p2364
I1349
sS'den'
p2365
I3831
sS'dazed'
p2366
I3248
sS'langor'
p2367
I3752
sS'history'
p2368
I2321
sS'beautiful'
p2369
I2495
sS'stubborn'
p2370
I3654
sS'compare'
p2371
I751
sS'attainted'
p2372
I2258
sS'visage'
p2373
I1204
sS'lives'
p2374
I244
sS'neglected'
p2375
I3044
sS'conspire'
p2376
I481
sS'accept'
p2377
I3570
sS'thievish'
p2378
I1551
sS'sphere'
p2379
I4059
sS'rise'
p2380
I2422
sS'numbers'
p2381
I731
sS'sense'
p2382
I1277
sS'phrase'
p2383
I2212
sS'dress'
p2384
I1942
sS'simple'
p2385
I1911
sS'firmly'
p2386
I4160
sS'low'
p2387
I377
sS'huge'
p2388
I662
sS'siren'
p2389
I2724
sS'court'
p2390
I3395
sS'calms'
p2391
I4088
sS'drained'
p2392
I1833
sS'rather'
p2393
I2791
sS"'thus"
p2394
I1580
sS'breaking'
p2395
I3398
sS'enlarge'
p2396
I3715
sS'fame'
p2397
I2133
sS"adder's"
p2398
I2595
sS'glowing'
p2399
I2017
sS"heart's"
p2400
I1512
sS'freshly'
p2401
I4084
sS'strong'
p2402
I358
sS'stir'
p2403
I3549
sS"'not"
p2404
I3078
sS'creature'
p2405
I2615
sS'mould'
p2406
I3997
sS'simplicity'
p2407
I1909
sS'pleasure'
p2408
I397
sS'tried'
p2409
I3294
sS'rude'
p2410
I524
sS'disgraced'
p2411
I1901
sS'derived'
p2412
I3221
sS"foes'"
p2413
I3882
sS'mended'
p2414
I1770
sS'whilst'
p2415
I954
sS'blood'
p2416
I147
sS'waves'
p2417
I1777
sS'replete'
p2418
I901
sS'a'
p2419
I45
sS'refuse'
p2420
I3141
sS'short'
p2421
I758
sS"pleasure's"
p2422
I4202
sS'resemble'
p2423
I2627
sS'shady'
p2424
I2082
sS'register'
p2425
I2525
sS'spiteful'
p2426
I4334
sS'jove'
p2427
I3803
sS'moved'
p2428
I3371
sS'graceth'
p2429
I3406
sS'shore'
p2430
I1715
sS'rebuked'
p2431
I2737
sS'dread'
p2432
I3711
sS'shade'
p2433
I775
sS'perjured'
p2434
I2873
sS'banks'
p2435
I1716
sS'shorn'
p2436
I1937
sS"gav'st"
p2437
I895
sS'cruelties'
p2438
I3927
sS'dream'
p2439
I2254
sS"that's"
p2440
I317
sS'recite'
p2441
I1997
sS'adorned'
p2442
I3457
sS'played'
p2443
I928
sS'help'
p2444
I1302
sS'winged'
p2445
I1605
sS'flowers'
p2446
I295
sS'stays'
p2447
I3152
sS'soon'
p2448
I1458
sS'soom'
p2449
I4302
sS'trade'
p2450
I3947
sS'disabled'
p2451
I1903
sS'held'
p2452
I98
sS'paper'
p2453
I1338
sS'comfortless'
p2454
I3737
sS'committed'
p2455
I2730
sS'hell'
p2456
I1754
sS'drossy'
p2457
I3419
sS'suffer'
p2458
I1741
sS'saucy'
p2459
I2139
sS'merchandized'
p2460
I2442
sS'pent'
p2461
I282
sS'thrilling'
p2462
I3756
sS'thereon'
p2463
I4259
sS'glide'
p2464
I3488
sS'termed'
p2465
I744
sS'pray'
p2466
I3051
sS'wishful'
p2467
I4364
sS'deeds'
p2468
I1256
sS'bosom'
p2469
I462
sS'teeming'
p2470
I2387
sS'hounds'
p2471
I2296
sS'late'
p2472
I2009
sS'resort'
p2473
I2364
sS'dross'
p2474
I3092
sS'parts'
p2475
I408
sS'threescore'
p2476
I519
sS'ruining'
p2477
I2822
sS"craftsman's"
p2478
I3495
sS'self-willed'
p2479
I331
sS'bereft'
p2480
I285
sS'alter'
p2481
I1306
sS'crawls'
p2482
I1787
sS'fool'
p2483
I1733
sS'evening'
p2484
I4347
sS'return'
p2485
I1046
sS'calm'
p2486
I3336
sS'seeking'
p2487
I486
sS'motley'
p2488
I2549
sS'distilled'
p2489
I294
sS'ye'
p2490
I1415
sS'storm-beaten'
p2491
I1235
sS'speechless'
p2492
I424
sS'walls'
p2493
I281
sS'nymphs'
p2494
I3191
sS'rank'
p2495
I1958
sS'compound'
p2496
I2828
sS'foot'
p2497
I1451
sS'hunted'
p2498
I2878
sS'antiquity'
p2499
I1823
sS"mistress'"
p2500
I2848
sS'complain'
p2501
I1059
sS'mystery'
p2502
I3603
sS'likeness'
p2503
I3020
sS'hereafter'
p2504
I4214
sS'imprisoned'
p2505
I1637
sS'always'
p2506
I2068
sS'loosly'
p2507
I4246
sS'loosely'
p2508
I3286
sS'eloquence'
p2509
I913
sS'ashes'
p2510
I2018
sS'stopped'
p2511
I2597
sS'exiled'
p2512
I3963
sS'blest'
p2513
I1717
sS'found'
p2514
I1424
sS'heavy'
p2515
I1442
sS"put'st"
p2516
I2944
sS'proud-pied'
p2517
I2403
sS'restless'
p2518
I3372
sS'weight'
p2519
I1582
sS'sullied'
p2520
I689
sS'jaws'
p2521
I787
sS'fish'
p2522
I3905
sS'hard'
p2523
I2748
sS'oppressed'
p2524
I1052
sS'idea'
p2525
I3887
sS'fist'
p2526
I2941
sS"nature's"
p2527
I210
sS'slave'
p2528
I1721
sS'beyond'
p2529
I2773
sS'incertainties'
p2530
I2512
sS'harp'
p2531
I3793
sS'travels'
p2532
I2539
sS'flower'
p2533
I1869
sS'missed'
p2534
I2777
sS"fancy's"
p2535
I3254
sS'wise'
p2536
I1996
sS'since'
p2537
I572
sS'publish'
p2538
I2443
sS'dregs'
p2539
I2031
sS'admired'
p2540
I2204
sS'safety'
p2541
I4093
sS'hill'
p2542
I352
sS'avenge'
p2543
I3910
sS'paradise'
p2544
I4237
sS'print'
p2545
I537
sS'darling'
p2546
I754
sS'drizling'
p2547
I3499
sS'issue'
p2548
I598
sS'nest'
p2549
I4236
sS'fled'
p2550
I1985
sS'stewards'
p2551
I2339
sS'boldness'
p2552
I2864
sS'belied'
p2553
I2898
sS'arion'
p2554
I3790
sS'commits'
p2555
I466
sS'fore-bemoaned'
p2556
I1129
sS'forgive'
p2557
I1378
sS'pleasant'
p2558
I2451
sS'reason'
p2559
I2641
sS'base'
p2560
I1229
sS'members'
p2561
I3939
sS'impeached'
p2562
I2838
sS'put'
p2563
I900
sS'inure'
p2564
I3551
sS'teach'
p2565
I1577
sS'wretches'
p2566
I3836
sS'reproach'
p2567
I2757
sS"excuse'"
p2568
I133
sS"know'st"
p2569
I1418
sS'guest'
p2570
I1526
sS'thrown'
p2571
I3792
sS'nightly'
p2572
I1075
sS'owners'
p2573
I2335
sS'service'
p2574
I3136
sS'needing'
p2575
I2710
sS'but'
p2576
I21
sS"year's"
p2577
I3587
sS'sicken'
p2578
I2705
sS'unaware'
p2579
I4191
sS'corrupting'
p2580
I1274
sS'seemeth'
p2581
I3749
sS'feed'
p2582
I3097
sS'gazed'
p2583
I93
sS'seeming'
p2584
I421
sS'forwards'
p2585
I1781
sS'blush'
p2586
I1923
sS'feel'
p2587
I1546
sS'number'
p2588
I730
sS'fancy'
p2589
I4205
sS'breathers'
p2590
I2158
sS'feet'
p2591
I3238
sS'elder'
p2592
I883
sS'enlarged'
p2593
I1977
sS'revolution'
p2594
I1771
sS'done'
p2595
I940
sS'defects'
p2596
I1553
sS'dreading'
p2597
I2400
sS'narcissus'
p2598
I3744
sS'miss'
p2599
I4371
sS'stage'
p2600
I661
sS'rents'
p2601
I3028
sS'moan'
p2602
I1124
sS'guess'
p2603
I1954
sS'heads'
p2604
I3661
sS'temperature'
p2605
I3411
sS'blossom'
p2606
I4072
sS'twenty'
p2607
I3162
sS'threatening'
p2608
I3284
sS'slanderers'
p2609
I3007
sS'least'
p2610
I497
sS'hallowed'
p2611
I2530
sS'pricketh'
p2612
I3614
sS'wonderful'
p2613
I3686
sS'smile'
p2614
I3555
sS'passed'
p2615
I1974
sS'marble'
p2616
I1672
sS'essays'
p2617
I2558
sS'hundred'
p2618
I1765
sS'store'
p2619
I520
sS'wonderment'
p2620
I3253
sS'youngly'
p2621
I505
sS'selling'
p2622
I3093
sS'imperfect'
p2623
I1441
sS'saint'
p2624
I3061
sS'thirst'
p2625
I4156
sS'vantage'
p2626
I2264
sS'adonis'
p2627
I1645
sS'part'
p2628
I898
sS'tradefull'
p2629
I3441
sS"grow'st"
p2630
I500
sS'believe'
p2631
I721
sS"what's"
p2632
I2316
sS'grace'
p2633
I945
sS'king'
p2634
I1837
sS'kind'
p2635
I494
sS'grew'
p2636
I2195
sS'mortality'
p2637
I1868
sS'vial'
p2638
I308
sS'gotten'
p2639
I4178
sS'anticipate'
p2640
I2712
sS'mortgaged'
p2641
I2935
sS'grey'
p2642
I2912
sS'shallowest'
p2643
I2143
sS'youth'
p2644
I357
sS'autumn'
p2645
I2386
sS'determined'
p2646
I1510
sS'contrary'
p2647
I1827
sS'supposed'
p2648
I1140
sS'garland'
p2649
I3514
sS'kindle'
p2650
I3311
sS'lease'
p2651
I591
sS'restful'
p2652
I1887
sS'tongues'
p2653
I1947
sS'vacant'
p2654
I2077
sS'wrongest'
p2655
I3275
sS'trifles'
p2656
I1539
sS'well'
p2657
I447
sS'plead'
p2658
I918
sS'ages'
p2659
I2438
sS'defect'
p2660
I1962
sS'needs'
p2661
I1288
sS'new-fired'
p2662
I3179
sS'alike'
p2663
I2483
sS'showers'
p2664
I2039
sS'gladsome'
p2665
I4085
sS'gall'
p2666
I3857
sS'travail'
p2667
I2121
sS'odors'
p2668
I4100
sS'fading'
p2669
I801
sS'sensual'
p2670
I1280
sS'sell'
p2671
I874
sS'mountain'
p2672
I1190
sS'speaking'
p2673
I914
sS'built'
p2674
I2736
sS'depending'
p2675
I3606
sS'trance'
p2676
I3816
sS'forepast'
p2677
I4083
sS'port'
p2678
I3407
sS'onset'
p2679
I2291
sS'also'
p2680
I3237
sS'without'
p2681
I513
sS'lip'
p2682
I2499
sS'build'
p2683
I3568
sS'frail'
p2684
I3247
sS'finding'
p2685
I2167
sS'anthems'
p2686
I3518
sS"angel's"
p2687
I3223
sS'chary'
p2688
I887
sS"art's"
p2689
I2843
sS"'had"
p2690
I1171
sS'towards'
p2691
I1617
sS'quoth'
p2692
I3657
sS'oft'
p2693
I636
sS'death'
p2694
I327
sS'reckon'
p2695
I2765
sS'sets'
p2696
I686
sS'unswayed'
p2697
I3021
sS'unused'
p2698
I241
sS'most'
p2699
I477
sS'charm'
p2700
I3908
sS'remembreth'
p2701
I3414
sS'blunting'
p2702
I1623
sS'daphne'
p2703
I3647
sS'seasons'
p2704
I796
sS"o'ercharged"
p2705
I912
sS'wastes'
p2706
I567
sS'measured'
p2707
I1579
sS'appear'
p2708
I1148
sS'chronicle'
p2709
I2492
sS'feasting'
p2710
I2050
sS'windows'
p2711
I189
sS"adders'"
p2712
I4327
sS'clear'
p2713
I1439
sS'sometimes'
p2714
I1593
sS'cover'
p2715
I879
sS'naught'
p2716
I3315
sS'unbred'
p2717
I2479
sS'flits'
p2718
I3991
sS'dissolved'
p2719
I3673
sS'treasures'
p2720
I3442
sS'reeleth'
p2721
I369
sS'barren'
p2722
I551
sS'bower'
p2723
I2845
sS'charged'
p2724
I1975
sS'diverse'
p2725
I3269
sS'lying'
p2726
I3186
sS'stones'
p2727
I1629
sS'self-substantial'
p2728
I35
sS'despise'
p2729
I3008
sS'gold'
p2730
I764
sS'gates'
p2731
I1880
sS"y'have"
p2732
I2744
sS'wailing'
p2733
I1413
sS'fond'
p2734
I174
sS'violet'
p2735
I544
sS'page'
p2736
I2533
sS'rhymers'
p2737
I1348
sS'wasted'
p2738
I2491
sS'registers'
p2739
I2794
sS'expressed'
p2740
I919
sS'heavens'
p2741
I3898
sS'fine'
p2742
I924
sS'find'
p2743
I594
sS'viewest'
p2744
I149
sS'sportive'
p2745
I2760
sS'gilded'
p2746
I1671
sS'aggravate'
p2747
I3091
sS'shouldst'
p2748
I325
sS'deserts'
p2749
I722
sS'unperfect'
p2750
I897
sS"t'increase"
p2751
I3835
sS'justice'
p2752
I3405
sS'ruin'
p2753
I1862
sS'less'
p2754
I741
sS'waiting'
p2755
I1755
sS'vision'
p2756
I2612
sS'erect'
p2757
I4170
sS'unjustly'
p2758
I3917
sS'tempests'
p2759
I2672
sS'defiled'
p2760
I3536
sS'fiend'
p2761
I3064
sS'hardened'
p2762
I3608
sS"painter's"
p2763
I933
sS'ordained'
p2764
I3913
sS'niggard'
p2765
I217
sS'dust'
p2766
I1158
sS'gains'
p2767
I1926
sS'mercy'
p2768
I3072
sS'compiled'
p2769
I2207
sS'express'
p2770
I2526
sS'impregnable'
p2771
I1876
sS'trees'
p2772
I552
sS'slime'
p2773
I3418
sS'famous'
p2774
I3664
sS'remedy'
p2775
I1817
sS'hid'
p2776
I1117
sS'rest'
p2777
I976
sS'closely'
p2778
I3471
sS'compass'
p2779
I2679
sS'swart-complexioned'
p2780
I1065
sS'sepulchres'
p2781
I1938
sS"send'st"
p2782
I1801
sS'banner'
p2783
I3291
sS'him'
p2784
I267
sS'merchandise'
p2785
I4294
sS'cruelly'
p2786
I3841
sS'grievances'
p2787
I1126
sS'cries'
p2788
I1079
sS'pleasures'
p2789
I2398
sS'diamond'
p2790
I3346
sS'cry'
p2791
I1886
sS'impanelled'
p2792
I1505
sS'remove'
p2793
I978
sS'bird'
p2794
I2609
sS'common'
p2795
I1961
sS'physicians'
p2796
I3000
sS'double'
p2797
I2110
sS'dumpish'
p2798
I3259
sS'kill'
p2799
I1387
sS'poisoned'
p2800
I2639
sS'scath'
p2801
I3693
sS'wrote'
p2802
I4225
sS'disperse'
p2803
I2101
sS'sew'
p2804
I3365
sS'bars'
p2805
I952
sS'set'
p2806
I1626
sS'art'
p2807
I56
sS'declines'
p2808
I766
sS'jade'
p2809
I1612
sS'haughty'
p2810
I3432
sS'heares'
p2811
I4290
sS"o'ersways"
p2812
I1867
sS'lion'
p2813
I3531
sS'bare'
p2814
I992
sS'are'
p2815
I212
sS'sea'
p2816
I1455
sS'tender'
p2817
I26
sS'close'
p2818
I3280
sS'bark'
p2819
I2138
sS'comfort'
p2820
I1324
sS'feared'
p2821
I4048
sS'threats'
p2822
I3807
sS'spirits'
p2823
I2227
sS'horrid'
p2824
I4335
sS"enur'd"
p2825
I3431
sS'forlorn'
p2826
I1205
sS'firmest'
p2827
I3502
sS'please'
p2828
I1062
sS'drooping'
p2829
I1029
sS'unpityed'
p2830
I3377
sS'won'
p2831
I1396
sS'happiness'
p2832
I4208
sS'affairs'
p2833
I1732
sS'woe'
p2834
I1119
sS'silly'
p2835
I3534
sS'burned'
p2836
I2474
sS'corruption'
p2837
I4271
sS'thrive'
p2838
I642
sS'endure'
p2839
I3176
sS'knowing'
p2840
I2130
sS'milder'
p2841
I4158
sS'iron'
p2842
I3702
sS'spun'
p2843
I3584
sS'sold'
p2844
I2551
sS'sole'
p2845
I1305
sS'spray'
p2846
I3830
sS'blot'
p2847
I1063
sS'mirth'
p2848
I3989
sS'baleful'
p2849
I3593
sS'alters'
p2850
I2667
sS'beholder'
p2851
I3469
sS'both'
p2852
I1264
sS'toward'
p2853
I464
sS'joyous'
p2854
I4094
sS'grounded'
p2855
I1818
sS'desired'
p2856
I2268
sS'thou'
p2857
I33
sS'frieseth'
p2858
I3708
sS'elizabeths'
p2859
I4223
sS'anon'
p2860
I1199
sS'objects'
p2861
I2610
sS'forgotten'
p2862
I2152
sS'let'
p2863
I305
sS'mean'
p2864
I3885
sS'afar'
p2865
I3050
sS'finds'
p2866
I2300
sS'league'
p2867
I1516
sS'usest'
p2868
I1370
sS'flies'
p2869
I1965
sS'onward'
p2870
I1598
sS'consume'
p2871
I3343
sS'majesty'
p2872
I348
sS'point'
p2873
I1622
sS'liken'
p2874
I3826
sS'sweet'
p2875
I50
sS'loan'
p2876
I312
sS'manners'
p2877
I1354
sS'harbour'
p2878
I4238
sS'except'
p2879
I3110
sS'key'
p2880
I1618
sS'simply'
p2881
I2983
sS'worthless'
p2882
I2146
sS'devil'
p2883
I3060
sS'unworthiness'
p2884
I3146
sS'raise'
p2885
I3523
sS"'scaped"
p2886
I2280
sS'arrest'
p2887
I2024
sS'stamp'
p2888
I2171
sS'devouring'
p2889
I783
sS'acceptance'
p2890
I2954
sS'satire'
p2891
I2425
sS'due'
p2892
I80
sS'guilefull'
p2893
I3903
sS'staineth'
p2894
I1221
sS'quench'
p2895
I4157
sS'secret'
p2896
I665
sS"wood's"
p2897
I2865
sS'pining'
p2898
I3753
sS'visnomy'
p2899
I3890
sS'wait'
p2900
I1756
sS'disconsolate'
p2901
I4366
sS'delights'
p2902
I390
sS'rosy'
p2903
I2678
sS'firm'
p2904
I1856
sS'sithens'
p2905
I3228
sS'flight'
p2906
I4203
sS'gay'
p2907
I1939
sS"'twixt"
p2908
I2044
sS'fire'
p2909
I1470
sS"dial's"
p2910
I2083
sS'hind'
p2911
I4261
sS'cruelty'
p2912
I3607
sS'else'
p2913
I74
sS'awake'
p2914
I1808
sS'bidding'
p2915
I3258
sS'livery'
p2916
I95
sS'mournful'
p2917
I2453
sS'hardness'
p2918
I3949
sS'plants'
p2919
I667
sS'uncertain'
p2920
I3105
sS'cuckoo'
p2921
I3509
sS'frozen'
p2922
I3675
sS'straight'
p2923
I1493
sS'admire'
p2924
I2788
sS'pace'
p2925
I1606
sS'while'
p2926
I1134
sS'ought'
p2927
I3295
sS'rigour'
p2928
I2932
sS'pearls'
p2929
I3448
sS'kissing'
p2930
I1192
sS'eclipses'
p2931
I1265
sS"thought's"
p2932
I3252
sS'guide'
p2933
I3484
sS'acquaintance'
p2934
I2093
sS'youthful'
p2935
I676
sS'costly'
p2936
I3086
sS'debased'
p2937
I4300
sS'merry'
p2938
I3510
sS'wherever'
p2939
I1472
sS'herein'
p2940
I510
sS'confound'
p2941
I1789
sS'refigured'
p2942
I323
sS'itself'
p2943
I3630
sS'lodged'
p2944
I492
sS'owes'
p2945
I2128
sS'churl'
p2946
I70
sS'ready'
p2947
I3267
sS'rid'
p2948
I2994
sS'seest'
p2949
I2013
sS'anguish'
p2950
I3920
sS'fairer'
p2951
I493
sS'around'
p2952
I4099
sS'twofold'
p2953
I1407
sS'trial'
p2954
I3181
sS'estimate'
p2955
I2242
sS'bristly'
p2956
I562
sS'belong'
p2957
I1751
sS'dishonor'
p2958
I3281
sS'engrossed'
p2959
I2923
sS'wherein'
p2960
I931
sS'rules'
p2961
I3940
sS'discourse'
p2962
I3113
sS'esteemed'
p2963
I2368
sS'ruth'
p2964
I2910
sS'miscalled'
p2965
I1910
sS'composition'
p2966
I1484
sS'higher'
p2967
I4287
sS'covetous'
p2968
I2937
sS'used'
p2969
I245
sS'forced'
p2970
I1408
sS'restraint'
p2971
I3860
sS'shinedst'
p2972
I3809
sS'moment'
p2973
I654
sS"th'anvil"
p2974
I3706
sS'moving'
p2975
I997
sS'user'
p2976
I459
sS'wretchcd'
p2977
I2309
sS'mavis'
p2978
I4322
sS'broils'
p2979
I1683
sS'lower'
p2980
I3899
sS'task'
p2981
I1998
sS'sacred'
p2982
I349
sS'accumulate'
p2983
I2692
sS'try'
p2984
I2561
sS'knowen'
p2985
I3958
sS'dancing'
p2986
I2868
sS'lacking'
p2987
I1141
sS'spent'
p2988
I2070
sS"frown'st"
p2989
I3133
sS'honor'
p2990
I3287
sS'morrow'
p2991
I2283
sS'cheer'
p2992
I2399
sS'edge'
p2993
I1700
sS'services'
p2994
I1723
sS'unspotted'
p2995
I4370
sS'starved'
p2996
I2051
sS'rears'
p2997
I3408
sS'stoures'
p2998
I4026
sS'steeled'
p2999
I2591
sS'things'
p3000
I863
sS'watching'
p3001
I3121
sS'abstain'
p3002
I3856
sS'bearer'
p3003
I1600
sS'misintended'
p3004
I3477
sS'chaste'
p3005
I3189
sS'salve'
p3006
I1238
sS'shape'
p3007
I450
sS'hercules'
p3008
I4255
sS'madding'
p3009
I2734
sS'unto'
p3010
I1518
sS'gems'
p3011
I858
sS'tables'
p3012
I2770
sS'cut'
p3013
I1842
sS'reflex'
p3014
I4149
sS'cup'
p3015
I2636
sS'reap'
p3016
I2861
sS'decayed'
p3017
I2118
sS'danger'
p3018
I3691
sS'eager'
p3019
I2699
sS'bred'
p3020
I2535
sS'lifts'
p3021
I344
sS'crying'
p3022
I3052
sS'tormented'
p3023
I3351
sS"either's"
p3024
I1054
sS"tongue's"
p3025
I3013
sS'march'
p3026
I1178
sS'awakes'
p3027
I1531
sS'big'
p3028
I2385
sS'bid'
p3029
I1729
sS'advocate'
p3030
I1281
sS'displace'
p3031
I3545
sS'rondure'
p3032
I867
sS'judgement'
p3033
I614
sS'halt'
p3034
I2266
sS'game'
p3035
I4152
sS'fulness'
p3036
I1708
sS'private'
p3037
I448
sS'dearly'
p3038
I1411
sS'bit'
p3039
I3824
sS'sharpened'
p3040
I1705
sS'wings'
p3041
I3265
sS'like'
p3042
I371
sS'outright'
p3043
I2995
sS'lost'
p3044
I2032
sS'baseness'
p3045
I3246
sS"children's"
p3046
I452
sS'follows'
p3047
I1394
sS'message'
p3048
I3527
sS'dun'
p3049
I2889
sS'strife'
p3050
I2041
sS'shapes'
p3051
I2618
sS'pensiveness'
p3052
I3739
sS'eek'
p3053
I4230
sS'divining'
p3054
I2502
sS'tribes'
p3055
I2519
sS'witness'
p3056
I988
sS'foolish'
p3057
I3018
sS'twixt'
p3058
I4243
sS'canst'
p3059
I225
sS'wrack'
p3060
I3788
sS"janus'"
p3061
I3257
sS'methods'
p3062
I2062
sS'wombs'
p3063
I2391
sS'spring'
p3064
I57
sS'creation'
p3065
I2326
sS'some'
p3066
I162
sS'back'
p3067
I185
sS'saints'
p3068
I4070
sS'sighs'
p3069
I1521
sS'lips'
p3070
I2677
sS'added'
p3071
I2109
sS'mighty'
p3072
I3322
sS'ornaments'
p3073
I3025
sS'apply'
p3074
I3704
sS'priefe'
p3075
I3937
sS'pale'
p3076
I1195
sS'sauces'
p3077
I2707
sS'senseless'
p3078
I3683
sS'savage'
p3079
I2875
sS'sheen'
p3080
I3454
sS'perfection'
p3081
I656
sS'twinkle'
p3082
I3475
sS'fairing'
p3083
I2844
sS'affects'
p3084
I3316
sS'shall'
p3085
I84
sS'oblivion'
p3086
I2776
sS'balmy'
p3087
I2516
sS'modest'
p3088
I4312
sS'quickly'
p3089
I3173
sS'confounds'
p3090
I268
sS'barrenly'
p3091
I523
sS'posterity'
p3092
I177
sS'lark'
p3093
I1100
sS'desiring'
p3094
I1090
sS'forgets'
p3095
I4204
sS'be'
p3096
I71
sS'slept'
p3097
I2185
sS'patient'
p3098
I2576
sS'remembered'
p3099
I194
sS'word'
p3100
I2065
sS'odor'
p3101
I4120
sS'clay'
p3102
I1993
sS'virtues'
p3103
I3456
sS"'this"
p3104
I129
sS'rue'
p3105
I4298
sS'aloft'
p3106
I2104
sS'rent'
p3107
I2824
sS'fee'
p3108
I2754
sS'respite'
p3109
I3373
sS'hostages'
p3110
I3367
sS'nerves'
p3111
I2742
sS'eglantine'
p3112
I3615
sS"batt'ring"
p3113
I1872
sS'shine'
p3114
I1209
sS'saphires'
p3115
I3445
sS'goods'
p3116
I4015
sS'deserved'
p3117
I122
sS'constraint'
p3118
I4124
sS'cheered'
p3119
I673
sS'wrinkles'
p3120
I192
sS'deserves'
p3121
I2122
sS'ambush'
p3122
I1973
sS'pains'
p3123
I3954
sS'together'
p3124
I643
sS'hatred'
p3125
I2320
sS'behaviour'
p3126
I2125
sS'tenants'
p3127
I1508
sS'silence'
p3128
I2190
sS'misplaced'
p3129
I1897
sS'seeing'
p3130
I1952
sS'decease'
p3131
I14
sS'into'
p3132
I1334
sS'amazeth'
p3133
I837
sS'glooming'
p3134
I4086
sS'falsehood'
p3135
I1538
sS'ensue'
p3136
I4079
sS'nothing'
p3137
I207
sS'inconstant'
p3138
I682
sS'piteous'
p3139
I3837
sS'remembrance'
p3140
I288
sS'lesson'
p3141
I2720
sS"sharp'st"
p3142
I2651
sS'odorous'
p3143
I4119
sS'seen'
p3144
I1184
sS'sad'
p3145
I1131
sS'featureless'
p3146
I525
sS'few'
p3147
I2004
sS'spending'
p3148
I2072
sS'question'
p3149
I565
sS'long'
p3150
I779
sS'worshipped'
p3151
I4074
sS'whereto'
p3152
I2686
sS'exceed'
p3153
I2183
sS'suit'
p3154
I2918
sS'pictured'
p3155
I935
sS'translate'
p3156
I2377
sS'warried'
p3157
I3875
sS'himself'
p3158
I469
sS'arise'
p3159
I1693
sS'jacks'
p3160
I2859
sS'quenched'
p3161
I3200
sS'graciously'
p3162
I1002
sS'great'
p3163
I228
sS'healthful'
p3164
I2716
sS'frost'
p3165
I273
sS'vowing'
p3166
I3159
sS'state'
p3167
I679
sS'alive'
p3168
I749
sS'newer'
p3169
I2563
sS'filed'
p3170
I2210
sS'hopes'
p3171
I2728
sS"prince's"
p3172
I4144
sS'line'
p3173
I1990
sS'immortal'
p3174
I2153
sS'pain'
p3175
I1353
sS'dull'
p3176
I1445
sS'usury'
p3177
I310
sS'directed'
p3178
I1433
sS'bevel'
p3179
I2767
sS'immured'
p3180
I2193
sS'helicon'
p3181
I3222
sS"lover's"
p3182
I1843
sS'goodwill'
p3183
I4161
sS"monarch's"
p3184
I2623
sS'us'
p3185
I1357
sS'carefull'
p3186
I3738
sS'politic'
p3187
I2812
sS'betokening'
p3188
I4080
sS'covet'
p3189
I3787
sS'wicked'
p3190
I3392
sS'proves'
p3191
I1552
sS'consumed'
p3192
I2022
sS'vassalage'
p3193
I979
sS'repulse'
p3194
I3425
sS'archers'
p3195
I3472
sS'constant'
p3196
I641
sS'figured'
p3197
I2524
sS'raging'
p3198
I4011
sS'likewise'
p3199
I3561
sS'allayed'
p3200
I1701
sS'influence'
p3201
I664
sS"physicians'"
p3202
I3944
sS'deprive'
p3203
I4095
sS'scarlet'
p3204
I3026
sS'languishing'
p3205
I3934
sS'cure'
p3206
I2584
sS'doest'
p3207
I4227
sS'tuneless'
p3208
I3880
sS'diving'
p3209
I4241
sS'babe'
p3210
I891
sS'surmise'
p3211
I2693
sS'rainy'
p3212
I2284
sS'sullen'
p3213
I1103
sS'sunken'
p3214
I113
sS'impediments'
p3215
I2664
sS'peace'
p3216
I2042
sS'fears'
p3217
I1864
sS'dimmed'
p3218
I762
sS'charactered'
p3219
I2772
sS'dead-doing'
p3220
I3206
sS'altar'
p3221
I3567
sS'hove'
p3222
I4368
sS'confine'
p3223
I2194
sS'inclined'
p3224
I3559
sS'mock'
p3225
I1800
sS'wished'
p3226
I1718
sS'smiles'
p3227
I3491
sS'draw'
p3228
I808
sS'aright'
p3229
I3117
sS'clean'
p3230
I2052
sS'gross'
p3231
I2179
sS'passions'
p3232
I3876
sS'nay'
p3233
I1991
sS'assayed'
p3234
I3950
sS'meaning'
p3235
I3522
sS'lent'
p3236
I4137
sS'makeless'
p3237
I439
sS'wrinkle'
p3238
I2424
sS'sides'
p3239
I2985
sS'paps'
p3240
I4242
sS'bases'
p3241
I2820
sS'suffers'
p3242
I2804
sS'happier'
p3243
I320
sS'happies'
p3244
I315
sS"spend'st"
p3245
I2415
sS'vice'
p3246
I1969
sS'blend'
p3247
I4087
sS'age'
p3248
I188
sS'wards'
p3249
I1536
sS'oppress'
p3250
I4004
sS'implied'
p3251
I3279
sS'heats'
p3252
I3204
sS'came'
p3253
I2946
sS'enrolled'
p3254
I4171
sS'fresh'
p3255
I53
sS'marvel'
p3256
I3124
sS'sounded'
p3257
I3511
sS'once'
p3258
I969
sS'pervert'
p3259
I3851
sS'wilfulness'
p3260
I2691
sS'discontent'
p3261
I2805
sS'melts'
p3262
I3682
sS'highmost'
p3263
I367
sS'tombs'
p3264
I2521
sS"deformed'st"
p3265
I2616
sS'soften'
p3266
I3504
sS'cheerful'
p3267
I3818
sS'windy'
p3268
I2285
sS"work's"
p3269
I1020
sS'lend'
p3270
I205
sS'dainty'
p3271
I3796
sS'amiss'
p3272
I1272
sS"present'st"
p3273
I1972
sS'seemed'
p3274
I2393
sS'graves'
p3275
I2079
sS'tincture'
p3276
I1659
sS'uphold'
p3277
I602
sS'reckoned'
p3278
I2961
sS'young'
p3279
I815
sS'send'
p3280
I987
sS'breaches'
p3281
I4341
sS'obstinate'
p3282
I4009
sS'blaze'
p3283
I3667
sS'breach'
p3284
I3160
sS'pleasing'
p3285
I420
sS'sent'
p3286
I3895
sS'virtuous'
p3287
I705
sS'over-partial'
p3288
I2964
sS'random'
p3289
I3114
sS'assay'
p3290
I3433
sS'garden'
p3291
I4097
sS'torture'
p3292
I1056
sS'bale'
p3293
I3227
sS"'now"
p3294
I2659
sS'panting'
p3295
I4153
sS'confounding'
p3296
I1841
sS'rhyme'
p3297
I696
sS'languished'
p3298
I3070
sS'felicity'
p3299
I4164
sS'scanted'
p3300
I2683
sS'accuse'
p3301
I2684
sS'telling'
p3302
I2073
sS'kindled'
p3303
I3245
sS'timely'
p3304
I3266
sS'entire'
p3305
I3312
sS'false-speaking'
p3306
I2981
sS'meek'
p3307
I3243
sS'iniquity'
p3308
I1828
sS'bonds'
p3309
I2245
sS'queen'
p3310
I2365
sS"eve's"
p3311
I2330
sS'race'
p3312
I1609
sS'verdict'
p3313
I1511
sS'betwixt'
p3314
I1517
sS'noted'
p3315
I2064
sS'watchman'
p3316
I1810
sS"alt'ring"
p3317
I2653
sS'teachest'
p3318
I1365
sS'thereunto'
p3319
I4266
sS'crow'
p3320
I1966
sS'yourself'
p3321
I3274
sS'malice'
p3322
I3884
sS'mishap'
p3323
I4299
sS'waking'
p3324
I2255
sS'jump'
p3325
I1456
sS'ever-fixed'
p3326
I2670
sS'pour'
p3327
I3528
sS'go'
p3328
I566
sS'earth'
p3329
I786
sS'decrees'
p3330
I2647
sS'languor'
p3331
I3964
sS'pity-wanting'
p3332
I2997
sS'victor'
p3333
I1976
sS'precept'
p3334
I3526
sS'length'
p3335
I1073
sS"need'st"
p3336
I2991
sS'labour'
p3337
I3589
sS'saw'
p3338
I2182
sS'indias'
p3339
I3443
sS"man's"
p3340
I1089
sS'henceforth'
p3341
I3783
sS'paying'
p3342
I2825
sS'relent'
p3343
I4303
sS'surcease'
p3344
I3383
sS"seasons'"
p3345
I623
sS'attire'
p3346
I3632
sS'famoused'
p3347
I965
sS'nights'
p3348
I1443
sS"thund'ring"
p3349
I3806
sS'body'
p3350
I932
sS'rich-laden'
p3351
I4293
sS'melancholy'
p3352
I1480
sS"death's"
p3353
I334
sS'led'
p3354
I3956
sS'chose'
p3355
I2356
sS'desires'
p3356
I3334
sS'standeth'
p3357
I4044
sS'forgo'
p3358
I3834
sS'gathered'
p3359
I2798
sS"shadow's"
p3360
I1437
sS'sins'
p3361
I1275
sS'growing'
p3362
I1168
sS'scythe'
p3363
I576
sS'busy'
p3364
I3045
sS'poverty'
p3365
I1379
sS'separation'
p3366
I1358
sS'others'
p3367
I463
sS'dissuade'
p3368
I3019
sS'sing'
p3369
I418
sS'lends'
p3370
I214
sS'adulterate'
p3371
I2759
sS'extreme'
p3372
I2874
sS'convert'
p3373
I645
sS'likened'
p3374
I4000
sS'burthens'
p3375
I2455
sS'receive'
p3376
I2782
sS'metre'
p3377
I747
sS'leaving'
p3378
I330
sS'trusty'
p3379
I3725
sS'survey'
p3380
I1620
sS'defeat'
p3381
I1809
sS'requite'
p3382
I3923
sS'climb'
p3383
I3415
sS'vaunt'
p3384
I677
sS'makes'
p3385
I1042
sS'maker'
p3386
I3330
sS'composed'
p3387
I1769
sS'control'
p3388
I1736
sS'named'
p3389
I3838
sS'apple'
p3390
I2329
sS'heart'
p3391
I822
sS'forbid'
p3392
I805
sS'win'
p3393
I1854
sS"whoe'er"
p3394
I2930
sS'innocence'
p3395
I3289
sS'messengers'
p3396
I1488
sS'uprear'
p3397
I1568
sS'hardy'
p3398
I3430
sS'ran'
p3399
I3810
sS'wit'
p3400
I923
sS'decrease'
p3401
I674
sS'lodging'
p3402
I4215
sS'doubtfully'
p3403
I3605
sS'immortalize'
p3404
I4228
sS'imaginary'
p3405
I1033
sS'cloud'
p3406
I1217
sS'bent'
p3407
I2275
sS"lovers'"
p3408
I1695
sS'fed'
p3409
I3096
sS'sealed'
p3410
I3027
sS'from'
p3411
I6
sS'valorous'
p3412
I4173
sS'remains'
p3413
I2036
sS'hammered'
p3414
I2741
sS'next'
p3415
I2564
sS'saith'
p3416
I2624
sS'doubt'
p3417
I3066
sS'contentment'
p3418
I3743
sS'finishing'
p3419
I3714
sS'doom'
p3420
I649
sS'uneared'
p3421
I167
sS"sun's"
p3422
I958
sS'defendant'
p3423
I1502
sS'deepest'
p3424
I2749
sS'sort'
p3425
I1317
sS'pencil'
p3426
I712
sS'assailed'
p3427
I1397
sS'beauteous'
p3428
I218
sS'freezings'
p3429
I2382
sS'becomes'
p3430
I2755
sS'chide'
p3431
I406
sS'freedom'
p3432
I1498
sS'heir'
p3433
I25
sS'hied'
p3434
I3184
sS'infection'
p3435
I1913
sS'drawen'
p3436
I4187
sS'meant'
p3437
I533
sS'sore'
p3438
I4020
sS'insufficiency'
p3439
I3139
sS'train'
p3440
I3389
sS'sharply'
p3441
I4025
sS'tattered'
p3442
I103
sS'special-blest'
p3443
I1634
sS'harvest'
p3444
I2862
sS'entangle'
p3445
I3775
sS"none'"
p3446
I425
sS'account'
p3447
I1130
sS'works'
p3448
I2112
sS'augment'
p3449
I3759
sS'locks'
p3450
I3453
sS'this'
p3451
I73
sS'meed'
p3452
I4344
sS'challenge'
p3453
I3665
sS'tresses'
p3454
I1936
sS'sight'
p3455
I345
sS'crossed'
p3456
I2926
sS'praise'
p3457
I115
sS'executor'
p3458
I242
sS'meet'
p3459
I291
sS'drops'
p3460
I2517
sS'befits'
p3461
I1392
sS'proof'
p3462
I2562
sS'thralled'
p3463
I2806
sS'wearing'
p3464
I3643
sS'enfeebled'
p3465
I2240
sS'weaker'
p3466
I3780
sS'council'
p3467
I3598
sS'ushers'
p3468
I2913
sS'process'
p3469
I2473
sS'rapt'
p3470
I3814
sS'escaped'
p3471
I4151
sS'salving'
p3472
I1273
sS'unswept'
p3473
I1678
sS'bend'
p3474
I3926
sS'sought'
p3475
I1110
sS'purposed'
p3476
I2287
sS'paws'
p3477
I780
sS'trumpet'
p3478
I3513
sS'darkening'
p3479
I2416
sS'counterfeit'
p3480
I706
sS'lamb'
p3481
I2378
sS'amend'
p3482
I4081
sS'conceit'
p3483
I683
sS'compounded'
p3484
I1994
sS'falls'
p3485
I2801
sS'pure'
p3486
I1971
sS"sickle's"
p3487
I2680
sS'purpose'
p3488
I851
sS'holds'
p3489
I657
sS'thrall'
p3490
I3201
sS'moods'
p3491
I2324
sS'pleasance'
p3492
I3493
sS'blessings'
p3493
I2205
sS'fools'
p3494
I2815
sS'slandering'
p3495
I2851
sS'mightst'
p3496
I1402
sS'forsaken'
p3497
I2925
sS'sin'
p3498
I1815
sS'stock'
p3499
I3861
sS'watery'
p3500
I1853
sS'gainer'
p3501
I2260
sS'attend'
p3502
I1465
sS'watch'
p3503
I1725
sS'act'
p3504
I3158
sS'tied'
p3505
I2971
sS'bellamores'
p3506
I4105
sS'permanent'
p3507
I4270
sS'abuse'
p3508
I216
sS'ease'
p3509
I3234
sS'fits'
p3510
I2751
sS'yielded'
p3511
I3540
sS"worth's"
p3512
I2676
sS'tomb'
p3513
I173
sS'physic'
p3514
I1243
sS'bankrupt'
p3515
I1920
sS"bear'st"
p3516
I471
sS'hinders'
p3517
I3420
sS"blam'd"
p3518
I3801
sS'untrimmed'
p3519
I767
sS'bind'
p3520
I2940
sS'sit'
p3521
I1326
sS'lines'
p3522
I709
sS'feels'
p3523
I4126
sS'element'
p3524
I3999
sS'chief'
p3525
I487
sS'admiring'
p3526
I1773
sS'writ'
p3527
I920
sS'allow'
p3528
I809
sS'pyramids'
p3529
I2785
sS'favourites'
p3530
I956
sS'looking'
p3531
I1032
sS'counted'
p3532
I2839
sS'breast'
p3533
I882
sS'neglect'
p3534
I2432
sS'beauties'
p3535
I571
sS'stamped'
p3536
I2586
sS'transfix'
p3537
I1791
sS'attain'
p3538
I4317
sS'move'
p3539
I1530
sS'damsel'
p3540
I3478
sS'widowed'
p3541
I2392
sS'rebellious'
p3542
I3299
sS'briar'
p3543
I3612
sS'offences'
p3544
I2554
sS'beguile'
p3545
I164
sS'dearest'
p3546
I1321
sS'enclose'
p3547
I2349
sS'trophies'
p3548
I1153
sS'tyrant'
p3549
I693
sS'flattering'
p3550
I3906
sS'polished'
p3551
I2220
sS'thyself'
p3552
I885
sS'faileth'
p3553
I4041
sS'badges'
p3554
I1469
sS'bunch'
p3555
I4113
sS'perfect'
p3556
I908
sS'refusest'
p3557
I1374
sS'frailties'
p3558
I2544
sS'brood'
p3559
I784
sS'whereon'
p3560
I666
sS'unstained'
p3561
I1970
sS'meede'
p3562
I3611
sS'lo'
p3563
I338
sS'brook'
p3564
I3218
sS'whereof'
p3565
I1641
sS'banquet'
p3566
I1525
sS'themes'
p3567
I2490
sS'exceeding'
p3568
I3674
sS'restrain'
p3569
I3853
sS'tyrants'
p3570
I258
sS'distraction'
p3571
I2735
sS'attaint'
p3572
I2162
sS'endurence'
p3573
I4045
sS'tickled'
p3574
I2866
sS'ruined'
p3575
I2011
sS'fountains'
p3576
I1260
sS'assoyle'
p3577
I3378
sS'bolder'
p3578
I4198
sS'snaky'
p3579
I4332
sS'flattery'
p3580
I1428
sS'spell'
p3581
I3867
sS"th'author"
p3582
I3564
sS'ship'
p3583
I3723
sS'sweets'
p3584
I392
sS'stout'
p3585
I1875
sS'hands'
p3586
I1057
sS'front'
p3587
I2446
sS"owner's"
p3588
I2444
sS'kindness'
p3589
I1314
sS'cage'
p3590
I4127
sS'embaseth'
p3591
I3409
sS'damasked'
p3592
I2894
sS'strive'
p3593
I2589
sS'empress'
p3594
I3712
sS'comedy'
p3595
I3988
sS'footstool'
p3596
I3930
sS'profound'
p3597
I2594
sS'immoral'
p3598
I4305
sS'eased'
p3599
I1049
sS'feast'
p3600
I1522
sS'mouthed'
p3601
I2080
sS'trimmed'
p3602
I1891
sS'slide'
p3603
I1473
sS'truth'
p3604
I644
sS'beasts'
p3605
I3688
sS'accompanied'
p3606
I4315
sS'giving'
p3607
I2232
sS'gazing'
p3608
I2829
sS'medicines'
p3609
I3936
sS'legions'
p3610
I3195
sS'treads'
p3611
I2897
sS'lie'
p3612
I1150
sS'pitying'
p3613
I2908
sS'debarred'
p3614
I1048
sS'bondage'
p3615
I4123
sS'doing'
p3616
I2265
sS"princes'"
p3617
I957
sS'ills'
p3618
I2715
sS'alteration'
p3619
I2666
sS'society'
p3620
I1916
sS'decays'
p3621
I1878
sS'exceeded'
p3622
I1166
sS'our'
p3623
I1298
sS'bay'
p3624
I2966
sS'tenth'
p3625
I1346
sS'wander'
p3626
I3728
sS'special'
p3627
I1636
sS'might'
p3628
I9
sS'respects'
p3629
I1556
sS'captiving'
p3630
I3403
sS'mew'
p3631
I4285
sS'plods'
p3632
I1584
sS'confess'
p3633
I1295
sS'sufficed'
p3634
I1331
sS'bad'
p3635
I1928
sS'mate'
p3636
I4140
sS'messenger'
p3637
I3508
sS'wondrous'
p3638
I2484
sS'impart'
p3639
I2000
sS'poets'
p3640
I1179
sS'fondly'
p3641
I4121
sS'red'
p3642
I2887
sS"one's"
p3643
I4211
sS'afford'
p3644
I2126
sS'stare'
p3645
I3781
sS'await'
p3646
I4192
sS'perish'
p3647
I522
sS'heretics'
p3648
I3914
sS'walk'
p3649
I2871
sS'embrew'
p3650
I3695
sS'greedy'
p3651
I3741
sS'darkly'
p3652
I1435
sS'embassy'
p3653
I1478
sS'gaol'
p3654
I2931
sS'hew'
p3655
I3250
sS'canker'
p3656
I1267
sS'tempt'
p3657
I3907
sS'shun'
p3658
I2704
sS'yore'
p3659
I1944
sS'sdeigne'
p3660
I3282
sS'cured'
p3661
I2718
sS'her'
p3662
I182
sS'spill'
p3663
I3486
sS'misuse'
p3664
I3163
sS'overthrow'
p3665
I2286
sS'could'
p3666
I328
sS'times'
p3667
I321
sS'counterpart'
p3668
I2203
sS'keen'
p3669
I791
sS"sorrow's"
p3670
I3817
sS'cures'
p3671
I1239
sS'mortal'
p3672
I361
sS'hence'
p3673
I578
sS'wrongfully'
p3674
I1902
sS'designed'
p3675
I4218
sS'miser'
p3676
I2043
sS'rudely'
p3677
I1900
sS'soundless'
p3678
I2144
sS'finest'
p3679
I3452
sS'new-appearing'
p3680
I346
sS'blown'
p3681
I4035
sS'pitied'
p3682
I3034
sS'savour'
p3683
I2826
sS'juncats'
p3684
I4248
sS'powerful'
p3685
I1673
sS'loveliness'
p3686
I201
sS'feasts'
p3687
I1625
sS"learned's"
p3688
I2107
sS'mocks'
p3689
I3994
sS'presume'
p3690
I894
sS'such'
p3691
I468
sS'unworthy'
p3692
I3278
sS'reigned'
p3693
I2542
sS'quality'
p3694
I622
sS"run'st"
p3695
I3049
sS"love'"
p3696
I1181
sS'sadly'
p3697
I385
sS'humbless'
p3698
I3242
sS'bears'
p3699
I1252
sS'unknown'
p3700
I2675
sS'vulgar'
p3701
I1339
sS'seat'
p3702
I1401
sS'comes'
p3703
I2253
sS'fray'
p3704
I3975
sS'intelligence'
p3705
I2236
sS'prouder'
p3706
I2305
sS'felly'
p3707
I4005
sS'travelled'
p3708
I1836
sS'badness'
p3709
I2769
sS'fairest'
p3710
I5
sS'painful'
p3711
I967
sS'prone'
p3712
I3015
sS'malady'
p3713
I3933
sS'stars'
p3714
I615
sS'portrait'
p3715
I3480
sS"were't"
p3716
I2817
sS'dreary'
p3717
I3968
sS'perforce'
p3718
I2933
sS'woo'
p3719
I3033
sS'meeds'
p3720
I3658
sS'makest'
p3721
I3352
sS'gladness'
p3722
I3812
sS'herself'
p3723
I2919
sS'commence'
p3724
I1284
sS'remember'
p3725
I1989
sS'steel'
p3726
I1879
sS'lightening'
p3727
I3345
sS'unlooked'
p3728
I384
sS'beseen'
p3729
I3631
sS'beseem'
p3730
I2917
sS'steed'
p3731
I4281
sS'riches'
p3732
I2248
sS'see'
p3733
I148
sS'bed'
p3734
I1010
sS'wilfully'
p3735
I2140
sS'jollity'
p3736
I1890
sS'rack'
p3737
I1201
sS'transgression'
p3738
I2740
sS"body's"
p3739
I1021
sS'loves'
p3740
I1296
sS'light'
p3741
I335
sS'dumb'
p3742
I916
sS"lily's"
p3743
I2410
sS'counting'
p3744
I2048
sS'devotion'
p3745
I3560
sS'descriptions'
p3746
I2494
sS'drunk'
p3747
I2725
sS'accusing'
p3748
I1747
sS'enforced'
p3749
I2169
sS'beggared'
p3750
I1924
sS'false'
p3751
I825
sS"forget'st"
p3752
I2413
sS'beggar'
p3753
I1889
sS'trusting'
p3754
I4040
sS'gently'
p3755
I2856
sS'tide'
p3756
I4226
sS'presenteth'
p3757
I660
sS'thereto'
p3758
I3494
sS'prophetic'
p3759
I2504
sS'torment'
p3760
I1360
sS'have'
p3761
I617
sS're-survey'
p3762
I1160
sS'need'
p3763
I1601
sS'trembling'
p3764
I3211
sS'she'
p3765
I168
sS'sings'
p3766
I429
sS'bastard'
p3767
I1933
sS'afraid'
p3768
I3424
sS'thessalian'
p3769
I3648
sS'skillful'
p3770
I4216
sS'bough'
p3771
I2454
sS'reeks'
p3772
I2895
sS'able'
p3773
I2217
sS'gravity'
p3774
I1563
sS'outward'
p3775
I713
sS'adjunct'
p3776
I2298
sS'field'
p3777
I88
sS'which'
p3778
I246
sS'deprave'
p3779
I3653
sS'willful'
p3780
I3707
sS'lily'
p3781
I3205
sS'adieu'
p3782
I1727
sS'unless'
p3783
I382
sS'storm'
p3784
I3335
sS'centre'
p3785
I3081
sS'tenure'
p3786
I1807
sS'privilage'
p3787
I1750
sS"time's"
p3788
I577
sS'harmful'
p3789
I2565
sS'offend'
p3790
I403
sS'lust'
p3791
I2872
sS'vengeance'
p3792
I3361
sS'amongst'
p3793
I3573
sS'darts'
p3794
I3264
sS'durefull'
p3795
I3306
sS'device'
p3796
I3685
sS'gait'
p3797
I2870
sS'expired'
p3798
I1019
sS'fervent'
p3799
I3699
sS"husband's"
p3800
I451
sS'statute'
p3801
I2943
sS'deny'
p3802
I472
sS'weene'
p3803
I3449
sS'wherewith'
p3804
I1785
sS'gather'
p3805
I4279
sS'stronger'
p3806
I1072
sS'disease'
p3807
I3101
sS'face'
p3808
I150
sS'looked'
p3809
I2503
sS'occasion'
p3810
I3987
sS'constrain'
p3811
I4319
sS'boldened'
p3812
I3290
sS'painting'
p3813
I1830
sS'outlive'
p3814
I1350
sS'tear'
p3815
I1143
sS'impression'
p3816
I2585
sS'slandered'
p3817
I2841
sS"th'utmost"
p3818
I3928
sS'wilful'
p3819
I1376
sS'couldst'
p3820
I131
sS"th'image"
p3821
I3340
sS'burden'
p3822
I2388
sS'poesy'
p3823
I2102
sS'portliness'
p3824
I3288
sS'bring'
p3825
I1278
sS"many's"
p3826
I2322
sS'changeful'
p3827
I4038
sS'utter'
p3828
I3921
sS'fear'
p3829
I432
sS'obsequious'
p3830
I1144
sS'filthy'
p3831
I4309
sS'pleased'
p3832
I3010
sS'handmaid'
p3833
I4289
sS'envy'
p3834
I1978
sS'untimely'
p3835
I4274
sS'knowledge'
p3836
I638
sS'chiding'
p3837
I3073
sS'philomel'
p3838
I2447
sS'mute'
p3839
I2191
sS'unions'
p3840
I405
sS'rash'
p3841
I3283
sS'intreat'
p3842
I3601
sS'baser'
p3843
I3301
sS"there's"
p3844
I3099
sS"poets'"
p3845
I3662
sS'tune'
p3846
I3012
sS'marriage'
p3847
I2663
sS'inhabit'
p3848
I1934
sS'inferior'
p3849
I2137
sS'exchanged'
p3850
I2540
sS'accessary'
p3851
I1289
sS'injuries'
p3852
I2262
sS'insight'
p3853
I4239
sS'handle'
p3854
I3209
sS'undivided'
p3855
I1297
sS'aread'
p3856
I3716
sS'wishing'
p3857
I1085
sS"the'accomplishment"
p3858
I3718
sS'lucky'
p3859
I4295
sS'bear'
p3860
I24
sS'sightless'
p3861
I1035
sS'six'
p3862
I4275
sS'abundance'
p3863
I42
sS'made'
p3864
I141
sS"o'erlook"
p3865
I2161
sS'words'
p3866
I990
sS'durst'
p3867
I1935
sS"maker's"
p3868
I3592
sS'leases'
p3869
I2811
sS'chips'
p3870
I2867
sS'rite'
p3871
I906
sS'nearly'
p3872
I1414
sS'endless'
p3873
I2513
sS'heretic'
p3874
I2809
sS"stick'st"
p3875
I482
sS'glory'
p3876
I962
sS'ended'
p3877
I4018
sS'gust'
p3878
I2635
sS'imperious'
p3879
I3925
sS'married'
p3880
I404
sS'calling'
p3881
I3260
sS'overflowing'
p3882
I3858
sS'painter'
p3883
I927
sS'dangerous'
p3884
I4090
sS'cruelness'
p3885
I3538
sS'fixed'
p3886
I871
sS'deceived'
p3887
I2318
sS'spotted'
p3888
I3973
sS'strengthened'
p3889
I2440
sS'sluttish'
p3890
I1675
sS'untrue'
p3891
I2002
sS'outbraves'
p3892
I2341
sS'farthest'
p3893
I1453
sS'prayers'
p3894
I2528
sS'frame'
p3895
I247
sS'shake'
p3896
I755
sS'accord'
p3897
I3697
sS'freeze'
p3898
I3998
sS'legacy'
p3899
I203
sS'merits'
p3900
I3024
sS'changes'
p3901
I2590
sS'desperate'
p3902
I3109
sS'greece'
p3903
I3870
sS'sleeping'
p3904
I3198
sS'despoiled'
p3905
I3961
sS"intermixed'"
p3906
I2436
sS'allured'
p3907
I3795
sS'battery'
p3908
I3434
sS'creating'
p3909
I2629
sS'tripping'
p3910
I3192
sS'error'
p3911
I2682
sS'closet'
p3912
I1501
sS'placed'
p3913
I1627
sS"master's"
p3914
I3918
sS'joys'
p3915
I3331
sS'vows'
p3916
I2648
sS'brunt'
p3917
I3399
sS'worship'
p3918
I3137
sS'favor'
p3919
I4051
sS'written'
p3920
I986
sS'converted'
p3921
I372
sS'boughs'
p3922
I2006
sS'progress'
p3923
I2085
sS'neither'
p3924
I715
sS'besmeared'
p3925
I1676
sS'complement'
p3926
I3591
sS'wiry'
p3927
I2858
sS'stoutly'
p3928
I4282
sS'attention'
p3929
I4283
sS'weighing'
p3930
I4166
sS'plenteous'
p3931
I4135
sS'amen'
p3932
I2213
sS'dressings'
p3933
I2787
sS'joy'
p3934
I389
sS'sorrow'
p3935
I1248
sS'eschew'
p3936
I4082
sS'beweep'
p3937
I1078
sS'within'
p3938
I65
sS'willing'
p3939
I313
sS'never-resting'
p3940
I265
sS'antick'
p3941
I4167
sS'spoil'
p3942
I1883
sS'precious'
p3943
I1118
sS'weary'
p3944
I365
sS'swift'
p3945
I1475
sS'thank'
p3946
I2127
sS'hits'
p3947
I2747
sS'weeks'
p3948
I2681
sS'instant'
p3949
I1635
sS'limits'
p3950
I1450
sS'trump'
p3951
I3668
sS'taking'
p3952
I3317
sS'tyraness'
p3953
I3358
sS'vanishing'
p3954
I1839
sS'minds'
p3955
I2654
sS'preyed'
p3956
I4037
sS'ruminate'
p3957
I1860
sS'assure'
p3958
I2583
sS'admit'
p3959
I2665
sS'devour'
p3960
I785
sS'figures'
p3961
I2412
sS'lordeth'
p3962
I3354
sS"store's"
p3963
I2963
sS'runneth'
p3964
I3496
sS'conquered'
p3965
I2281
sS'passing'
p3966
I3468
sS'lofty'
p3967
I553
sS"beds'"
p3968
I3030
sS'aye'
p3969
I2534
sS'comment'
p3970
I663
sS'castles'
p3971
I3427
sS'torn'
p3972
I3156
sS'statues'
p3973
I1680
sS'unfolding'
p3974
I1638
sS'shewed'
p3975
I3761
sS'melting'
p3976
I3811
sS'high'
p3977
I723
sS'commend'
p3978
I1948
sS"wretch's"
p3979
I2033
sS'laugh'
p3980
I3364
sS'forbear'
p3981
I1400
sS'kings'
p3982
I1106
sS'accursed'
p3983
I4336
sS'unclean'
p3984
I3627
sS'blinded'
p3985
I3332
sS'grind'
p3986
I2559
sS'death-bed'
p3987
I2020
sS'second'
p3988
I1762
sS'addition'
p3989
I850
sS'wills'
p3990
I2764
sS'endite'
p3991
I3256
sS"friend'"
p3992
I1578
sS'gaze'
p3993
I255
sS'slowly'
p3994
I4346
sS'certain'
p3995
I2661
sS'poet'
p3996
I732
sS'waste'
p3997
I68
sS'tillage'
p3998
I171
sS'divinely'
p3999
I4068
sS'tyranny'
p4000
I2656
sS'senses'
p4001
I3017
sS'proudest'
p4002
I2135
sS"war's"
p4003
I1685
sS'painted'
p4004
I707
sS'deer'
p4005
I4155
sS'sufficient'
p4006
I3719
sS'releasing'
p4007
I2243
sS'queene'
p4008
I4288
sS'cockatrices'
p4009
I3929
sS"hear'st"
p4010
I387
sS'lets'
p4011
I601
sS'love-suit'
p4012
I2959
sS'pageants'
p4013
I3982
sS'last'
p4014
I1929
sS'general'
p4015
I2302
sS'present'
p4016
I1529
sS"fram'd"
p4017
I4217
sS'debtor'
p4018
I2945
sS'main'
p4019
I1783
sS'sourly'
p4020
I1291
sS'surety-like'
p4021
I2938
sS'fearful'
p4022
I1882
sS'coals'
p4023
I4338
sS'means'
p4024
I698
sS'addeth'
p4025
I2955
sS'as'
p4026
I20
sS'three-fold'
p4027
I2927
sS'harden'
p4028
I3681
sS'riper'
p4029
I18
sS'wild'
p4030
I2456
sS'damsels'
p4031
I4102
sS'at'
p4032
I498
sS'sith'
p4033
I3628
sS'dight'
p4034
I3262
sS'goodness'
p4035
I2719
sS'ripe'
p4036
I2226
sS'self-pleasing'
p4037
I3296
sS'almost'
p4038
I1094
sS'ne'
p4039
I3285
sS'up-locked'
p4040
I1619
sS'thus'
p4041
I1043
sS'entice'
p4042
I4256
sS'over-goes'
p4043
I2458
sS'pleasauns'
p4044
I4369
sS'askew'
p4045
I3325
sS'turns'
p4046
I941
sS'lambs'
p4047
I2376
sS'sits'
p4048
I461
sS'new-fangled'
p4049
I2294
sS'stands'
p4050
I1797
sS'all-eating'
p4051
I118
sS'scorneth'
p4052
I4031
sS'dilate'
p4053
I4146
sS'perhaps'
p4054
I1995
sS'began'
p4055
I4061
sS'cross'
p4056
I1250
sS'spends'
p4057
I2131
sS'largess'
p4058
I221
sS'adverse'
p4059
I1283
sS'concealed'
p4060
I2259
sS'strange'
p4061
I1643
sS'duteous'
p4062
I373
sS'merciful'
p4063
I3932
sS'kingly'
p4064
I2633
sS'party'
p4065
I1282
sS'nursed'
p4066
I2091
sS'well-contented'
p4067
I1156
sS'blooms'
p4068
I1658
sS'witless'
p4069
I4324
sS'toil'
p4070
I1012
sS'flesh'
p4071
I1444
sS'shames'
p4072
I1805
sS'huntsman'
p4073
I4150
sS'lurkest'
p4074
I3232
sS'upon'
p4075
I204
sS'effect'
p4076
I286
sS'outcast'
p4077
I1077
sS'beast'
p4078
I1581
sS'weigh'
p4079
I2746
sS"december's"
p4080
I2384
sS'fierce'
p4081
I789
sS'judgment'
p4082
I1694
sS'betray'
p4083
I2373
sS'shamed'
p4084
I2003
sS'keep'
p4085
I445
sS'audit'
p4086
I236
sS'scarcely'
p4087
I1562
sS'possesseth'
p4088
I1814
sS'off'
p4089
I1060
sS'mention'
p4090
I3636
sS'i'
p4091
I489
sS'approve'
p4092
I1421
sS'colour'
p4093
I2434
sS'love-afamished'
p4094
I4360
sS'lodwick'
p4095
I3717
sS'thought'
p4096
I490
sS'amends'
p4097
I2429
sS'spectator'
p4098
I3981
sS'drowns'
p4099
I2814
sS'tibey'
p4100
I2337
sS'fail'
p4101
I3439
sS'builded'
p4102
I2800
sS'twire'
p4103
I1068
sS'bending'
p4104
I2261
sS'restore'
p4105
I2936
sS'feathered'
p4106
I3041
sS'stores'
p4107
I1927
sS'kiss'
p4108
I2860
sS'liker'
p4109
I708
sS'discord'
p4110
I4128
sS"o'erpressed"
p4111
I2992
sS'boot'
p4112
I2952
sS"circle's"
p4113
I4058
sS'debateth'
p4114
I687
sS'should'
p4115
I17
sS'interim'
p4116
I1714
sS'books'
p4117
I3556
sS"lookers'"
p4118
I3547
sS'laurel'
p4119
I3640
sS'skill'
p4120
I717
sS'thither'
p4121
I3185
sS'warrantise'
p4122
I3142
sS'afflicted'
p4123
I3241
sS'web'
p4124
I3577
sS'now'
p4125
I55
sS'panther'
p4126
I3974
sS'pompous'
p4127
I4250
sS'bell'
p4128
I1983
sS'smith'
p4129
I3700
sS'day'
p4130
I368
sS'reasons'
p4131
I1565
sS'add'
p4132
I1959
sS'book'
p4133
I973
sS'unmoved'
p4134
I2332
sS'wet'
p4135
I431
sS'destroy'
p4136
I4017
sS"infant's"
p4137
I3047
sS'smart'
p4138
I3233
sS'rearward'
p4139
I2282
sS'match'
p4140
I4367
sS'raven'
p4141
I2847
sS'long-lacked'
p4142
I3224
sS'wooed'
p4143
I1968
sS'gods'
p4144
I3599
sS'increased'
p4145
I4148
sS'fate'
p4146
I1083
sS'worlds'
p4147
I3971
sS'testy'
p4148
I2999
sS'devised'
p4149
I2173
sS'recure'
p4150
I3552
sS"who's"
p4151
I1344
sS'rind'
p4152
I3619
sS'crushed'
p4153
I1832
sS'smother'
p4154
I1520
sS'royalty'
p4155
I4249
sS'five'
p4156
I1766
sS'know'
p4157
I608
sS'knot'
p4158
I3318
sS'press'
p4159
I2996
sS'incessant'
p4160
I3435
sS'woeful'
p4161
I3071
sS'loss'
p4162
I1244
sS'necessary'
p4163
I2532
sS"garments'"
p4164
I2304
sS'inviting'
p4165
I2808
sS'redound'
p4166
I3498
sS'starry'
p4167
I3213
sS'perpetual'
p4168
I1711
sS'rich-proud'
p4169
I1847
sS'admitted'
p4170
I2957
sS'dove'
p4171
I2619
sS'arising'
p4172
I1098
sS'heed'
p4173
I2360
sS'lose'
p4174
I774
sS'bane'
p4175
I3844
sS'become'
p4176
I2915
sS'dispraise'
p4177
I2351
sS'soft'
p4178
I3208
sS'indigest'
p4179
I2625
sS'overcast'
p4180
I3730
sS'therein'
p4181
I943
sS'fruitless'
p4182
I3590
sS'shed'
p4183
I4114
sS'because'
p4184
I1419
sS'workings'
p4185
I2327
sS'portly'
p4186
I3276
sS'peer'
p4187
I4143
sS'thief'
p4188
I1292
sS'authority'
p4189
I1906
sS'self'
p4190
I49
sS'hair'
p4191
I3773
sS'shew'
p4192
I3886
sS'growth'
p4193
I2448
sS'home'
p4194
I1803
sS'transport'
p4195
I2690
sS'affections'
p4196
I2553
sS"heaven's"
p4197
I869
sS'leaf'
p4198
I3639
sS'lead'
p4199
I1406
sS'broad'
p4200
I2141
sS'lean'
p4201
I2199
sS'eternize'
p4202
I4232
sS'whole'
p4203
I2948
sS'leap'
p4204
I1463
sS'does'
p4205
I4292
sS'passion'
p4206
I818
sS'masked'
p4207
I1216
sS"o'ertake"
p4208
I1228
sS'ensample'
p4209
I3329
sS'thinly'
p4210
I1628
sS'noise'
p4211
I3517
sS'obey'
p4212
I3897
sS'slight'
p4213
I1352
sS'rock'
p4214
I4013
sS'how'
p4215
I125
sS'expire'
p4216
I2019
sS'belay'
p4217
I3428
sS'worthy'
p4218
I1008
sS'instinct'
p4219
I1586
sS'choked'
p4220
I3859
sS'stay'
p4221
I681
sS"travel's"
p4222
I1573
sS'worths'
p4223
I1821
sS'hiding'
p4224
I1233
sS'gained'
p4225
I3762
sS'waving'
p4226
I4291
sS'throng'
p4227
I3396
sS"murd'rous"
p4228
I467
sS'rare'
p4229
I862
sS'engines'
p4230
I3438
sS'linger'
p4231
I2288
sS'universe'
p4232
I2547
sS'harder'
p4233
I2924
sS'swear'
p4234
I2903
sS'sweat'
p4235
I3677
sS'entrapped'
p4236
I3784
sS"adorn'd"
p4237
I4177
sS'fearless'
p4238
I3388
sS'beshrew'
p4239
I2920
sS'outstripped'
p4240
I1164
sS'reckoning'
p4241
I2646
sS'ways'
p4242
I4064
sS'letters'
p4243
I3865
sS'depart'
p4244
I324
sS'owe'
p4245
I1980
sS'wakened'
p4246
I2695
sS'repair'
p4247
I159
sS'guard'
p4248
I1569
sS'weather'
p4249
I4050
sS'promise'
p4250
I1224
sS'captived'
p4251
I3846
sS'female'
p4252
I3058
sS'lawful'
p4253
I1286
sS'prefixed'
p4254
I3892
sS'monuments'
p4255
I1670
sS'thence'
p4256
I1549
sS'gazeth'
p4257
I829
sS'suborned'
p4258
I2837
sS'fired'
p4259
I3327
sS'lasting'
p4260
I2771
sS'degree'
p4261
I4076
sS'whom'
p4262
I521
sS'friends'
p4263
I1086
sS'pitty'
p4264
I3799
sS'soil'
p4265
I1855
sS'hush'
p4266
I2452
sS'trenches'
p4267
I89
sS'smit'
p4268
I3709
sS'spread'
p4269
I955
sS'dropping'
p4270
I3503
sS'inner'
p4271
I3230
sS'heresy'
p4272
I3915
sS"lov'd"
p4273
I4077
sS"grief's"
p4274
I1074
sS'function'
p4275
I2605
sS'ivory'
p4276
I3450
sS'buy'
p4277
I3095
sS'well-tuned'
p4278
I399
sS'hoisted'
p4279
I2689
sS'surpassing'
p4280
I4139
sS'brand'
p4281
I2570
sS'close-bleeding'
p4282
I3217
sS'invocate'
p4283
I1347
sS"wand'ring"
p4284
I2673
sS'hated'
p4285
I2881
sS'prophecies'
p4286
I2500
sS'plague'
p4287
I2622
sS'gain'
p4288
I1423
sS'captives'
p4289
I3212
sS'beat'
p4290
I3602
sS'delivers'
p4291
I2607
sS'highest'
p4292
I4043
sS'eat'
p4293
I81
sS'bud'
p4294
I64
sS'he'
p4295
I175
sS'count'
p4296
I137
sS'allurement'
p4297
I3694
sS'tossed'
p4298
I3722
sS'supposeth'
p4299
I4032
sS'evident'
p4300
I476
sS'whether'
p4301
I1325
sS'flit'
p4302
I3829
sS'grieve'
p4303
I1127
sS'signed'
p4304
I4262
sS"eyes'"
p4305
I2970
sS'record'
p4306
I1688
sS'cruel'
p4307
I47
sS'catching'
p4308
I4340
sS'limit'
p4309
I2166
sS'conceive'
p4310
I3308
sS'monument'
p4311
I2156
sS'minutes'
p4312
I626
sS'display'
p4313
I4245
sS'whylest'
p4314
I3815
sS'furies'
p4315
I4330
sS'rightly'
p4316
I2334
sS'play'
p4317
I259
sS'deaths'
p4318
I1668
sS'devise'
p4319
I1999
sS'accounts'
p4320
I3656
sS'measure'
p4321
I1953
sS'dearth'
p4322
I3085
sS'denote'
p4323
I3120
sS'beats'
p4324
I4008
sS'lived'
p4325
I1931
sS'liberties'
p4326
I4122
sS'dyed'
p4327
I2431
sS'preposterously'
p4328
I2546
sS'sparks'
p4329
I4339
sS'partly'
p4330
I2604
sS'self-killed'
p4331
I309
sS'proceeds'
p4332
I2907
sS'endeared'
p4333
I1138
sS'love-pined'
p4334
I3226
sS'bones'
p4335
I1159
sS'renowned'
p4336
I3873
sS'compared'
p4337
I2293
sS'didst'
p4338
I1225
sS'deadly'
p4339
I3263
sS'oak'
p4340
I3305
sS'forests'
p4341
I2470
sS'smiling'
p4342
I2803
sS'slumbers'
p4343
I1799
sS'other'
p4344
I589
sS'prizing'
p4345
I3048
sS'sick'
p4346
I2119
sS'unlettered'
p4347
I2215
sS'behold'
p4348
I545
sS'out'
p4349
I678
sS'scandal'
p4350
I2587
sS'illusion'
p4351
I3463
sS'dresses'
p4352
I3769
sS'pupil'
p4353
I711
sS'semblance'
p4354
I590
sS'kinds'
p4355
I2543
sS'secretly'
p4356
I3863
sS'ears'
p4357
I3006
sS'oppression'
p4358
I1050
sS'variation'
p4359
I2058
sS'insults'
p4360
I2520
sS'methinks'
p4361
I618
sS'chance'
p4362
I770
sS'longing'
p4363
I3100
sS'earthly'
p4364
I734
sS'pacify'
p4365
I3379
sS'gloriously'
p4366
I4181
sS'astronomy'
p4367
I616
sS'veil'
p4368
I2358
sS'tan'
p4369
I2652
sS'ghost'
p4370
I2233
sS'stirred'
p4371
I855
sS'misdeem'
p4372
I4047
sS'self-example'
p4373
I3037
sS'ranks'
p4374
I1177
sS"he's"
p4375
I1838
sS'love-kindling'
p4376
I3174
sS'jewel'
p4377
I1040
sS'abhor'
p4378
I3144
sS'entreat'
p4379
I3244
sS'look'
p4380
I153
sS'lift'
p4381
I3832
sS'thrivers'
p4382
I2830
sS"sway'st"
p4383
I2855
sS'vassal'
p4384
I1739
sS'understand'
p4385
I3911
sS'accidents'
p4386
I2644
sS'indirectly'
p4387
I1919
sS'augmented'
p4388
I3679
ssS'rhymepairs'
p4389
(lp4390
(lp4391
S'increase'
p4392
aS'decease'
p4393
aa(lp4394
S'die'
p4395
aS'memory'
p4396
aa(lp4397
S'eyes'
p4398
aS'lies'
p4399
aa(lp4400
S'fuel'
p4401
aS'cruel'
p4402
aa(lp4403
S'ornament'
p4404
aS'content'
p4405
aa(lp4406
S'spring'
p4407
aS'niggarding'
p4408
aa(lp4409
S'be'
p4410
aS'thee'
p4411
aa(lp4412
S'brow'
p4413
aS'now'
p4414
aa(lp4415
S'field'
p4416
aS'held'
p4417
aa(lp4418
S'lies'
p4419
aS'eyes'
p4420
aa(lp4421
S'days'
p4422
aS'praise'
p4423
aa(lp4424
S'use'
p4425
aS"excuse'"
p4426
aa(lp4427
S'mine'
p4428
aS'thine'
p4429
aa(lp4430
S'old'
p4431
aS'cold'
p4432
aa(lp4433
S'viewest'
p4434
aS'renewest'
p4435
aa(lp4436
S'another'
p4437
aS'mother'
p4438
aa(lp4439
S'womb'
p4440
aS'tomb'
p4441
aa(lp4442
S'husbandry'
p4443
aS'posterity'
p4444
aa(lp4445
S'thee'
p4446
aS'see'
p4447
aa(lp4448
S'prime'
p4449
aS'time'
p4450
aa(lp4451
S'be'
p4452
aS'thee'
p4453
aa(lp4454
S'spend'
p4455
aS'lend'
p4456
aa(lp4457
S'legacy'
p4458
aS'free'
p4459
aa(lp4460
S'abuse'
p4461
aS'use'
p4462
aa(lp4463
S'give'
p4464
aS'live'
p4465
aa(lp4466
S'alone'
p4467
aS'gone'
p4468
aa(lp4469
S'deceive'
p4470
aS'leave'
p4471
aa(lp4472
S'thee'
p4473
aS'be'
p4474
aa(lp4475
S'frame'
p4476
aS'same'
p4477
aa(lp4478
S'dwell'
p4479
aS'excel'
p4480
aa(lp4481
S'on'
p4482
aS'gone'
p4483
aa(lp4484
S'there'
p4485
aS'where'
p4486
aa(lp4487
S'left'
p4488
aS'bereft'
p4489
aa(lp4490
S'glass'
p4491
aS'was'
p4492
aa(lp4493
S'meet'
p4494
aS'sweet'
p4495
aa(lp4496
S'deface'
p4497
aS'place'
p4498
aa(lp4499
S'distilled'
p4500
aS'self-killed'
p4501
aa(lp4502
S'usury'
p4503
aS'thee'
p4504
aa(lp4505
S'loan'
p4506
aS'one'
p4507
aa(lp4508
S'art'
p4509
aS'depart'
p4510
aa(lp4511
S'thee'
p4512
aS'posterity'
p4513
aa(lp4514
S'fair'
p4515
aS'heir'
p4516
aa(lp4517
S'light'
p4518
aS'sight'
p4519
aa(lp4520
S'eye'
p4521
aS'majesty'
p4522
aa(lp4523
S'hill'
p4524
aS'still'
p4525
aa(lp4526
S'age'
p4527
aS'pilgrimage'
p4528
aa(lp4529
S'car'
p4530
aS'are'
p4531
aa(lp4532
S'day'
p4533
aS'way'
p4534
aa(lp4535
S'noon'
p4536
aS'son'
p4537
aa(lp4538
S'sadly'
p4539
aS'gladly'
p4540
aa(lp4541
S'joy'
p4542
aS'annoy'
p4543
aa(lp4544
S'sounds'
p4545
aS'confounds'
p4546
aa(lp4547
S'ear'
p4548
aS'bear'
p4549
aa(lp4550
S'another'
p4551
aS'mother'
p4552
aa(lp4553
S'ordering'
p4554
aS'sing'
p4555
aa(lp4556
S'one'
p4557
aS"none'"
p4558
aa(lp4559
S'eye'
p4560
aS'die'
p4561
aa(lp4562
S'life'
p4563
aS'wife'
p4564
aa(lp4565
S'weep'
p4566
aS'keep'
p4567
aa(lp4568
S'behind'
p4569
aS'mind'
p4570
aa(lp4571
S'spend'
p4572
aS'end'
p4573
aa(lp4574
S'it'
p4575
aS'it'
p4576
aa(lp4577
S'sits'
p4578
aS'commits'
p4579
aa(lp4580
S'any'
p4581
aS'many'
p4582
aa(lp4583
S'unprovident'
p4584
aS'evident'
p4585
aa(lp4586
S'hate'
p4587
aS'ruinate'
p4588
aa(lp4589
S'conspire'
p4590
aS'desire'
p4591
aa(lp4592
S'mind'
p4593
aS'kind'
p4594
aa(lp4595
S'love'
p4596
aS'prove'
p4597
aa(lp4598
S'me'
p4599
aS'thee'
p4600
aa(lp4601
S"grow'st"
p4602
aS"bestow'st"
p4603
aa(lp4604
S'departest'
p4605
aS'convertest'
p4606
aa(lp4607
S'increase'
p4608
aS'cease'
p4609
aa(lp4610
S'decay'
p4611
aS'away'
p4612
aa(lp4613
S'store'
p4614
aS'more'
p4615
aa(lp4616
S'perish'
p4617
aS'cherish'
p4618
aa(lp4619
S'thereby'
p4620
aS'die'
p4621
aa(lp4622
S'time'
p4623
aS'prime'
p4624
aa(lp4625
S'night'
p4626
aS'white'
p4627
aa(lp4628
S'leaves'
p4629
aS'sheaves'
p4630
aa(lp4631
S'herd'
p4632
aS'beard'
p4633
aa(lp4634
S'make'
p4635
aS'forsake'
p4636
aa(lp4637
S'go'
p4638
aS'grow'
p4639
aa(lp4640
S'defence'
p4641
aS'hence'
p4642
aa(lp4643
S'are'
p4644
aS'prepare'
p4645
aa(lp4646
S'live'
p4647
aS'give'
p4648
aa(lp4649
S'lease'
p4650
aS'decease'
p4651
aa(lp4652
S'were'
p4653
aS'bear'
p4654
aa(lp4655
S'decay'
p4656
aS'day'
p4657
aa(lp4658
S'uphold'
p4659
aS'cold'
p4660
aa(lp4661
S'know'
p4662
aS'so'
p4663
aa(lp4664
S'pluck'
p4665
aS'luck'
p4666
aa(lp4667
S'astronomy'
p4668
aS'quality'
p4669
aa(lp4670
S'tell'
p4671
aS'well'
p4672
aa(lp4673
S'wind'
p4674
aS'find'
p4675
aa(lp4676
S'derive'
p4677
aS'thrive'
p4678
aa(lp4679
S'art'
p4680
aS'convert'
p4681
aa(lp4682
S'prognosticate'
p4683
aS'date'
p4684
aa(lp4685
S'grows'
p4686
aS'shows'
p4687
aa(lp4688
S'moment'
p4689
aS'comment'
p4690
aa(lp4691
S'increase'
p4692
aS'decrease'
p4693
aa(lp4694
S'sky'
p4695
aS'memory'
p4696
aa(lp4697
S'stay'
p4698
aS'decay'
p4699
aa(lp4700
S'sight'
p4701
aS'night'
p4702
aa(lp4703
S'you'
p4704
aS'new'
p4705
aa(lp4706
S'way'
p4707
aS'decay'
p4708
aa(lp4709
S'Time'
p4710
aS'rhyme'
p4711
aa(lp4712
S'hours'
p4713
aS'flowers'
p4714
aa(lp4715
S'unset'
p4716
aS'counterfeit'
p4717
aa(lp4718
S'repair'
p4719
aS'fair'
p4720
aa(lp4721
S'pen'
p4722
aS'men'
p4723
aa(lp4724
S'still'
p4725
aS'skill'
p4726
aa(lp4727
S'come'
p4728
aS'tomb'
p4729
aa(lp4730
S'deserts'
p4731
aS'parts'
p4732
aa(lp4733
S'eyes'
p4734
aS'lies'
p4735
aa(lp4736
S'graces'
p4737
aS'faces'
p4738
aa(lp4739
S'age'
p4740
aS'rage'
p4741
aa(lp4742
S'tongue'
p4743
aS'song'
p4744
aa(lp4745
S'time'
p4746
aS'rhyme'
p4747
aa(lp4748
S'day'
p4749
aS'May'
p4750
aa(lp4751
S'temperate'
p4752
aS'date'
p4753
aa(lp4754
S'shines'
p4755
aS'declines'
p4756
aa(lp4757
S'dimmed'
p4758
aS'untrimmed'
p4759
aa(lp4760
S'fade'
p4761
aS'shade'
p4762
aa(lp4763
S"ow'st"
p4764
aS"grow'st"
p4765
aa(lp4766
S'see'
p4767
aS'thee'
p4768
aa(lp4769
S'paws'
p4770
aS'jaws'
p4771
aa(lp4772
S'brood'
p4773
aS'blood'
p4774
aa(lp4775
S"fleet'st"
p4776
aS'sweets'
p4777
aa(lp4778
S'Time'
p4779
aS'crime'
p4780
aa(lp4781
S'brow'
p4782
aS'allow'
p4783
aa(lp4784
S'pen'
p4785
aS'men'
p4786
aa(lp4787
S'wrong'
p4788
aS'young'
p4789
aa(lp4790
S'painted'
p4791
aS'acquainted'
p4792
aa(lp4793
S'passion'
p4794
aS'fashion'
p4795
aa(lp4796
S'rolling'
p4797
aS'controlling'
p4798
aa(lp4799
S'gazeth'
p4800
aS'amazeth'
p4801
aa(lp4802
S'created'
p4803
aS'defeated'
p4804
aa(lp4805
S'a-doting'
p4806
aS'nothing'
p4807
aa(lp4808
S'pleasure'
p4809
aS'treasure'
p4810
aa(lp4811
S'muse'
p4812
aS'use'
p4813
aa(lp4814
S'verse'
p4815
aS'rehearse'
p4816
aa(lp4817
S'compare'
p4818
aS'rare'
p4819
aa(lp4820
S'gems'
p4821
aS'hems'
p4822
aa(lp4823
S'write'
p4824
aS'bright'
p4825
aa(lp4826
S'fair'
p4827
aS'air'
p4828
aa(lp4829
S'well'
p4830
aS'sell'
p4831
aa(lp4832
S'old'
p4833
aS'behold'
p4834
aa(lp4835
S'date'
p4836
aS'expiate'
p4837
aa(lp4838
S'thee'
p4839
aS'me'
p4840
aa(lp4841
S'heart'
p4842
aS'art'
p4843
aa(lp4844
S'wary'
p4845
aS'chary'
p4846
aa(lp4847
S'will'
p4848
aS'ill'
p4849
aa(lp4850
S'slain'
p4851
aS'again'
p4852
aa(lp4853
S'stage'
p4854
aS'rage'
p4855
aa(lp4856
S'part'
p4857
aS'heart'
p4858
aa(lp4859
S'say'
p4860
aS'decay'
p4861
aa(lp4862
S'rite'
p4863
aS'might'
p4864
aa(lp4865
S'eloquence'
p4866
aS'recompense'
p4867
aa(lp4868
S'breast'
p4869
aS'expressed'
p4870
aa(lp4871
S'writ'
p4872
aS'wit'
p4873
aa(lp4874
S'stelled'
p4875
aS'held'
p4876
aa(lp4877
S'heart'
p4878
aS'art'
p4879
aa(lp4880
S'skill'
p4881
aS'still'
p4882
aa(lp4883
S'lies'
p4884
aS'eyes'
p4885
aa(lp4886
S'done'
p4887
aS'sun'
p4888
aa(lp4889
S'me'
p4890
aS'thee'
p4891
aa(lp4892
S'art'
p4893
aS'heart'
p4894
aa(lp4895
S'stars'
p4896
aS'bars'
p4897
aa(lp4898
S'boast'
p4899
aS'most'
p4900
aa(lp4901
S'spread'
p4902
aS'buried'
p4903
aa(lp4904
S'eye'
p4905
aS'die'
p4906
aa(lp4907
S'fight'
p4908
aS'quite'
p4909
aa(lp4910
S'foiled'
p4911
aS'toiled'
p4912
aa(lp4913
S'beloved'
p4914
aS'removed'
p4915
aa(lp4916
S'vassalage'
p4917
aS'embassage'
p4918
aa(lp4919
S'knit'
p4920
aS'wit'
p4921
aa(lp4922
S'mine'
p4923
aS'thine'
p4924
aa(lp4925
S'it'
p4926
aS'it'
p4927
aa(lp4928
S'moving'
p4929
aS'loving'
p4930
aa(lp4931
S'aspect'
p4932
aS'respect'
p4933
aa(lp4934
S'thee'
p4935
aS'me'
p4936
aa(lp4937
S'bed'
p4938
aS'head'
p4939
aa(lp4940
S'tired'
p4941
aS'expired'
p4942
aa(lp4943
S'abide'
p4944
aS'wide'
p4945
aa(lp4946
S'thee'
p4947
aS'see'
p4948
aa(lp4949
S'sight'
p4950
aS'night'
p4951
aa(lp4952
S'view'
p4953
aS'new'
p4954
aa(lp4955
S'mind'
p4956
aS'find'
p4957
aa(lp4958
S'plight'
p4959
aS'night'
p4960
aa(lp4961
S'rest'
p4962
aS'oppressed'
p4963
aa(lp4964
S'reign'
p4965
aS'complain'
p4966
aa(lp4967
S'me'
p4968
aS'thee'
p4969
aa(lp4970
S'bright'
p4971
aS'night'
p4972
aa(lp4973
S'heaven'
p4974
aS'even'
p4975
aa(lp4976
S'longer'
p4977
aS'stronger'
p4978
aa(lp4979
S'eyes'
p4980
aS'cries'
p4981
aa(lp4982
S'state'
p4983
aS'fate'
p4984
aa(lp4985
S'hope'
p4986
aS'scope'
p4987
aa(lp4988
S'possessed'
p4989
aS'least'
p4990
aa(lp4991
S'despising'
p4992
aS'arising'
p4993
aa(lp4994
S'state'
p4995
aS'gate'
p4996
aa(lp4997
S'brings'
p4998
aS'kings'
p4999
aa(lp5000
S'thought'
p5001
aS'sought'
p5002
aa(lp5003
S'past'
p5004
aS'waste'
p5005
aa(lp5006
S'flow'
p5007
aS'woe'
p5008
aa(lp5009
S'night'
p5010
aS'sight'
p5011
aa(lp5012
S'foregone'
p5013
aS'moan'
p5014
aa(lp5015
S"o'er"
p5016
aS'before'
p5017
aa(lp5018
S'friend'
p5019
aS'end'
p5020
aa(lp5021
S'hearts'
p5022
aS'parts'
p5023
aa(lp5024
S'dead'
p5025
aS'buried'
p5026
aa(lp5027
S'tear'
p5028
aS'appear'
p5029
aa(lp5030
S'eye'
p5031
aS'lie'
p5032
aa(lp5033
S'live'
p5034
aS'give'
p5035
aa(lp5036
S'gone'
p5037
aS'alone'
p5038
aa(lp5039
S'thee'
p5040
aS'me'
p5041
aa(lp5042
S'day'
p5043
aS're-survey'
p5044
aa(lp5045
S'cover'
p5046
aS'lover'
p5047
aa(lp5048
S'time'
p5049
aS'rhyme'
p5050
aa(lp5051
S'pen'
p5052
aS'men'
p5053
aa(lp5054
S'thought'
p5055
aS'brought'
p5056
aa(lp5057
S'age'
p5058
aS'equipage'
p5059
aa(lp5060
S'prove'
p5061
aS"love'"
p5062
aa(lp5063
S'seen'
p5064
aS'green'
p5065
aa(lp5066
S'eye'
p5067
aS'alchemy'
p5068
aa(lp5069
S'ride'
p5070
aS'hide'
p5071
aa(lp5072
S'face'
p5073
aS'disgrace'
p5074
aa(lp5075
S'shine'
p5076
aS'mine'
p5077
aa(lp5078
S'brow'
p5079
aS'now'
p5080
aa(lp5081
S'disdaineth'
p5082
aS'staineth'
p5083
aa(lp5084
S'day'
p5085
aS'way'
p5086
aa(lp5087
S'cloak'
p5088
aS'smoke'
p5089
aa(lp5090
S'break'
p5091
aS'speak'
p5092
aa(lp5093
S'face'
p5094
aS'disgrace'
p5095
aa(lp5096
S'grief'
p5097
aS'relief'
p5098
aa(lp5099
S'loss'
p5100
aS'cross'
p5101
aa(lp5102
S'sheds'
p5103
aS'deeds'
p5104
aa(lp5105
S'done'
p5106
aS'sun'
p5107
aa(lp5108
S'mud'
p5109
aS'bud'
p5110
aa(lp5111
S'this'
p5112
aS'amiss'
p5113
aa(lp5114
S'compare'
p5115
aS'are'
p5116
aa(lp5117
S'sense'
p5118
aS'commence'
p5119
aa(lp5120
S'advocate'
p5121
aS'hate'
p5122
aa(lp5123
S'be'
p5124
aS'me'
p5125
aa(lp5126
S'twain'
p5127
aS'remain'
p5128
aa(lp5129
S'one'
p5130
aS'alone'
p5131
aa(lp5132
S'respect'
p5133
aS'effect'
p5134
aa(lp5135
S'spite'
p5136
aS'delight'
p5137
aa(lp5138
S'thee'
p5139
aS'me'
p5140
aa(lp5141
S'shame'
p5142
aS'name'
p5143
aa(lp5144
S'sort'
p5145
aS'report'
p5146
aa(lp5147
S'delight'
p5148
aS'spite'
p5149
aa(lp5150
S'youth'
p5151
aS'truth'
p5152
aa(lp5153
S'wit'
p5154
aS'sit'
p5155
aa(lp5156
S'more'
p5157
aS'store'
p5158
aa(lp5159
S'despised'
p5160
aS'sufficed'
p5161
aa(lp5162
S'give'
p5163
aS'live'
p5164
aa(lp5165
S'thee'
p5166
aS'me'
p5167
aa(lp5168
S'invent'
p5169
aS'excellent'
p5170
aa(lp5171
S'verse'
p5172
aS'rehearse'
p5173
aa(lp5174
S'me'
p5175
aS'thee'
p5176
aa(lp5177
S'sight'
p5178
aS'light'
p5179
aa(lp5180
S'worth'
p5181
aS'forth'
p5182
aa(lp5183
S'invocate'
p5184
aS'date'
p5185
aa(lp5186
S'days'
p5187
aS'praise'
p5188
aa(lp5189
S'sing'
p5190
aS'bring'
p5191
aa(lp5192
S'me'
p5193
aS'thee'
p5194
aa(lp5195
S'live'
p5196
aS'give'
p5197
aa(lp5198
S'one'
p5199
aS'alone'
p5200
aa(lp5201
S'prove'
p5202
aS'love'
p5203
aa(lp5204
S'leave'
p5205
aS'deceive'
p5206
aa(lp5207
S'twain'
p5208
aS'remain'
p5209
aa(lp5210
S'all'
p5211
aS'call'
p5212
aa(lp5213
S'before'
p5214
aS'more'
p5215
aa(lp5216
S'receivest'
p5217
aS'deceivest'
p5218
aa(lp5219
S'usest'
p5220
aS'refusest'
p5221
aa(lp5222
S'thief'
p5223
aS'grief'
p5224
aa(lp5225
S'poverty'
p5226
aS'injury'
p5227
aa(lp5228
S'shows'
p5229
aS'foes'
p5230
aa(lp5231
S'commits'
p5232
aS'befits'
p5233
aa(lp5234
S'heart'
p5235
aS'art'
p5236
aa(lp5237
S'won'
p5238
aS'son'
p5239
aa(lp5240
S'assailed'
p5241
aS'prevailed'
p5242
aa(lp5243
S'forbear'
p5244
aS'there'
p5245
aa(lp5246
S'youth'
p5247
aS'truth'
p5248
aa(lp5249
S'thee'
p5250
aS'me'
p5251
aa(lp5252
S'grief'
p5253
aS'chief'
p5254
aa(lp5255
S'dearly'
p5256
aS'nearly'
p5257
aa(lp5258
S'ye'
p5259
aS'me'
p5260
aa(lp5261
S'her'
p5262
aS'her'
p5263
aa(lp5264
S'gain'
p5265
aS'twain'
p5266
aa(lp5267
S'loss'
p5268
aS'cross'
p5269
aa(lp5270
S'one'
p5271
aS'alone'
p5272
aa(lp5273
S'see'
p5274
aS'thee'
p5275
aa(lp5276
S'unrespected'
p5277
aS'directed'
p5278
aa(lp5279
S'bright'
p5280
aS'light'
p5281
aa(lp5282
S'show'
p5283
aS'so'
p5284
aa(lp5285
S'made'
p5286
aS'shade'
p5287
aa(lp5288
S'day'
p5289
aS'stay'
p5290
aa(lp5291
S'thee'
p5292
aS'me'
p5293
aa(lp5294
S'thought'
p5295
aS'brought'
p5296
aa(lp5297
S'way'
p5298
aS'stay'
p5299
aa(lp5300
S'stand'
p5301
aS'land'
p5302
aa(lp5303
S'thee'
p5304
aS'be'
p5305
aa(lp5306
S'thought'
p5307
aS'wrought'
p5308
aa(lp5309
S'gone'
p5310
aS'moan'
p5311
aa(lp5312
S'slow'
p5313
aS'woe'
p5314
aa(lp5315
S'fire'
p5316
aS'desire'
p5317
aa(lp5318
S'abide'
p5319
aS'slide'
p5320
aa(lp5321
S'gone'
p5322
aS'alone'
p5323
aa(lp5324
S'thee'
p5325
aS'melancholy'
p5326
aa(lp5327
S'recured'
p5328
aS'assured'
p5329
aa(lp5330
S'thee'
p5331
aS'me'
p5332
aa(lp5333
S'glad'
p5334
aS'sad'
p5335
aa(lp5336
S'war'
p5337
aS'bar'
p5338
aa(lp5339
S'sight'
p5340
aS'right'
p5341
aa(lp5342
S'lie'
p5343
aS'deny'
p5344
aa(lp5345
S'eyes'
p5346
aS'lies'
p5347
aa(lp5348
S'impanelled'
p5349
aS'determined'
p5350
aa(lp5351
S'heart'
p5352
aS'part'
p5353
aa(lp5354
S'part'
p5355
aS'heart'
p5356
aa(lp5357
S'took'
p5358
aS'look'
p5359
aa(lp5360
S'other'
p5361
aS'smother'
p5362
aa(lp5363
S'feast'
p5364
aS'guest'
p5365
aa(lp5366
S'heart'
p5367
aS'part'
p5368
aa(lp5369
S'love'
p5370
aS'move'
p5371
aa(lp5372
S'me'
p5373
aS'thee'
p5374
aa(lp5375
S'sight'
p5376
aS'delight'
p5377
aa(lp5378
S'way'
p5379
aS'stay'
p5380
aa(lp5381
S'thrust'
p5382
aS'trust'
p5383
aa(lp5384
S'are'
p5385
aS'care'
p5386
aa(lp5387
S'grief'
p5388
aS'thief'
p5389
aa(lp5390
S'chest'
p5391
aS'breast'
p5392
aa(lp5393
S'art'
p5394
aS'part'
p5395
aa(lp5396
S'fear'
p5397
aS'dear'
p5398
aa(lp5399
S'come'
p5400
aS'sum'
p5401
aa(lp5402
S'defects'
p5403
aS'respects'
p5404
aa(lp5405
S'pass'
p5406
aS'was'
p5407
aa(lp5408
S'eye'
p5409
aS'gravity'
p5410
aa(lp5411
S'here'
p5412
aS'uprear'
p5413
aa(lp5414
S'desert'
p5415
aS'part'
p5416
aa(lp5417
S'laws'
p5418
aS'cause'
p5419
aa(lp5420
S'way'
p5421
aS'say'
p5422
aa(lp5423
S'end'
p5424
aS"friend'"
p5425
aa(lp5426
S'woe'
p5427
aS'know'
p5428
aa(lp5429
S'me'
p5430
aS'thee'
p5431
aa(lp5432
S'on'
p5433
aS'groan'
p5434
aa(lp5435
S'hide'
p5436
aS'side'
p5437
aa(lp5438
S'mind'
p5439
aS'behind'
p5440
aa(lp5441
S'offence'
p5442
aS'thence'
p5443
aa(lp5444
S'speed'
p5445
aS'need'
p5446
aa(lp5447
S'find'
p5448
aS'wind'
p5449
aa(lp5450
S'slow'
p5451
aS'know'
p5452
aa(lp5453
S'pace'
p5454
aS'race'
p5455
aa(lp5456
S'made'
p5457
aS'jade'
p5458
aa(lp5459
S'wilful-slow'
p5460
aS'go'
p5461
aa(lp5462
S'key'
p5463
aS'survey'
p5464
aa(lp5465
S'treasure'
p5466
aS'pleasure'
p5467
aa(lp5468
S'rare'
p5469
aS'are'
p5470
aa(lp5471
S'set'
p5472
aS'carcanet'
p5473
aa(lp5474
S'chest'
p5475
aS'special-blest'
p5476
aa(lp5477
S'hide'
p5478
aS'pride'
p5479
aa(lp5480
S'scope'
p5481
aS'hope'
p5482
aa(lp5483
S'made'
p5484
aS'shade'
p5485
aa(lp5486
S'tend'
p5487
aS'lend'
p5488
aa(lp5489
S'counterfeit'
p5490
aS'set'
p5491
aa(lp5492
S'you'
p5493
aS'new'
p5494
aa(lp5495
S'year'
p5496
aS'appear'
p5497
aa(lp5498
S'show'
p5499
aS'know'
p5500
aa(lp5501
S'part'
p5502
aS'heart'
p5503
aa(lp5504
S'seem'
p5505
aS'deem'
p5506
aa(lp5507
S'give'
p5508
aS'live'
p5509
aa(lp5510
S'dye'
p5511
aS'wantonly'
p5512
aa(lp5513
S'roses'
p5514
aS'discloses'
p5515
aa(lp5516
S'show'
p5517
aS'so'
p5518
aa(lp5519
S'fade'
p5520
aS'made'
p5521
aa(lp5522
S'youth'
p5523
aS'truth'
p5524
aa(lp5525
S'monuments'
p5526
aS'contents'
p5527
aa(lp5528
S'rhyme'
p5529
aS'time'
p5530
aa(lp5531
S'overturn'
p5532
aS'burn'
p5533
aa(lp5534
S'masonry'
p5535
aS'memory'
p5536
aa(lp5537
S'enmity'
p5538
aS'posterity'
p5539
aa(lp5540
S'room'
p5541
aS'doom'
p5542
aa(lp5543
S'arise'
p5544
aS'eyes'
p5545
aa(lp5546
S'said'
p5547
aS'allayed'
p5548
aa(lp5549
S'appetite'
p5550
aS'might'
p5551
aa(lp5552
S'fill'
p5553
aS'kill'
p5554
aa(lp5555
S'fulness'
p5556
aS'dulness'
p5557
aa(lp5558
S'be'
p5559
aS'see'
p5560
aa(lp5561
S'new'
p5562
aS'view'
p5563
aa(lp5564
S'care'
p5565
aS'rare'
p5566
aa(lp5567
S'tend'
p5568
aS'spend'
p5569
aa(lp5570
S'desire'
p5571
aS'require'
p5572
aa(lp5573
S'hour'
p5574
aS'sour'
p5575
aa(lp5576
S'you'
p5577
aS'adieu'
p5578
aa(lp5579
S'thought'
p5580
aS'nought'
p5581
aa(lp5582
S'suppose'
p5583
aS'those'
p5584
aa(lp5585
S'will'
p5586
aS'ill'
p5587
aa(lp5588
S'slave'
p5589
aS'crave'
p5590
aa(lp5591
S'pleasure'
p5592
aS'leisure'
p5593
aa(lp5594
S'beck'
p5595
aS'check'
p5596
aa(lp5597
S'liberty'
p5598
aS'injury'
p5599
aa(lp5600
S'strong'
p5601
aS'belong'
p5602
aa(lp5603
S'time'
p5604
aS'crime'
p5605
aa(lp5606
S'hell'
p5607
aS'well'
p5608
aa(lp5609
S'is'
p5610
aS'amis'
p5611
aa(lp5612
S'beguiled'
p5613
aS'child'
p5614
aa(lp5615
S'look'
p5616
aS'book'
p5617
aa(lp5618
S'sun'
p5619
aS'done'
p5620
aa(lp5621
S'say'
p5622
aS'they'
p5623
aa(lp5624
S'frame'
p5625
aS'same'
p5626
aa(lp5627
S'days'
p5628
aS'praise'
p5629
aa(lp5630
S'shore'
p5631
aS'before'
p5632
aa(lp5633
S'end'
p5634
aS'contend'
p5635
aa(lp5636
S'light'
p5637
aS'fight'
p5638
aa(lp5639
S'crowned'
p5640
aS'confound'
p5641
aa(lp5642
S'youth'
p5643
aS'truth'
p5644
aa(lp5645
S'brow'
p5646
aS'mow'
p5647
aa(lp5648
S'stand'
p5649
aS'hand'
p5650
aa(lp5651
S'open'
p5652
aS'broken'
p5653
aa(lp5654
S'night'
p5655
aS'sight'
p5656
aa(lp5657
S'thee'
p5658
aS'me'
p5659
aa(lp5660
S'pry'
p5661
aS'jealousy'
p5662
aa(lp5663
S'great'
p5664
aS'defeat'
p5665
aa(lp5666
S'awake'
p5667
aS'sake'
p5668
aa(lp5669
S'elsewhere'
p5670
aS'near'
p5671
aa(lp5672
S'eye'
p5673
aS'remedy'
p5674
aa(lp5675
S'part'
p5676
aS'heart'
p5677
aa(lp5678
S'mine'
p5679
aS'define'
p5680
aa(lp5681
S'account'
p5682
aS'surmount'
p5683
aa(lp5684
S'indeed'
p5685
aS'read'
p5686
aa(lp5687
S'antiquity'
p5688
aS'iniquity'
p5689
aa(lp5690
S'praise'
p5691
aS'days'
p5692
aa(lp5693
S'now'
p5694
aS'brow'
p5695
aa(lp5696
S"o'erworn"
p5697
aS'morn'
p5698
aa(lp5699
S'night'
p5700
aS'sight'
p5701
aa(lp5702
S'king'
p5703
aS'spring'
p5704
aa(lp5705
S'fortify'
p5706
aS'memory'
p5707
aa(lp5708
S'knife'
p5709
aS'life'
p5710
aa(lp5711
S'seen'
p5712
aS'green'
p5713
aa(lp5714
S'defaced'
p5715
aS'down-rased'
p5716
aa(lp5717
S'age'
p5718
aS'rage'
p5719
aa(lp5720
S'gain'
p5721
aS'main'
p5722
aa(lp5723
S'shore'
p5724
aS'store'
p5725
aa(lp5726
S'State'
p5727
aS'ruminate'
p5728
aa(lp5729
S'decay'
p5730
aS'away'
p5731
aa(lp5732
S'choose'
p5733
aS'lose'
p5734
aa(lp5735
S'sea'
p5736
aS'plea'
p5737
aa(lp5738
S'power'
p5739
aS'flower'
p5740
aa(lp5741
S'out'
p5742
aS'stout'
p5743
aa(lp5744
S'days'
p5745
aS'decays'
p5746
aa(lp5747
S'alack'
p5748
aS'back'
p5749
aa(lp5750
S'hid'
p5751
aS'forbid'
p5752
aa(lp5753
S'might'
p5754
aS'bright'
p5755
aa(lp5756
S'cry'
p5757
aS'jollity'
p5758
aa(lp5759
S'born'
p5760
aS'forsworn'
p5761
aa(lp5762
S'misplaced'
p5763
aS'disgraced'
p5764
aa(lp5765
S'strumpeted'
p5766
aS'disabled'
p5767
aa(lp5768
S'authority'
p5769
aS'simplicity'
p5770
aa(lp5771
S'skill'
p5772
aS'ill'
p5773
aa(lp5774
S'gone'
p5775
aS'alone'
p5776
aa(lp5777
S'live'
p5778
aS'achieve'
p5779
aa(lp5780
S'impiety'
p5781
aS'society'
p5782
aa(lp5783
S'cheek'
p5784
aS'seek'
p5785
aa(lp5786
S'hue'
p5787
aS'true'
p5788
aa(lp5789
S'is'
p5790
aS'his'
p5791
aa(lp5792
S'veins'
p5793
aS'gains'
p5794
aa(lp5795
S'had'
p5796
aS'bad'
p5797
aa(lp5798
S'outworn'
p5799
aS'born'
p5800
aa(lp5801
S'now'
p5802
aS'brow'
p5803
aa(lp5804
S'dead'
p5805
aS'head'
p5806
aa(lp5807
S'away'
p5808
aS'gay'
p5809
aa(lp5810
S'seen'
p5811
aS'green'
p5812
aa(lp5813
S'true'
p5814
aS'new'
p5815
aa(lp5816
S'store'
p5817
aS'yore'
p5818
aa(lp5819
S'view'
p5820
aS'due'
p5821
aa(lp5822
S'mend'
p5823
aS'commend'
p5824
aa(lp5825
S'crowned'
p5826
aS'confound'
p5827
aa(lp5828
S'own'
p5829
aS'shown'
p5830
aa(lp5831
S'mind'
p5832
aS'kind'
p5833
aa(lp5834
S'deeds'
p5835
aS'weeds'
p5836
aa(lp5837
S'show'
p5838
aS'grow'
p5839
aa(lp5840
S'defect'
p5841
aS'suspect'
p5842
aa(lp5843
S'fair'
p5844
aS'air'
p5845
aa(lp5846
S'approve'
p5847
aS'love'
p5848
aa(lp5849
S'time'
p5850
aS'prime'
p5851
aa(lp5852
S'days'
p5853
aS'praise'
p5854
aa(lp5855
S'charged'
p5856
aS'enlarged'
p5857
aa(lp5858
S'show'
p5859
aS'owe'
p5860
aa(lp5861
S'dead'
p5862
aS'fled'
p5863
aa(lp5864
S'bell'
p5865
aS'dwell'
p5866
aa(lp5867
S'not'
p5868
aS'forgot'
p5869
aa(lp5870
S'so'
p5871
aS'woe'
p5872
aa(lp5873
S'verse'
p5874
aS'rehearse'
p5875
aa(lp5876
S'clay'
p5877
aS'decay'
p5878
aa(lp5879
S'moan'
p5880
aS'gone'
p5881
aa(lp5882
S'recite'
p5883
aS'quite'
p5884
aa(lp5885
S'love'
p5886
aS'prove'
p5887
aa(lp5888
S'lie'
p5889
aS'I'
p5890
aa(lp5891
S'desert'
p5892
aS'impart'
p5893
aa(lp5894
S'this'
p5895
aS'is'
p5896
aa(lp5897
S'untrue'
p5898
aS'you'
p5899
aa(lp5900
S'forth'
p5901
aS'worth'
p5902
aa(lp5903
S'behold'
p5904
aS'cold'
p5905
aa(lp5906
S'hang'
p5907
aS'sang'
p5908
aa(lp5909
S'day'
p5910
aS'away'
p5911
aa(lp5912
S'west'
p5913
aS'rest'
p5914
aa(lp5915
S'fire'
p5916
aS'expire'
p5917
aa(lp5918
S'lie'
p5919
aS'by'
p5920
aa(lp5921
S'strong'
p5922
aS'long'
p5923
aa(lp5924
S'arrest'
p5925
aS'interest'
p5926
aa(lp5927
S'away'
p5928
aS'stay'
p5929
aa(lp5930
S'review'
p5931
aS'due'
p5932
aa(lp5933
S'thee'
p5934
aS'me'
p5935
aa(lp5936
S'life'
p5937
aS'knife'
p5938
aa(lp5939
S'dead'
p5940
aS'remembered'
p5941
aa(lp5942
S'contains'
p5943
aS'remains'
p5944
aa(lp5945
S'life'
p5946
aS'strife'
p5947
aa(lp5948
S'ground'
p5949
aS'found'
p5950
aa(lp5951
S'anon'
p5952
aS'alone'
p5953
aa(lp5954
S'treasure'
p5955
aS'pleasure'
p5956
aa(lp5957
S'sight'
p5958
aS'delight'
p5959
aa(lp5960
S'look'
p5961
aS'took'
p5962
aa(lp5963
S'day'
p5964
aS'away'
p5965
aa(lp5966
S'pride'
p5967
aS'aside'
p5968
aa(lp5969
S'change'
p5970
aS'strange'
p5971
aa(lp5972
S'same'
p5973
aS'name'
p5974
aa(lp5975
S'weed'
p5976
aS'proceed'
p5977
aa(lp5978
S'you'
p5979
aS'new'
p5980
aa(lp5981
S'argument'
p5982
aS'spent'
p5983
aa(lp5984
S'old'
p5985
aS'told'
p5986
aa(lp5987
S'wear'
p5988
aS'bear'
p5989
aa(lp5990
S'waste'
p5991
aS'taste'
p5992
aa(lp5993
S'show'
p5994
aS'know'
p5995
aa(lp5996
S'memory'
p5997
aS'eternity'
p5998
aa(lp5999
S'contain'
p6000
aS'brain'
p6001
aa(lp6002
S'find'
p6003
aS'mind'
p6004
aa(lp6005
S'look'
p6006
aS'book'
p6007
aa(lp6008
S'muse'
p6009
aS'use'
p6010
aa(lp6011
S'verse'
p6012
aS'disperse'
p6013
aa(lp6014
S'sing'
p6015
aS'wing'
p6016
aa(lp6017
S'fly'
p6018
aS'majesty'
p6019
aa(lp6020
S'compile'
p6021
aS'style'
p6022
aa(lp6023
S'thee'
p6024
aS'be'
p6025
aa(lp6026
S'advance'
p6027
aS'ignorance'
p6028
aa(lp6029
S'aid'
p6030
aS'decayed'
p6031
aa(lp6032
S'grace'
p6033
aS'place'
p6034
aa(lp6035
S'argument'
p6036
aS'invent'
p6037
aa(lp6038
S'pen'
p6039
aS'again'
p6040
aa(lp6041
S'word'
p6042
aS'afford'
p6043
aa(lp6044
S'give'
p6045
aS'live'
p6046
aa(lp6047
S'say'
p6048
aS'pay'
p6049
aa(lp6050
S'write'
p6051
aS'might'
p6052
aa(lp6053
S'name'
p6054
aS'fame'
p6055
aa(lp6056
S'is'
p6057
aS'his'
p6058
aa(lp6059
S'bear'
p6060
aS'appear'
p6061
aa(lp6062
S'afloat'
p6063
aS'boat'
p6064
aa(lp6065
S'ride'
p6066
aS'pride'
p6067
aa(lp6068
S'away'
p6069
aS'decay'
p6070
aa(lp6071
S'make'
p6072
aS'take'
p6073
aa(lp6074
S'rotten'
p6075
aS'forgotten'
p6076
aa(lp6077
S'have'
p6078
aS'grave'
p6079
aa(lp6080
S'die'
p6081
aS'lie'
p6082
aa(lp6083
S'verse'
p6084
aS'rehearse'
p6085
aa(lp6086
S"o'er-read"
p6087
aS'dead'
p6088
aa(lp6089
S'pen'
p6090
aS'men'
p6091
aa(lp6092
S'muse'
p6093
aS'use'
p6094
aa(lp6095
S"o'erlook"
p6096
aS'book'
p6097
aa(lp6098
S'hue'
p6099
aS'anew'
p6100
aa(lp6101
S'praise'
p6102
aS'days'
p6103
aa(lp6104
S'devised'
p6105
aS'sympathized'
p6106
aa(lp6107
S'lend'
p6108
aS'friend'
p6109
aa(lp6110
S'used'
p6111
aS'abused'
p6112
aa(lp6113
S'need'
p6114
aS'exceed'
p6115
aa(lp6116
S'set'
p6117
aS'debt'
p6118
aa(lp6119
S'report'
p6120
aS'short'
p6121
aa(lp6122
S'show'
p6123
aS'grow'
p6124
aa(lp6125
S'impute'
p6126
aS'mute'
p6127
aa(lp6128
S'dumb'
p6129
aS'tomb'
p6130
aa(lp6131
S'eyes'
p6132
aS'devise'
p6133
aa(lp6134
S'more'
p6135
aS'store'
p6136
aa(lp6137
S'you'
p6138
aS'grew'
p6139
aa(lp6140
S'dwell'
p6141
aS'tell'
p6142
aa(lp6143
S'glory'
p6144
aS'story'
p6145
aa(lp6146
S'writ'
p6147
aS'wit'
p6148
aa(lp6149
S'clear'
p6150
aS'where'
p6151
aa(lp6152
S'curse'
p6153
aS'worse'
p6154
aa(lp6155
S'still'
p6156
aS'quill'
p6157
aa(lp6158
S'compiled'
p6159
aS'filed'
p6160
aa(lp6161
S'words'
p6162
aS'affords'
p6163
aa(lp6164
S'Amen'
p6165
aS'pen'
p6166
aa(lp6167
S'true'
p6168
aS'you'
p6169
aa(lp6170
S'more'
p6171
aS'before'
p6172
aa(lp6173
S'respect'
p6174
aS'effect'
p6175
aa(lp6176
S'verse'
p6177
aS'inhearse'
p6178
aa(lp6179
S'you'
p6180
aS'grew'
p6181
aa(lp6182
S'write'
p6183
aS'night'
p6184
aa(lp6185
S'dead'
p6186
aS'astonished'
p6187
aa(lp6188
S'ghost'
p6189
aS'boast'
p6190
aa(lp6191
S'intelligence'
p6192
aS'thence'
p6193
aa(lp6194
S'line'
p6195
aS'mine'
p6196
aa(lp6197
S'possessing'
p6198
aS'releasing'
p6199
aa(lp6200
S'estimate'
p6201
aS'determinate'
p6202
aa(lp6203
S'granting'
p6204
aS'wanting'
p6205
aa(lp6206
S'deserving'
p6207
aS'swerving'
p6208
aa(lp6209
S'knowing'
p6210
aS'growing'
p6211
aa(lp6212
S'mistaking'
p6213
aS'making'
p6214
aa(lp6215
S'flatter'
p6216
aS'matter'
p6217
aa(lp6218
S'light'
p6219
aS'fight'
p6220
aa(lp6221
S'scorn'
p6222
aS'forsworn'
p6223
aa(lp6224
S'acquainted'
p6225
aS'attainted'
p6226
aa(lp6227
S'story'
p6228
aS'glory'
p6229
aa(lp6230
S'too'
p6231
aS'do'
p6232
aa(lp6233
S'thee'
p6234
aS'me'
p6235
aa(lp6236
S'belong'
p6237
aS'wrong'
p6238
aa(lp6239
S'fault'
p6240
aS'halt'
p6241
aa(lp6242
S'offence'
p6243
aS'defence'
p6244
aa(lp6245
S'ill'
p6246
aS'will'
p6247
aa(lp6248
S'change'
p6249
aS'strange'
p6250
aa(lp6251
S'tongue'
p6252
aS'wronk'
p6253
aa(lp6254
S'dwell'
p6255
aS'tell'
p6256
aa(lp6257
S'debate'
p6258
aS'hate'
p6259
aa(lp6260
S'now'
p6261
aS'bow'
p6262
aa(lp6263
S'cross'
p6264
aS'after-loss'
p6265
aa(lp6266
S'sorrow'
p6267
aS'morrow'
p6268
aa(lp6269
S'woe'
p6270
aS'overthrow'
p6271
aa(lp6272
S'last'
p6273
aS'taste'
p6274
aa(lp6275
S'spite'
p6276
aS'might'
p6277
aa(lp6278
S'woe'
p6279
aS'so'
p6280
aa(lp6281
S'skill'
p6282
aS'ill'
p6283
aa(lp6284
S'force'
p6285
aS'horse'
p6286
aa(lp6287
S'pleasure'
p6288
aS'measure'
p6289
aa(lp6290
S'rest'
p6291
aS'best'
p6292
aa(lp6293
S'me'
p6294
aS'be'
p6295
aa(lp6296
S'costs'
p6297
aS'boast'
p6298
aa(lp6299
S'take'
p6300
aS'make'
p6301
aa(lp6302
S'away'
p6303
aS'stay'
p6304
aa(lp6305
S'mine'
p6306
aS'thine'
p6307
aa(lp6308
S'wrongs'
p6309
aS'belongs'
p6310
aa(lp6311
S'end'
p6312
aS'depend'
p6313
aa(lp6314
S'mind'
p6315
aS'find'
p6316
aa(lp6317
S'lie'
p6318
aS'die'
p6319
aa(lp6320
S'blot'
p6321
aS'not'
p6322
aa(lp6323
S'true'
p6324
aS'new'
p6325
aa(lp6326
S'face'
p6327
aS'place'
p6328
aa(lp6329
S'eye'
p6330
aS'history'
p6331
aa(lp6332
S'change'
p6333
aS'strange'
p6334
aa(lp6335
S'decree'
p6336
aS'be'
p6337
aa(lp6338
S'dwell'
p6339
aS'tell'
p6340
aa(lp6341
S'grow'
p6342
aS'show'
p6343
aa(lp6344
S'none'
p6345
aS'stone'
p6346
aa(lp6347
S'show'
p6348
aS'slow'
p6349
aa(lp6350
S'graces'
p6351
aS'faces'
p6352
aa(lp6353
S'expense'
p6354
aS'excellence'
p6355
aa(lp6356
S'sweet'
p6357
aS'meet'
p6358
aa(lp6359
S'die'
p6360
aS'dignity'
p6361
aa(lp6362
S'deeds'
p6363
aS'weeds'
p6364
aa(lp6365
S'shame'
p6366
aS'name'
p6367
aa(lp6368
S'rose'
p6369
aS'enclose'
p6370
aa(lp6371
S'days'
p6372
aS'praise'
p6373
aa(lp6374
S'sport'
p6375
aS'report'
p6376
aa(lp6377
S'got'
p6378
aS'blot'
p6379
aa(lp6380
S'thee'
p6381
aS'see'
p6382
aa(lp6383
S'privilege'
p6384
aS'edge'
p6385
aa(lp6386
S'wantonness'
p6387
aS'less'
p6388
aa(lp6389
S'sport'
p6390
aS'resort'
p6391
aa(lp6392
S'queen'
p6393
aS'seen'
p6394
aa(lp6395
S'esteemed'
p6396
aS'deemed'
p6397
aa(lp6398
S'betray'
p6399
aS'away'
p6400
aa(lp6401
S'translate'
p6402
aS'state'
p6403
aa(lp6404
S'sort'
p6405
aS'report'
p6406
aa(lp6407
S'been'
p6408
aS'seen'
p6409
aa(lp6410
S'year'
p6411
aS'everywhere'
p6412
aa(lp6413
S'time'
p6414
aS'prime'
p6415
aa(lp6416
S'increase'
p6417
aS'decease'
p6418
aa(lp6419
S'me'
p6420
aS'thee'
p6421
aa(lp6422
S'fruit'
p6423
aS'mute'
p6424
aa(lp6425
S'cheer'
p6426
aS'near'
p6427
aa(lp6428
S'spring'
p6429
aS'thing'
p6430
aa(lp6431
S'trim'
p6432
aS'him'
p6433
aa(lp6434
S'smell'
p6435
aS'tell'
p6436
aa(lp6437
S'hue'
p6438
aS'grew'
p6439
aa(lp6440
S'white'
p6441
aS'delight'
p6442
aa(lp6443
S'rose'
p6444
aS'those'
p6445
aa(lp6446
S'away'
p6447
aS'play'
p6448
aa(lp6449
S'long'
p6450
aS'song'
p6451
aa(lp6452
S'might'
p6453
aS'light'
p6454
aa(lp6455
S'redeem'
p6456
aS'esteem'
p6457
aa(lp6458
S'spent'
p6459
aS'argument'
p6460
aa(lp6461
S'survey'
p6462
aS'decay'
p6463
aa(lp6464
S'there'
p6465
aS'everywhere'
p6466
aa(lp6467
S'life'
p6468
aS'knife'
p6469
aa(lp6470
S'amends'
p6471
aS'depends'
p6472
aa(lp6473
S'dyed'
p6474
aS'dignified'
p6475
aa(lp6476
S'say'
p6477
aS'lay'
p6478
aa(lp6479
S'fixed'
p6480
aS"intermixed'"
p6481
aa(lp6482
S'dumb'
p6483
aS'tomb'
p6484
aa(lp6485
S'thee'
p6486
aS'be'
p6487
aa(lp6488
S'how'
p6489
aS'now'
p6490
aa(lp6491
S'seeming'
p6492
aS'esteeming'
p6493
aa(lp6494
S'appear'
p6495
aS'where'
p6496
aa(lp6497
S'spring'
p6498
aS'sing'
p6499
aa(lp6500
S'lays'
p6501
aS'days'
p6502
aa(lp6503
S'now'
p6504
aS'bough'
p6505
aa(lp6506
S'night'
p6507
aS'delight'
p6508
aa(lp6509
S'tongue'
p6510
aS'song'
p6511
aa(lp6512
S'forth'
p6513
aS'worth'
p6514
aa(lp6515
S'pride'
p6516
aS'beside'
p6517
aa(lp6518
S'write'
p6519
aS'quite'
p6520
aa(lp6521
S'face'
p6522
aS'disgrace'
p6523
aa(lp6524
S'mend'
p6525
aS'tend'
p6526
aa(lp6527
S'well'
p6528
aS'tell'
p6529
aa(lp6530
S'sit'
p6531
aS'it'
p6532
aa(lp6533
S'old'
p6534
aS'cold'
p6535
aa(lp6536
S'eyed'
p6537
aS'pride'
p6538
aa(lp6539
S'turned'
p6540
aS'burned'
p6541
aa(lp6542
S'seen'
p6543
aS'green'
p6544
aa(lp6545
S'hand'
p6546
aS'stand'
p6547
aa(lp6548
S'perceived'
p6549
aS'deceived'
p6550
aa(lp6551
S'unbred'
p6552
aS'dead'
p6553
aa(lp6554
S'idolatry'
p6555
aS'be'
p6556
aa(lp6557
S'show'
p6558
aS'so'
p6559
aa(lp6560
S'kind'
p6561
aS'confined'
p6562
aa(lp6563
S'excellence'
p6564
aS'difference'
p6565
aa(lp6566
S'argument'
p6567
aS'spent'
p6568
aa(lp6569
S'words'
p6570
aS'affords'
p6571
aa(lp6572
S'alone'
p6573
aS'one'
p6574
aa(lp6575
S'time'
p6576
aS'rhyme'
p6577
aa(lp6578
S'wights'
p6579
aS'knights'
p6580
aa(lp6581
S'best'
p6582
aS'expressed'
p6583
aa(lp6584
S'brow'
p6585
aS'now'
p6586
aa(lp6587
S'prophecies'
p6588
aS'eyes'
p6589
aa(lp6590
S'prefiguring'
p6591
aS'sing'
p6592
aa(lp6593
S'days'
p6594
aS'praise'
p6595
aa(lp6596
S'soul'
p6597
aS'control'
p6598
aa(lp6599
S'come'
p6600
aS'doom'
p6601
aa(lp6602
S'endured'
p6603
aS'assured'
p6604
aa(lp6605
S'presage'
p6606
aS'age'
p6607
aa(lp6608
S'time'
p6609
aS'rhyme'
p6610
aa(lp6611
S'subscribes'
p6612
aS'tribes'
p6613
aa(lp6614
S'monument'
p6615
aS'spent'
p6616
aa(lp6617
S'character'
p6618
aS'register'
p6619
aa(lp6620
S'spirit'
p6621
aS'merit'
p6622
aa(lp6623
S'divine'
p6624
aS'thine'
p6625
aa(lp6626
S'same'
p6627
aS'name'
p6628
aa(lp6629
S'case'
p6630
aS'place'
p6631
aa(lp6632
S'age'
p6633
aS'page'
p6634
aa(lp6635
S'bred'
p6636
aS'dead'
p6637
aa(lp6638
S'heart'
p6639
aS'depart'
p6640
aa(lp6641
S'qualify'
p6642
aS'lie'
p6643
aa(lp6644
S'ranged'
p6645
aS'exchanged'
p6646
aa(lp6647
S'again'
p6648
aS'stain'
p6649
aa(lp6650
S'reigned'
p6651
aS'stained'
p6652
aa(lp6653
S'blood'
p6654
aS'good'
p6655
aa(lp6656
S'call'
p6657
aS'all'
p6658
aa(lp6659
S'there'
p6660
aS'dear'
p6661
aa(lp6662
S'view'
p6663
aS'new'
p6664
aa(lp6665
S'truth'
p6666
aS'youth'
p6667
aa(lp6668
S'above'
p6669
aS'love'
p6670
aa(lp6671
S'end'
p6672
aS'friend'
p6673
aa(lp6674
S'grind'
p6675
aS'confined'
p6676
aa(lp6677
S'best'
p6678
aS'breast'
p6679
aa(lp6680
S'chide'
p6681
aS'provide'
p6682
aa(lp6683
S'deeds'
p6684
aS'breeds'
p6685
aa(lp6686
S'brand'
p6687
aS'hand'
p6688
aa(lp6689
S'subdued'
p6690
aS'renewed'
p6691
aa(lp6692
S'drink'
p6693
aS'think'
p6694
aa(lp6695
S'infection'
p6696
aS'correction'
p6697
aa(lp6698
S'ye'
p6699
aS'me'
p6700
aa(lp6701
S'fill'
p6702
aS'ill'
p6703
aa(lp6704
S'brow'
p6705
aS'allow'
p6706
aa(lp6707
S'strive'
p6708
aS'alive'
p6709
aa(lp6710
S'tongue'
p6711
aS'wrong'
p6712
aa(lp6713
S'care'
p6714
aS'are'
p6715
aa(lp6716
S'sense'
p6717
aS'dispense'
p6718
aa(lp6719
S'bred'
p6720
aS'dead'
p6721
aa(lp6722
S'mind'
p6723
aS'blind'
p6724
aa(lp6725
S'about'
p6726
aS'out'
p6727
aa(lp6728
S'heart'
p6729
aS'part'
p6730
aa(lp6731
S'latch'
p6732
aS'catch'
p6733
aa(lp6734
S'sight'
p6735
aS'night'
p6736
aa(lp6737
S'creature'
p6738
aS'feature'
p6739
aa(lp6740
S'you'
p6741
aS'untrue'
p6742
aa(lp6743
S'you'
p6744
aS'true'
p6745
aa(lp6746
S'flattery'
p6747
aS'alchemy'
p6748
aa(lp6749
S'indigest'
p6750
aS'best'
p6751
aa(lp6752
S'resemble'
p6753
aS'assemble'
p6754
aa(lp6755
S'seeing'
p6756
aS"'greeing"
p6757
aa(lp6758
S'up'
p6759
aS'cup'
p6760
aa(lp6761
S'sin'
p6762
aS'begin'
p6763
aa(lp6764
S'lie'
p6765
aS'why'
p6766
aa(lp6767
S'dearer'
p6768
aS'clearer'
p6769
aa(lp6770
S'accidents'
p6771
aS'intents'
p6772
aa(lp6773
S'kings'
p6774
aS'things'
p6775
aa(lp6776
S'tyranny'
p6777
aS'incertainty'
p6778
aa(lp6779
S"best'"
p6780
aS'rest'
p6781
aa(lp6782
S'so'
p6783
aS'grow'
p6784
aa(lp6785
S'minds'
p6786
aS'finds'
p6787
aa(lp6788
S'love'
p6789
aS'remove'
p6790
aa(lp6791
S'mark'
p6792
aS'bark'
p6793
aa(lp6794
S'shaken'
p6795
aS'taken'
p6796
aa(lp6797
S'cheeks'
p6798
aS'weeks'
p6799
aa(lp6800
S'come'
p6801
aS'doom'
p6802
aa(lp6803
S'proved'
p6804
aS'loved'
p6805
aa(lp6806
S'all'
p6807
aS'call'
p6808
aa(lp6809
S'repay'
p6810
aS'day'
p6811
aa(lp6812
S'minds'
p6813
aS'winds'
p6814
aa(lp6815
S'right'
p6816
aS'sight'
p6817
aa(lp6818
S'down'
p6819
aS'frown'
p6820
aa(lp6821
S'accumulate'
p6822
aS'hate'
p6823
aa(lp6824
S'prove'
p6825
aS'love'
p6826
aa(lp6827
S'keen'
p6828
aS'unseen'
p6829
aa(lp6830
S'urge'
p6831
aS'purge'
p6832
aa(lp6833
S'sweetness'
p6834
aS'meetness'
p6835
aa(lp6836
S'feeding'
p6837
aS'needing'
p6838
aa(lp6839
S'anticipate'
p6840
aS'state'
p6841
aa(lp6842
S'assured'
p6843
aS'cured'
p6844
aa(lp6845
S'true'
p6846
aS'you'
p6847
aa(lp6848
S'tears'
p6849
aS'fears'
p6850
aa(lp6851
S'within'
p6852
aS'win'
p6853
aa(lp6854
S'committed'
p6855
aS'fitted'
p6856
aa(lp6857
S'never'
p6858
aS'fever'
p6859
aa(lp6860
S'true'
p6861
aS'anew'
p6862
aa(lp6863
S'better'
p6864
aS'greater'
p6865
aa(lp6866
S'content'
p6867
aS'spent'
p6868
aa(lp6869
S'now'
p6870
aS'bow'
p6871
aa(lp6872
S'feel'
p6873
aS'steel'
p6874
aa(lp6875
S'shaken'
p6876
aS'taken'
p6877
aa(lp6878
S'time'
p6879
aS'crime'
p6880
aa(lp6881
S'remembered'
p6882
aS'tendered'
p6883
aa(lp6884
S'hits'
p6885
aS'fits'
p6886
aa(lp6887
S'fee'
p6888
aS'me'
p6889
aa(lp6890
S'esteemed'
p6891
aS'deemed'
p6892
aa(lp6893
S'being'
p6894
aS'seeing'
p6895
aa(lp6896
S'eyes'
p6897
aS'spies'
p6898
aa(lp6899
S'blood'
p6900
aS'good'
p6901
aa(lp6902
S'level'
p6903
aS'bevel'
p6904
aa(lp6905
S'own'
p6906
aS'shown'
p6907
aa(lp6908
S'maintain'
p6909
aS'reign'
p6910
aa(lp6911
S'brain'
p6912
aS'remain'
p6913
aa(lp6914
S'memory'
p6915
aS'eternity'
p6916
aa(lp6917
S'heart'
p6918
aS'part'
p6919
aa(lp6920
S'subsist'
p6921
aS'missed'
p6922
aa(lp6923
S'hold'
p6924
aS'bold'
p6925
aa(lp6926
S'score'
p6927
aS'more'
p6928
aa(lp6929
S'thee'
p6930
aS'me'
p6931
aa(lp6932
S'change'
p6933
aS'strange'
p6934
aa(lp6935
S'might'
p6936
aS'sight'
p6937
aa(lp6938
S'admire'
p6939
aS'desire'
p6940
aa(lp6941
S'old'
p6942
aS'told'
p6943
aa(lp6944
S'defy'
p6945
aS'lie'
p6946
aa(lp6947
S'past'
p6948
aS'haste'
p6949
aa(lp6950
S'be'
p6951
aS'thee'
p6952
aa(lp6953
S'state'
p6954
aS'hate'
p6955
aa(lp6956
S'unfathered'
p6957
aS'gathered'
p6958
aa(lp6959
S'accident'
p6960
aS'discontent'
p6961
aa(lp6962
S'falls'
p6963
aS'calls'
p6964
aa(lp6965
S'heretic'
p6966
aS'politic'
p6967
aa(lp6968
S'hours'
p6969
aS'showers'
p6970
aa(lp6971
S'time'
p6972
aS'crime'
p6973
aa(lp6974
S'canopy'
p6975
aS'eternity'
p6976
aa(lp6977
S'honouring'
p6978
aS'ruining'
p6979
aa(lp6980
S'favour'
p6981
aS'savour'
p6982
aa(lp6983
S'rent'
p6984
aS'spent'
p6985
aa(lp6986
S'heart'
p6987
aS'art'
p6988
aa(lp6989
S'free'
p6990
aS'thee'
p6991
aa(lp6992
S'soul'
p6993
aS'control'
p6994
aa(lp6995
S'fair'
p6996
aS'heir'
p6997
aa(lp6998
S'name'
p6999
aS'shame'
p7000
aa(lp7001
S'power'
p7002
aS'bower'
p7003
aa(lp7004
S'face'
p7005
aS'disgrace'
p7006
aa(lp7007
S'black'
p7008
aS'lack'
p7009
aa(lp7010
S'seem'
p7011
aS'esteem'
p7012
aa(lp7013
S'woe'
p7014
aS'so'
p7015
aa(lp7016
S"play'st"
p7017
aS"sway'st"
p7018
aa(lp7019
S'sounds'
p7020
aS'confounds'
p7021
aa(lp7022
S'leap'
p7023
aS'reap'
p7024
aa(lp7025
S'hand'
p7026
aS'stand'
p7027
aa(lp7028
S'state'
p7029
aS'gait'
p7030
aa(lp7031
S'chips'
p7032
aS'lips'
p7033
aa(lp7034
S'this'
p7035
aS'kiss'
p7036
aa(lp7037
S'shame'
p7038
aS'blame'
p7039
aa(lp7040
S'lust'
p7041
aS'trust'
p7042
aa(lp7043
S'straight'
p7044
aS'bait'
p7045
aa(lp7046
S'had'
p7047
aS'mad'
p7048
aa(lp7049
S'so'
p7050
aS'woe'
p7051
aa(lp7052
S'extreme'
p7053
aS'dream'
p7054
aa(lp7055
S'well'
p7056
aS'hell'
p7057
aa(lp7058
S'sun'
p7059
aS'dun'
p7060
aa(lp7061
S'red'
p7062
aS'head'
p7063
aa(lp7064
S'white'
p7065
aS'delight'
p7066
aa(lp7067
S'cheeks'
p7068
aS'reeks'
p7069
aa(lp7070
S'know'
p7071
aS'go'
p7072
aa(lp7073
S'sound'
p7074
aS'ground'
p7075
aa(lp7076
S'rare'
p7077
aS'compare'
p7078
aa(lp7079
S'art'
p7080
aS'heart'
p7081
aa(lp7082
S'cruel'
p7083
aS'jewel'
p7084
aa(lp7085
S'behold'
p7086
aS'bold'
p7087
aa(lp7088
S'groan'
p7089
aS'alone'
p7090
aa(lp7091
S'swear'
p7092
aS'bear'
p7093
aa(lp7094
S'face'
p7095
aS'place'
p7096
aa(lp7097
S'deeds'
p7098
aS'proceeds'
p7099
aa(lp7100
S'me'
p7101
aS'be'
p7102
aa(lp7103
S'disdain'
p7104
aS'pain'
p7105
aa(lp7106
S'heaven'
p7107
aS'even'
p7108
aa(lp7109
S'east'
p7110
aS'west'
p7111
aa(lp7112
S'face'
p7113
aS'grace'
p7114
aa(lp7115
S'heart'
p7116
aS'part'
p7117
aa(lp7118
S'black'
p7119
aS'lack'
p7120
aa(lp7121
S'groan'
p7122
aS'alone'
p7123
aa(lp7124
S'me'
p7125
aS'be'
p7126
aa(lp7127
S'taken'
p7128
aS'forsaken'
p7129
aa(lp7130
S'engrossed'
p7131
aS'crossed'
p7132
aa(lp7133
S'ward'
p7134
aS'guard'
p7135
aa(lp7136
S'bail'
p7137
aS'gaol'
p7138
aa(lp7139
S'thee'
p7140
aS'me'
p7141
aa(lp7142
S'thine'
p7143
aS'mine'
p7144
aa(lp7145
S'will'
p7146
aS'still'
p7147
aa(lp7148
S'free'
p7149
aS'me'
p7150
aa(lp7151
S'kind'
p7152
aS'bind'
p7153
aa(lp7154
S'take'
p7155
aS'sake'
p7156
aa(lp7157
S'use'
p7158
aS'abuse'
p7159
aa(lp7160
S'me'
p7161
aS'free'
p7162
aa(lp7163
S'will'
p7164
aS'still'
p7165
aa(lp7166
S'over-plus'
p7167
aS'thus'
p7168
aa(lp7169
S'spacious'
p7170
aS'gracious'
p7171
aa(lp7172
S'thine'
p7173
aS'shine'
p7174
aa(lp7175
S'still'
p7176
aS'will'
p7177
aa(lp7178
S'store'
p7179
aS'more'
p7180
aa(lp7181
S'kill'
p7182
aS"'Will'"
p7183
aa(lp7184
S'near'
p7185
aS'there'
p7186
aa(lp7187
S"'Will'"
p7188
aS'fulfil'
p7189
aa(lp7190
S'love'
p7191
aS'prove'
p7192
aa(lp7193
S'one'
p7194
aS'none'
p7195
aa(lp7196
S'untold'
p7197
aS'hold'
p7198
aa(lp7199
S'be'
p7200
aS'thee'
p7201
aa(lp7202
S'still'
p7203
aS'Will'
p7204
aa(lp7205
S'eyes'
p7206
aS'lies'
p7207
aa(lp7208
S'see'
p7209
aS'be'
p7210
aa(lp7211
S'looks'
p7212
aS'hooks'
p7213
aa(lp7214
S'ride'
p7215
aS'tied'
p7216
aa(lp7217
S'plot'
p7218
aS'not'
p7219
aa(lp7220
S'place'
p7221
aS'face'
p7222
aa(lp7223
S'erred'
p7224
aS'transferred'
p7225
aa(lp7226
S'truth'
p7227
aS'youth'
p7228
aa(lp7229
S'lies'
p7230
aS'subtleties'
p7231
aa(lp7232
S'young'
p7233
aS'tongue'
p7234
aa(lp7235
S'best'
p7236
aS'suppressed'
p7237
aa(lp7238
S'unjust'
p7239
aS'trust'
p7240
aa(lp7241
S'old'
p7242
aS'told'
p7243
aa(lp7244
S'me'
p7245
aS'be'
p7246
aa(lp7247
S'wrong'
p7248
aS'tongue'
p7249
aa(lp7250
S'heart'
p7251
aS'art'
p7252
aa(lp7253
S'sight'
p7254
aS'might'
p7255
aa(lp7256
S'aside'
p7257
aS'bide'
p7258
aa(lp7259
S'knows'
p7260
aS'foes'
p7261
aa(lp7262
S'enemies'
p7263
aS'injuries'
p7264
aa(lp7265
S'slain'
p7266
aS'pain'
p7267
aa(lp7268
S'press'
p7269
aS'express'
p7270
aa(lp7271
S'disdain'
p7272
aS'pain'
p7273
aa(lp7274
S'were'
p7275
aS'near'
p7276
aa(lp7277
S'so'
p7278
aS'know'
p7279
aa(lp7280
S'mad'
p7281
aS'bad'
p7282
aa(lp7283
S'thee'
p7284
aS'be'
p7285
aa(lp7286
S'belied'
p7287
aS'wide'
p7288
aa(lp7289
S'eyes'
p7290
aS'despise'
p7291
aa(lp7292
S'note'
p7293
aS'dote'
p7294
aa(lp7295
S'delighted'
p7296
aS'invited'
p7297
aa(lp7298
S'prone'
p7299
aS'alone'
p7300
aa(lp7301
S'can'
p7302
aS'man'
p7303
aa(lp7304
S'thee'
p7305
aS'be'
p7306
aa(lp7307
S'gain'
p7308
aS'pain'
p7309
aa(lp7310
S'hate'
p7311
aS'state'
p7312
aa(lp7313
S'loving'
p7314
aS'reproving'
p7315
aa(lp7316
S'thine'
p7317
aS'mine'
p7318
aa(lp7319
S'ornaments'
p7320
aS'rents'
p7321
aa(lp7322
S'those'
p7323
aS'grows'
p7324
aa(lp7325
S'thee'
p7326
aS'be'
p7327
aa(lp7328
S'hide'
p7329
aS'denied'
p7330
aa(lp7331
S'catch'
p7332
aS'dispatch'
p7333
aa(lp7334
S'away'
p7335
aS'stay'
p7336
aa(lp7337
S'chase'
p7338
aS'face'
p7339
aa(lp7340
S'bent'
p7341
aS'discontent'
p7342
aa(lp7343
S'thee'
p7344
aS'me'
p7345
aa(lp7346
S'behind'
p7347
aS'kind'
p7348
aa(lp7349
S'Will'
p7350
aS'still'
p7351
aa(lp7352
S'despair'
p7353
aS'fair'
p7354
aa(lp7355
S'still'
p7356
aS'ill'
p7357
aa(lp7358
S'evil'
p7359
aS'devil'
p7360
aa(lp7361
S'side'
p7362
aS'pride'
p7363
aa(lp7364
S'fiend'
p7365
aS'friend'
p7366
aa(lp7367
S'tell'
p7368
aS'hell'
p7369
aa(lp7370
S'doubt'
p7371
aS'out'
p7372
aa(lp7373
S'make'
p7374
aS'sake'
p7375
aa(lp7376
S"hate'"
p7377
aS'state'
p7378
aa(lp7379
S'come'
p7380
aS'doom'
p7381
aa(lp7382
S'sweet'
p7383
aS'greet'
p7384
aa(lp7385
S'end'
p7386
aS'fiend'
p7387
aa(lp7388
S'day'
p7389
aS'away'
p7390
aa(lp7391
S'threw'
p7392
aS"you'"
p7393
aa(lp7394
S'earth'
p7395
aS'dearth'
p7396
aa(lp7397
S'array'
p7398
aS'gay'
p7399
aa(lp7400
S'lease'
p7401
aS'excess'
p7402
aa(lp7403
S'spend'
p7404
aS'end'
p7405
aa(lp7406
S'loss'
p7407
aS'dross'
p7408
aa(lp7409
S'store'
p7410
aS'more'
p7411
aa(lp7412
S'men'
p7413
aS'then'
p7414
aa(lp7415
S'still'
p7416
aS'ill'
p7417
aa(lp7418
S'disease'
p7419
aS'please'
p7420
aa(lp7421
S'love'
p7422
aS'approve'
p7423
aa(lp7424
S'kept'
p7425
aS'except'
p7426
aa(lp7427
S'care'
p7428
aS'are'
p7429
aa(lp7430
S'unrest'
p7431
aS'expressed'
p7432
aa(lp7433
S'bright'
p7434
aS'night'
p7435
aa(lp7436
S'head'
p7437
aS'fled'
p7438
aa(lp7439
S'sight'
p7440
aS'aright'
p7441
aa(lp7442
S'dote'
p7443
aS'denote'
p7444
aa(lp7445
S'so'
p7446
aS'no'
p7447
aa(lp7448
S'true'
p7449
aS'view'
p7450
aa(lp7451
S'tears'
p7452
aS'clears'
p7453
aa(lp7454
S'blind'
p7455
aS'find'
p7456
aa(lp7457
S'not'
p7458
aS'forgot'
p7459
aa(lp7460
S'partake'
p7461
aS'sake'
p7462
aa(lp7463
S'friend'
p7464
aS'spend'
p7465
aa(lp7466
S'upon'
p7467
aS'moan'
p7468
aa(lp7469
S'respect'
p7470
aS'defect'
p7471
aa(lp7472
S'despise'
p7473
aS'eyes'
p7474
aa(lp7475
S'mind'
p7476
aS'blind'
p7477
aa(lp7478
S'might'
p7479
aS'sight'
p7480
aa(lp7481
S'sway'
p7482
aS'day'
p7483
aa(lp7484
S'ill'
p7485
aS'skill'
p7486
aa(lp7487
S'deeds'
p7488
aS'exceeds'
p7489
aa(lp7490
S'more'
p7491
aS'abhor'
p7492
aa(lp7493
S'hate'
p7494
aS'state'
p7495
aa(lp7496
S'me'
p7497
aS'thee'
p7498
aa(lp7499
S'is'
p7500
aS'amiss'
p7501
aa(lp7502
S'love'
p7503
aS'prove'
p7504
aa(lp7505
S'betray'
p7506
aS'may'
p7507
aa(lp7508
S'treason'
p7509
aS'reason'
p7510
aa(lp7511
S'thee'
p7512
aS'be'
p7513
aa(lp7514
S'pride'
p7515
aS'side'
p7516
aa(lp7517
S'call'
p7518
aS'fall'
p7519
aa(lp7520
S'forsworn'
p7521
aS'torn'
p7522
aa(lp7523
S'swearing'
p7524
aS'bearing'
p7525
aa(lp7526
S'thee'
p7527
aS'thee'
p7528
aa(lp7529
S'most'
p7530
aS'lost'
p7531
aa(lp7532
S'kindness'
p7533
aS'blindness'
p7534
aa(lp7535
S'constancy'
p7536
aS'see'
p7537
aa(lp7538
g5890
aS'be'
p7539
aa(lp7540
S'asleep'
p7541
aS'steep'
p7542
aa(lp7543
S'found'
p7544
aS'ground'
p7545
aa(lp7546
S'Love'
p7547
aS'prove'
p7548
aa(lp7549
S'endure'
p7550
aS'cure'
p7551
aa(lp7552
S'new-fired'
p7553
aS'desired'
p7554
aa(lp7555
S'breast'
p7556
aS'guest'
p7557
aa(lp7558
S'lies'
p7559
aS'eyes'
p7560
aa(lp7561
S'asleep'
p7562
aS'keep'
p7563
aa(lp7564
S'brand'
p7565
aS'hand'
p7566
aa(lp7567
S'fire'
p7568
aS'desire'
p7569
aa(lp7570
S'warmed'
p7571
aS'disarmed'
p7572
aa(lp7573
S'by'
p7574
aS'remedy'
p7575
aa(lp7576
S'perpetual'
p7577
aS'thrall'
p7578
aa(lp7579
S'prove'
p7580
aS'love'
p7581
aa(lp7582
S'hands'
p7583
aS'bands'
p7584
aa(lp7585
S'might'
p7586
aS'sight'
p7587
aa(lp7588
S'light'
p7589
aS'sprite'
p7590
aa(lp7591
S'look'
p7592
aS'book'
p7593
aa(lp7594
S'brook'
p7595
aS'look'
p7596
aa(lp7597
S'is'
p7598
aS'bliss'
p7599
aa(lp7600
S'alone'
p7601
aS'none'
p7602
aa(lp7603
S'bred'
p7604
aS'fed'
p7605
aa(lp7606
S'heart'
p7607
aS'art'
p7608
aa(lp7609
S'part'
p7610
aS'smart'
p7611
aa(lp7612
S'brood'
p7613
aS'food'
p7614
aa(lp7615
S'proud'
p7616
aS'mood'
p7617
aa(lp7618
S'feet'
p7619
aS'entreat'
p7620
aa(lp7621
S'cherish'
p7622
aS'perish'
p7623
aa(lp7624
S'admire'
p7625
aS'fire'
p7626
aa(lp7627
S'praised'
p7628
aS'raised'
p7629
aa(lp7630
S'dazed'
p7631
aS'amazed'
p7632
aa(lp7633
S'view'
p7634
aS'hew'
p7635
aa(lp7636
S'due'
p7637
aS'true'
p7638
aa(lp7639
S'astonishment'
p7640
aS'wonderment'
p7641
aa(lp7642
S'write'
p7643
aS'endite'
p7644
aa(lp7645
S'gate'
p7646
aS'date'
p7647
aa(lp7648
S'delight'
p7649
aS'sprite'
p7650
aa(lp7651
S'night'
p7652
aS'dight'
p7653
aa(lp7654
S'bower'
p7655
aS'power'
p7656
aa(lp7657
S'hour'
p7658
aS'flower'
p7659
aa(lp7660
S'receive'
p7661
aS'weave'
p7662
aa(lp7663
S'rain'
p7664
aS'entertain'
p7665
aa(lp7666
S'desire'
p7667
aS'admire'
p7668
aa(lp7669
S'pride'
p7670
aS'envied'
p7671
aa(lp7672
S'implied'
p7673
aS'wide'
p7674
aa(lp7675
S'dishonor'
p7676
aS'her'
p7677
aa(lp7678
S'honor'
p7679
aS'banner'
p7680
aa(lp7681
S'eyes'
p7682
aS'enemies'
p7683
aa(lp7684
S'tried'
p7685
aS'pride'
p7686
aa(lp7687
S'mind'
p7688
aS'kind'
p7689
aa(lp7690
S'pride'
p7691
aS'abide'
p7692
aa(lp7693
S'dried'
p7694
aS'divide'
p7695
aa(lp7696
S'fire'
p7697
aS'aspire'
p7698
aa(lp7699
S'desire'
p7700
aS'entire'
p7701
aa(lp7702
S'ever'
p7703
aS'sever'
p7704
aa(lp7705
S'pain'
p7706
aS'remain'
p7707
aa(lp7708
S'heart'
p7709
aS'dart'
p7710
aa(lp7711
S'you'
p7712
aS'view'
p7713
aa(lp7714
S'hew'
p7715
aS'askew'
p7716
aa(lp7717
S'inspired'
p7718
aS'fired'
p7719
aa(lp7720
S'desired'
p7721
aS'admired'
p7722
aa(lp7723
S'best'
p7724
aS'breast'
p7725
aa(lp7726
S'light'
p7727
aS'might'
p7728
aa(lp7729
S'fire'
p7730
aS'conspire'
p7731
aa(lp7732
S'near'
p7733
aS'dear'
p7734
aa(lp7735
S'guest'
p7736
aS'rest'
p7737
aa(lp7738
S'wound'
p7739
aS'bound'
p7740
aa(lp7741
S'within'
p7742
aS'begin'
p7743
aa(lp7744
S'speak'
p7745
aS'weak'
p7746
aa(lp7747
S'never'
p7748
aS'ever'
p7749
aa(lp7750
S'compare'
p7751
aS'dare'
p7752
aa(lp7753
S'sprite'
p7754
aS'light'
p7755
aa(lp7756
S'night'
p7757
aS'sight'
p7758
aa(lp7759
S'never'
p7760
aS'ever'
p7761
aa(lp7762
S'persever'
p7763
aS'sever'
p7764
aa(lp7765
S'tender'
p7766
aS'her'
p7767
aa(lp7768
S'be'
p7769
aS'see'
p7770
aa(lp7771
S'this'
p7772
aS'bliss'
p7773
aa(lp7774
S'be'
p7775
aS'me'
p7776
aa(lp7777
S'see'
p7778
aS'thee'
p7779
aa(lp7780
S'make'
p7781
aS'take'
p7782
aa(lp7783
S'shake'
p7784
aS'make'
p7785
aa(lp7786
S'comptroll'
p7787
aS'enroll'
p7788
aa(lp7789
S'sort'
p7790
aS'sport'
p7791
aa(lp7792
S'peace'
p7793
aS'address'
p7794
aa(lp7795
S'truth'
p7796
aS"renew'th"
p7797
aa(lp7798
S'ruth'
p7799
aS'persueth'
p7800
aa(lp7801
S'toil'
p7802
aS'spoil'
p7803
aa(lp7804
S'assoyle'
p7805
aS'turmoil'
p7806
aa(lp7807
S'pacify'
p7808
aS'die'
p7809
aa(lp7810
S'peace'
p7811
aS'surcease'
p7812
aa(lp7813
S'eyes'
p7814
aS'enemies'
p7815
aa(lp7816
S'entertain'
p7817
aS'train'
p7818
aa(lp7819
S'remain'
p7820
aS'eyen'
p7821
aa(lp7822
S'long'
p7823
aS'throng'
p7824
aa(lp7825
S'strong'
p7826
aS'wrong'
p7827
aa(lp7828
S'hands'
p7829
aS'bands'
p7830
aa(lp7831
S'complain'
p7832
aS'gain'
p7833
aa(lp7834
S'graceth'
p7835
aS'embaseth'
p7836
aa(lp7837
S'sky'
p7838
aS'descry'
p7839
aa(lp7840
S'majesty'
p7841
aS'mortality'
p7842
aa(lp7843
S'born'
p7844
aS'return'
p7845
aa(lp7846
S'scorn'
p7847
aS'forlorn'
p7848
aa(lp7849
S'climb'
p7850
aS'slime'
p7851
aa(lp7852
S'me'
p7853
aS'be'
p7854
aa(lp7855
S'dismayed'
p7856
aS'afraid'
p7857
aa(lp7858
S'quite'
p7859
aS'light'
p7860
aa(lp7861
S'might'
p7862
aS'fight'
p7863
aa(lp7864
S'belay'
p7865
aS'assay'
p7866
aa(lp7867
S'may'
p7868
aS'dismay'
p7869
aa(lp7870
S'heart'
p7871
aS'convert'
p7872
aa(lp7873
S'her'
p7874
aS'her'
p7875
aa(lp7876
S'toil'
p7877
aS'spoil'
p7878
aa(lp7879
S'gain'
p7880
aS'vain'
p7881
aa(lp7882
S'contain'
p7883
aS'plain'
p7884
aa(lp7885
S'found'
p7886
aS'sound'
p7887
aa(lp7888
S'round'
p7889
aS'ground'
p7890
aa(lp7891
S'weene'
p7892
aS'sheen'
p7893
aa(lp7894
S'behold'
p7895
aS'manifold'
p7896
aa(lp7897
S'gaze'
p7898
aS'amaze'
p7899
aa(lp7900
S'light'
p7901
aS'delight'
p7902
aa(lp7903
S'sight'
p7904
aS'bright'
p7905
aa(lp7906
S'fly'
p7907
aS'by'
p7908
aa(lp7909
S'spy'
p7910
aS'eye'
p7911
aa(lp7912
S'heart'
p7913
aS'dart'
p7914
aa(lp7915
S'slain'
p7916
aS'pain'
p7917
aa(lp7918
S'face'
p7919
aS'embase'
p7920
aa(lp7921
S'skill'
p7922
aS'fill'
p7923
aa(lp7924
S'will'
p7925
aS'spill'
p7926
aa(lp7927
S'guide'
p7928
aS'beside'
p7929
aa(lp7930
S'glide'
p7931
aS'pride'
p7932
aa(lp7933
S'heart'
p7934
aS'art'
p7935
aa(lp7936
S'need'
p7937
aS'indeed'
p7938
aa(lp7939
S'round'
p7940
aS'redound'
p7941
aa(lp7942
S'tear'
p7943
aS'wear'
p7944
aa(lp7945
S'tear'
p7946
aS'hear'
p7947
aa(lp7948
S'heart'
p7949
aS'smart'
p7950
aa(lp7951
S'part'
p7952
aS'art'
p7953
aa(lp7954
S'water'
p7955
aS'laughter'
p7956
aa(lp7957
S'vain'
p7958
aS'remain'
p7959
aa(lp7960
S'spring'
p7961
aS'king'
p7962
aa(lp7963
S'sounded'
p7964
aS'crowned'
p7965
aa(lp7966
S'resounded'
p7967
aS'rebounded'
p7968
aa(lp7969
S'praise'
p7970
aS'lays'
p7971
aa(lp7972
S'raise'
p7973
aS'disobeys'
p7974
aa(lp7975
S'ought'
p7976
aS'nought'
p7977
aa(lp7978
S'thee'
p7979
aS'be'
p7980
aa(lp7981
S'grace'
p7982
aS'place'
p7983
aa(lp7984
S'pour'
p7985
aS'floor'
p7986
aa(lp7987
S'power'
p7988
aS'devour'
p7989
aa(lp7990
S'field'
p7991
aS'yield'
p7992
aa(lp7993
S'wild'
p7994
aS'defiled'
p7995
aa(lp7996
S'lioness'
p7997
aS'cruelness'
p7998
aa(lp7999
S'say'
p8000
aS'prey'
p8001
aa(lp8002
S'art'
p8003
aS'part'
p8004
aa(lp8005
S'face'
p8006
aS'grace'
p8007
aa(lp8008
S'displace'
p8009
aS'chase'
p8010
aa(lp8011
S'allure'
p8012
aS'impure'
p8013
aa(lp8014
S'inure'
p8015
aS'recure'
p8016
aa(lp8017
S'dismay'
p8018
aS'away'
p8019
aa(lp8020
S'looks'
p8021
aS'books'
p8022
aa(lp8023
S'pray'
p8024
aS'day'
p8025
aa(lp8026
S'inclined'
p8027
aS'find'
p8028
aa(lp8029
S'mind'
p8030
aS'attend'
p8031
aa(lp8032
S'is'
p8033
aS'amiss'
p8034
aa(lp8035
S'bliss'
p8036
aS'sacrifice'
p8037
aa(lp8038
S'ire'
p8039
aS'desire'
p8040
aa(lp8041
S'accept'
p8042
aS'kept'
p8043
aa(lp8044
S'sake'
p8045
aS'make'
p8046
aa(lp8047
S'deceive'
p8048
aS'unreave'
p8049
aa(lp8050
S'conceive'
p8051
aS'weave'
p8052
aa(lp8053
S'shun'
p8054
aS'undone'
p8055
aa(lp8056
S'begun'
p8057
aS'spun'
p8058
aa(lp8059
S'end'
p8060
aS'rend'
p8061
aa(lp8062
S'find'
p8063
aS'wind'
p8064
aa(lp8065
S'wonderment'
p8066
aS'complement'
p8067
aa(lp8068
S'part'
p8069
aS'art'
p8070
aa(lp8071
S'smart'
p8072
aS'dart'
p8073
aa(lp8074
S'me'
p8075
aS'see'
p8076
aa(lp8077
S'agree'
p8078
aS'be'
p8079
aa(lp8080
S'send'
p8081
aS'offend'
p8082
aa(lp8083
S'intreat'
p8084
aS'beat'
p8085
aa(lp8086
S'endure'
p8087
aS'unsure'
p8088
aa(lp8089
S'mystery'
p8090
aS'doubtfully'
p8091
aa(lp8092
S'die'
p8093
aS'cruelty'
p8094
aa(lp8095
S'pride'
p8096
aS'tried'
p8097
aa(lp8098
S'hide'
p8099
aS'abide'
p8100
aa(lp8101
S'grace'
p8102
aS'embrace'
p8103
aa(lp8104
S'be'
p8105
aS'me'
p8106
aa(lp8107
S'briar'
p8108
aS'near'
p8109
aa(lp8110
S'bough'
p8111
aS'rough'
p8112
aa(lp8113
S'tough'
p8114
aS'enough'
p8115
aa(lp8116
S'pill'
p8117
aS'ill'
p8118
aa(lp8119
S'still'
p8120
aS'will'
p8121
aa(lp8122
S'more'
p8123
aS'store'
p8124
aa(lp8125
S'pain'
p8126
aS'gain'
p8127
aa(lp8128
S'proud'
p8129
aS'shroud'
p8130
aa(lp8131
S'unclean'
p8132
aS'weene'
p8133
aa(lp8134
S'beseen'
p8135
aS'been'
p8136
aa(lp8137
S'attire'
p8138
aS'admire'
p8139
aa(lp8140
S'inquire'
p8141
aS'expire'
p8142
aa(lp8143
S'remain'
p8144
aS'pain'
p8145
aa(lp8146
S'perish'
p8147
aS'cherish'
p8148
aa(lp8149
S'wear'
p8150
aS'bear'
p8151
aa(lp8152
S'mind'
p8153
aS'inclined'
p8154
aa(lp8155
S'find'
p8156
aS'mind'
p8157
aa(lp8158
S'inspire'
p8159
aS'attire'
p8160
aa(lp8161
S'fire'
p8162
aS'ire'
p8163
aa(lp8164
S'fly'
p8165
aS'tree'
p8166
aa(lp8167
S'chace'
p8168
aS'embrace'
p8169
aa(lp8170
S'deprave'
p8171
aS'gave'
p8172
aa(lp8173
S'scorn'
p8174
aS'forlorn'
p8175
aa(lp8176
S'borne'
p8177
aS'adorn'
p8178
aa(lp8179
S'meeds'
p8180
aS'deeds'
p8181
aa(lp8182
S'needs'
p8183
aS'exceeds'
p8184
aa(lp8185
S'thrall'
p8186
aS'all'
p8187
aa(lp8188
S'bays'
p8189
aS'praise'
p8190
aa(lp8191
S'fire'
p8192
aS'desire'
p8193
aa(lp8194
S'great'
p8195
aS'intreat'
p8196
aa(lp8197
S'heat'
p8198
aS'sweat'
p8199
aa(lp8200
S'cold'
p8201
aS'manifold'
p8202
aa(lp8203
S'told'
p8204
aS'cold'
p8205
aa(lp8206
S'ice'
p8207
aS'device'
p8208
aa(lp8209
S'mind'
p8210
aS'kind'
p8211
aa(lp8212
S'heart'
p8213
aS'part'
p8214
aa(lp8215
S'grace'
p8216
aS'deface'
p8217
aa(lp8218
S'race'
p8219
aS'chase'
p8220
aa(lp8221
S'hath'
p8222
aS'wrath'
p8223
aa(lp8224
S'scath'
p8225
aS'bath'
p8226
aa(lp8227
S'hue'
p8228
aS'embrew'
p8229
aa(lp8230
S'accord'
p8231
aS'abhored'
p8232
aa(lp8233
S'heat'
p8234
aS'beat'
p8235
aa(lp8236
S'mollify'
p8237
aS'apply'
p8238
aa(lp8239
S'fry'
p8240
ag5890
aa(lp8241
S'whit'
p8242
aS'wit'
p8243
aa(lp8244
S'fit'
p8245
aS'smit'
p8246
aa(lp8247
S'pride'
p8248
aS'applied'
p8249
aa(lp8250
S'burn'
p8251
aS'turn'
p8252
aa(lp8253
S'deny'
p8254
aS'Fa&edry'
p8255
aa(lp8256
S'dread'
p8257
aS'dead'
p8258
aa(lp8259
S'aread'
p8260
aS'head'
p8261
aa(lp8262
S'it'
p8263
aS'writ'
p8264
aa(lp8265
S'wit'
p8266
aS'fit'
p8267
aa(lp8268
S'toil'
p8269
aS'spoil'
p8270
aa(lp8271
S'rest'
p8272
aS'breast'
p8273
aa(lp8274
S'wide'
p8275
aS'guide'
p8276
aa(lp8277
S'way'
p8278
aS'astray'
p8279
aa(lp8280
S'ray'
p8281
aS'dismay'
p8282
aa(lp8283
S'overcast'
p8284
aS'plast'
p8285
aa(lp8286
S'past'
p8287
aS'last'
p8288
aa(lp8289
S'life'
p8290
aS'grief'
p8291
aa(lp8292
S'comfortless'
p8293
aS'pensiveness'
p8294
aa(lp8295
S'covetize'
p8296
aS'suffice'
p8297
aa(lp8298
S'pain'
p8299
aS'complain'
p8300
aa(lp8301
S'sustain'
p8302
aS'vain'
p8303
aa(lp8304
S'more'
p8305
aS'poor'
p8306
aa(lp8307
S'store'
p8308
aS'before'
p8309
aa(lp8310
S'brook'
p8311
aS'look'
p8312
aa(lp8313
S'me'
p8314
aS'she'
p8315
aa(lp8316
S'end'
p8317
aS'spend'
p8318
aa(lp8319
S'cease'
p8320
aS'release'
p8321
aa(lp8322
S'peace'
p8323
aS'increase'
p8324
aa(lp8325
S'eyes'
p8326
aS'miseries'
p8327
aa(lp8328
S'extermities'
p8329
aS'dispise'
p8330
aa(lp8331
S'gained'
p8332
aS'maintained'
p8333
aa(lp8334
S'moan'
p8335
aS'one'
p8336
aa(lp8337
S'tresses'
p8338
aS'dresses'
p8339
aa(lp8340
S'gold'
p8341
aS'told'
p8342
aa(lp8343
S'bold'
p8344
aS'enfold'
p8345
aa(lp8346
S'snare'
p8347
aS'aware'
p8348
aa(lp8349
S'stare'
p8350
aS'are'
p8351
aa(lp8352
S'net'
p8353
aS'get'
p8354
aa(lp8355
S'free'
p8356
aS'be'
p8357
aa(lp8358
S'wrack'
p8359
aS'make'
p8360
aa(lp8361
S'seas'
p8362
aS'ease'
p8363
aa(lp8364
S'please'
p8365
aS'appease'
p8366
aa(lp8367
S'skill'
p8368
aS'will'
p8369
aa(lp8370
S'still'
p8371
aS'spill'
p8372
aa(lp8373
S'decays'
p8374
aS'praise'
p8375
aa(lp8376
S'good'
p8377
aS'blood'
p8378
aa(lp8379
S'love'
p8380
aS'Jove'
p8381
aa(lp8382
S'art'
p8383
aS'dart'
p8384
aa(lp8385
S'art'
p8386
aS'part'
p8387
aa(lp8388
S'sadness'
p8389
aS'gladness'
p8390
aa(lp8391
S'madness'
p8392
aS'sadness'
p8393
aa(lp8394
S'trance'
p8395
aS'glance'
p8396
aa(lp8397
S'meat'
p8398
aS'eat'
p8399
aa(lp8400
S'cheer'
p8401
aS'appear'
p8402
aa(lp8403
S'it'
p8404
aS'sit'
p8405
aa(lp8406
S'wit'
p8407
aS'flit'
p8408
aa(lp8409
S'day'
p8410
aS'ray'
p8411
aa(lp8412
S'spray'
p8413
aS'dismay'
p8414
aa(lp8415
S'fled'
p8416
aS'head'
p8417
aa(lp8418
S'cheered'
p8419
aS'cleared'
p8420
aa(lp8421
S'will'
p8422
aS'skill'
p8423
aa(lp8424
S'foe'
p8425
aS'forgo'
p8426
aa(lp8427
S'so'
p8428
aS'woe'
p8429
aa(lp8430
S'most'
p8431
aS'lost'
p8432
aa(lp8433
S'boast'
p8434
aS'tossed'
p8435
aa(lp8436
S'beguile'
p8437
aS'spoil'
p8438
aa(lp8439
S'named'
p8440
aS'shamed'
p8441
aa(lp8442
S'tormenteth'
p8443
aS'augmenteth'
p8444
aa(lp8445
S'pain'
p8446
aS'bane'
p8447
aa(lp8448
S'vain'
p8449
aS'remain'
p8450
aa(lp8451
S'smart'
p8452
aS'heart'
p8453
aa(lp8454
S'start'
p8455
aS'pervert'
p8456
aa(lp8457
S'chain'
p8458
aS'restrain'
p8459
aa(lp8460
S'cruelty'
p8461
aS'die'
p8462
aa(lp8463
S'speak'
p8464
aS'break'
p8465
aa(lp8466
S'shall'
p8467
aS'gall'
p8468
aa(lp8469
S'thrall'
p8470
aS'all'
p8471
aa(lp8472
S'tie'
p8473
aS'die'
p8474
aa(lp8475
S'secretly'
p8476
aS'humility'
p8477
aa(lp8478
S'plead'
p8479
aS'read'
p8480
aa(lp8481
S'spell'
p8482
aS'well'
p8483
aa(lp8484
S'Greece'
p8485
aS'fleece'
p8486
aa(lp8487
S'war'
p8488
aS'bar'
p8489
aa(lp8490
S'war'
p8491
aS'are'
p8492
aa(lp8493
S'make'
p8494
aS'aslake'
p8495
aa(lp8496
S'take'
p8497
aS'awake'
p8498
aa(lp8499
S'despight'
p8500
aS'fight'
p8501
aa(lp8502
S'peace'
p8503
aS'increase'
p8504
aa(lp8505
S'clean'
p8506
aS'mean'
p8507
aa(lp8508
S'view'
p8509
aS'true'
p8510
aa(lp8511
S'shew'
p8512
aS'hue'
p8513
aa(lp8514
S'eye'
p8515
aS'immortally'
p8516
aa(lp8517
S'cruelty'
p8518
aS'visnomy'
p8519
aa(lp8520
S'were'
p8521
aS'appear'
p8522
aa(lp8523
S'see'
p8524
aS'be'
p8525
aa(lp8526
S'spent'
p8527
aS'sent'
p8528
aa(lp8529
S'way'
p8530
aS'stay'
p8531
aa(lp8532
S'obey'
p8533
aS'sway'
p8534
aa(lp8535
S'form'
p8536
aS'be'
p8537
aa(lp8538
S'see'
p8539
aS'she'
p8540
aa(lp8541
S'back'
p8542
aS'wrack'
p8543
aa(lp8544
S'sustain'
p8545
aS'rain'
p8546
aa(lp8547
S'looks'
p8548
aS'hooks'
p8549
aa(lp8550
S'tried'
p8551
aS'hide'
p8552
aa(lp8553
S'guide'
p8554
aS'pride'
p8555
aa(lp8556
S'decay'
p8557
aS'pray'
p8558
aa(lp8559
S'slay'
p8560
aS'play'
p8561
aa(lp8562
S'smile'
p8563
aS'beguile'
p8564
aa(lp8565
S'bane'
p8566
aS'pain'
p8567
aa(lp8568
S'hand'
p8569
aS'understand'
p8570
aa(lp8571
S'ire'
p8572
aS'fire'
p8573
aa(lp8574
S'hire'
p8575
aS'conspire'
p8576
aa(lp8577
S'ordained'
p8578
aS'pained'
p8579
aa(lp8580
S'contrained'
p8581
aS'complained'
p8582
aa(lp8583
S'heart'
p8584
aS'smart'
p8585
aa(lp8586
S'will'
p8587
aS'ill'
p8588
aa(lp8589
S'cruel'
p8590
aS'jewel'
p8591
aa(lp8592
S'kill'
p8593
aS'spill'
p8594
aa(lp8595
S'will'
p8596
aS'ill'
p8597
aa(lp8598
S'eyes'
p8599
aS'enemies'
p8600
aa(lp8601
S'cruelties'
p8602
aS'lies'
p8603
aa(lp8604
S'do'
p8605
aS'to'
p8606
aa(lp8607
S'be'
p8608
aS'me'
p8609
aa(lp8610
S'malady'
p8611
aS'apply'
p8612
aa(lp8613
S'grief'
p8614
aS'relief'
p8615
aa(lp8616
S'priefe'
p8617
aS'chief'
p8618
aa(lp8619
S'disease'
p8620
aS'please'
p8621
aa(lp8622
S'appease'
p8623
aS'ease'
p8624
aa(lp8625
S'heart'
p8626
aS'art'
p8627
aa(lp8628
S'reveal'
p8629
aS'heal'
p8630
aa(lp8631
S'images'
p8632
aS'ages'
p8633
aa(lp8634
S'made'
p8635
aS'fade'
p8636
aa(lp8637
S'trade'
p8638
aS'assayed'
p8639
aa(lp8640
S'commend'
p8641
aS'end'
p8642
aa(lp8643
S'attend'
p8644
aS'bend'
p8645
aa(lp8646
S'allure'
p8647
aS'endure'
p8648
aa(lp8649
S'her'
p8650
aS'greater'
p8651
aa(lp8652
S'depart'
p8653
aS'heart'
p8654
aa(lp8655
S'field'
p8656
aS'shield'
p8657
aa(lp8658
S'yield'
p8659
aS'exiled'
p8660
aa(lp8661
S'pain'
p8662
aS'remain'
p8663
aa(lp8664
S'vain'
p8665
aS'disdain'
p8666
aa(lp8667
S'breed'
p8668
aS'feed'
p8669
aa(lp8670
S'make'
p8671
aS'take'
p8672
aa(lp8673
S'hide'
p8674
aS'hide'
p8675
aa(lp8676
S'fray'
p8677
aS'prey'
p8678
aa(lp8679
S'play'
p8680
aS'decay'
p8681
aa(lp8682
S'hue'
p8683
aS'shew'
p8684
aa(lp8685
S'view'
p8686
aS'enbrew'
p8687
aa(lp8688
S'ornament'
p8689
aS'instrument'
p8690
aa(lp8691
S'agree'
p8692
aS'see'
p8693
aa(lp8694
S'stay'
p8695
aS'play'
p8696
aa(lp8697
S'sits'
p8698
aS'wits'
p8699
aa(lp8700
S'fits'
p8701
aS'flits'
p8702
aa(lp8703
S'comedy'
p8704
aS'tragedy'
p8705
aa(lp8706
S'eye'
p8707
aS'cry'
p8708
aa(lp8709
S'smart'
p8710
aS'heart'
p8711
aa(lp8712
S'moan'
p8713
aS'stone'
p8714
aa(lp8715
S'behold'
p8716
aS'mould'
p8717
aa(lp8718
S'compare'
p8719
aS'fair'
p8720
aa(lp8721
S'are'
p8722
aS'rare'
p8723
aa(lp8724
S'fire'
p8725
aS'desire'
p8726
aa(lp8727
S'inquire'
p8728
aS'aspire'
p8729
aa(lp8730
S'sky'
p8731
aS'high'
p8732
aa(lp8733
S'best'
p8734
aS'rest'
p8735
aa(lp8736
S'unkind'
p8737
aS'find'
p8738
aa(lp8739
S'greediness'
p8740
aS'oppress'
p8741
aa(lp8742
S'pityless'
p8743
aS'comfortless'
p8744
aa(lp8745
S'prostrate'
p8746
aS'ruinate'
p8747
aa(lp8748
S'obstinate'
p8749
aS'desolate'
p8750
aa(lp8751
S'floods'
p8752
aS'goods'
p8753
aa(lp8754
g5890
aS'destroy'
p8755
aa(lp8756
S'you'
p8757
aS'sue'
p8758
aa(lp8759
S'were'
p8760
aS'bear'
p8761
aa(lp8762
S'appear'
p8763
aS'everywhere'
p8764
aa(lp8765
S'jot'
p8766
aS'shot'
p8767
aa(lp8768
S'not'
p8769
aS'got'
p8770
aa(lp8771
S'stoures'
p8772
aS'yours'
p8773
aa(lp8774
S'grace'
p8775
aS'space'
p8776
aa(lp8777
S'herself'
p8778
aS'aid'
p8779
aa(lp8780
S'reposeth'
p8781
aS'supposeth'
p8782
aa(lp8783
S'afraid'
p8784
aS'air'
p8785
aa(lp8786
S'unstayed'
p8787
aS'preyed'
p8788
aa(lp8789
S'repair'
p8790
aS'assurance'
p8791
aa(lp8792
S'fair'
p8793
aS'stair'
p8794
aa(lp8795
S'endurence'
p8796
aS'far'
p8797
aa(lp8798
S'are'
p8799
aS'heart'
p8800
aa(lp8801
S'assured'
p8802
aS'allured'
p8803
aa(lp8804
S'start'
p8805
aS'aright'
p8806
aa(lp8807
S'part'
p8808
aS'depart'
p8809
aa(lp8810
S'delight'
p8811
aS'friends'
p8812
aa(lp8813
S'spite'
p8814
aS'might'
p8815
aa(lp8816
S'bends'
p8817
aS'rest'
p8818
aa(lp8819
S'best'
p8820
aS'year'
p8821
aa(lp8822
S'skilled'
p8823
aS'fulfilled'
p8824
aa(lp8825
S'sphere'
p8826
aS'spent'
p8827
aa(lp8828
S'clear'
p8829
aS'appear'
p8830
aa(lp8831
S'outwent'
p8832
aS'contains'
p8833
aa(lp8834
S'invent'
p8835
aS'languishment'
p8836
aa(lp8837
S'pains'
p8838
aS'ways'
p8839
aa(lp8840
S'days'
p8841
aS'thought'
p8842
aa(lp8843
S'beauty'
p8844
aS'duty'
p8845
aa(lp8846
S'aught'
p8847
aS'born'
p8848
aa(lp8849
S'wrought'
p8850
aS'upbrought'
p8851
aa(lp8852
S'adorn'
p8853
aS'admire'
p8854
aa(lp8855
S'morn'
p8856
aS'scorn'
p8857
aa(lp8858
S'aspire'
p8859
aS'be'
p8860
aa(lp8861
S'degree'
p8862
aS'anew'
p8863
aa(lp8864
S'run'
p8865
aS'begun'
p8866
aa(lp8867
S'ensue'
p8868
aS'amend'
p8869
aa(lp8870
S'view'
p8871
aS'eschew'
p8872
aa(lp8873
S'offend'
p8874
aS'ray'
p8875
aa(lp8876
S'send'
p8877
aS'blend'
p8878
aa(lp8879
S'away'
p8880
aS'sprite'
p8881
aa(lp8882
S'delight'
p8883
aS'heretofore'
p8884
aa(lp8885
S'assay'
p8886
aS'dismay'
p8887
aa(lp8888
S'sore'
p8889
aS'arrive'
p8890
aa(lp8891
S'shore'
p8892
aS'store'
p8893
aa(lp8894
S'alive'
p8895
aS'rest'
p8896
aa(lp8897
S'achieve'
p8898
aS'deprive'
p8899
aa(lp8900
S'oppressed'
p8901
aS'this'
p8902
aa(lp8903
S'bliss'
p8904
aS'flowers'
p8905
aa(lp8906
S'found'
p8907
aS'around'
p8908
aa(lp8909
S'bowers'
p8910
aS'red'
p8911
aa(lp8912
S'Gillyflowers'
p8913
aS'Bellamores'
p8914
aa(lp8915
S'spread'
p8916
aS'Columbines'
p8917
aa(lp8918
S'bed'
p8919
aS'shed'
p8920
aa(lp8921
S'Jasmines'
p8922
aS'smell'
p8923
aa(lp8924
S'excel'
p8925
aS'liberty'
p8926
aa(lp8927
S'vain'
p8928
aS'gain'
p8929
aa(lp8930
S'fly'
p8931
aS'ill'
p8932
aa(lp8933
S'tie'
p8934
aS'captivity'
p8935
aa(lp8936
S'fill'
p8937
aS'bound'
p8938
aa(lp8939
S'spill'
p8940
aS'will'
p8941
aa(lp8942
S'wound'
p8943
aS'tower'
p8944
aa(lp8945
S'bower'
p8946
aS'thrown'
p8947
aa(lp8948
S'have'
p8949
aS'gave'
p8950
aa(lp8951
S'one'
p8952
aS'mate'
p8953
aa(lp8954
S'paragon'
p8955
aS'none'
p8956
aa(lp8957
S'state'
p8958
aS'peer'
p8959
aa(lp8960
S'gate'
p8961
aS'dilate'
p8962
aa(lp8963
S'appear'
p8964
aS'me'
p8965
aa(lp8966
S'be'
p8967
aS'away'
p8968
aa(lp8969
S'chase'
p8970
aS'place'
p8971
aa(lp8972
S'pray'
p8973
aS'forsook'
p8974
aa(lp8975
S'assay'
p8976
aS'way'
p8977
aa(lp8978
S'brook'
p8979
aS'bide'
p8980
aa(lp8981
S'look'
p8982
aS'took'
p8983
aa(lp8984
S'tied'
p8985
aS'wild'
p8986
aa(lp8987
S'beguiled'
p8988
aS'sin'
p8989
aa(lp8990
S'day'
p8991
aS'away'
p8992
aa(lp8993
S'win'
p8994
aS'die'
p8995
aa(lp8996
S'begin'
p8997
aS'sin'
p8998
aa(lp8999
S'felicity'
p9000
aS'again'
p9001
aa(lp9002
S'worthily'
p9003
aS'buy'
p9004
aa(lp9005
S'entertain'
p9006
aS'ought'
p9007
aa(lp9008
S'taught'
p9009
aS'wise'
p9010
aa(lp9011
S'world'
p9012
aS'enrolled'
p9013
aa(lp9014
S'emprize'
p9015
aS'memory'
p9016
aa(lp9017
S'devise'
p9018
aS'prize'
p9019
aa(lp9020
S'chastity'
p9021
aS'monument'
p9022
aa(lp9023
S'eternity'
p9024
aS'posterity'
p9025
aa(lp9026
S'wonderment'
p9027
aS'spoil'
p9028
aa(lp9029
S'toil'
p9030
aS'displayed'
p9031
aa(lp9032
S'king'
p9033
aS'spring'
p9034
aa(lp9035
S'displayed'
p9036
aS'awake'
p9037
aa(lp9038
S'laid'
p9039
aS'staid'
p9040
aa(lp9041
S'take'
p9042
aS'crew'
p9043
aa(lp9044
S'make'
p9045
aS'make'
p9046
aa(lp9047
S'due'
p9048
aS'prime'
p9049
aa(lp9050
S'time'
p9051
aS'compare'
p9052
aa(lp9053
S'work'
p9054
aS'lurk'
p9055
aa(lp9056
S'unaware'
p9057
aS'love'
p9058
aa(lp9059
S'snare'
p9060
aS'are'
p9061
aa(lp9062
S'remove'
p9063
aS'Eglantine'
p9064
aa(lp9065
S'above'
p9066
aS'prove'
p9067
aa(lp9068
S'fine'
p9069
aS'see'
p9070
aa(lp9071
S'bee'
p9072
aS'sky'
p9073
aa(lp9074
S'wings'
p9075
aS'things'
p9076
aa(lp9077
S'mortality'
p9078
aS'light'
p9079
aa(lp9080
S'spy'
p9081
aS'fly'
p9082
aa(lp9083
S'flight'
p9084
aS'ease'
p9085
aa(lp9086
S'delight'
p9087
aS'might'
p9088
aa(lp9089
S'please'
p9090
aS'happiness'
p9091
aa(lp9092
S'bliss'
p9093
aS'tie'
p9094
aa(lp9095
S'care'
p9096
aS'hair'
p9097
aa(lp9098
S'fly'
p9099
aS'flight'
p9100
aa(lp9101
S'spy'
p9102
aS'eye'
p9103
aa(lp9104
S'sight'
p9105
aS'thrall'
p9106
aa(lp9107
S'bright'
p9108
aS'delight'
p9109
aa(lp9110
S'all'
p9111
aS'repent'
p9112
aa(lp9113
S'lent'
p9114
aS'designed'
p9115
aa(lp9116
S'trade'
p9117
aS'made'
p9118
aa(lp9119
S'mind'
p9120
aS'descent'
p9121
aa(lp9122
S'kind'
p9123
aS'kind'
p9124
aa(lp9125
S'lent'
p9126
aS'raised'
p9127
aa(lp9128
S'ornament'
p9129
aS'excellent'
p9130
aa(lp9131
S'praised'
p9132
aS'live'
p9133
aa(lp9134
S'give'
p9135
aS'away'
p9136
aa(lp9137
S'strand'
p9138
aS'hand'
p9139
aa(lp9140
S'prey'
p9141
aS'immortalize'
p9142
aa(lp9143
S'assay'
p9144
aS'decay'
p9145
aa(lp9146
S'likewise'
p9147
aS'fame'
p9148
aa(lp9149
S'devise'
p9150
aS'eternize'
p9151
aa(lp9152
S'name'
p9153
aS'subdue'
p9154
aa(lp9155
S'renew'
p9156
aS'delight'
p9157
aa(lp9158
S'treasure'
p9159
aS'pleasure'
p9160
aa(lp9161
S'sprite'
p9162
aS'astray'
p9163
aa(lp9164
S'sight'
p9165
aS'insight'
p9166
aa(lp9167
S'prey'
p9168
aS'apace'
p9169
aa(lp9170
S'May'
p9171
aS'display'
p9172
aa(lp9173
S'place'
p9174
aS'rest'
p9175
aa(lp9176
S'blest'
p9177
aS'ivory'
p9178
aa(lp9179
S'plain'
p9180
aS'entertain'
p9181
aa(lp9182
S'royalty'
p9183
aS'price'
p9184
aa(lp9185
S'lie'
p9186
aS'by'
p9187
aa(lp9188
S'entice'
p9189
aS'taste'
p9190
aa(lp9191
S'vice'
p9192
aS'paradise'
p9193
aa(lp9194
S'placed'
p9195
aS'spread'
p9196
aa(lp9197
S'fed'
p9198
aS'hind'
p9199
aa(lp9200
S'place'
p9201
aS'face'
p9202
aa(lp9203
S'mind'
p9204
aS'decked'
p9205
aa(lp9206
S'signed'
p9207
aS'find'
p9208
aa(lp9209
S'aspect'
p9210
aS'again'
p9211
aa(lp9212
S'direct'
p9213
aS'object'
p9214
aa(lp9215
S'vain'
p9216
aS'see'
p9217
aa(lp9218
S'me'
p9219
aS'see'
p9220
aa(lp9221
S'it'
p9222
aS'wit'
p9223
aa(lp9224
S'me'
p9225
aS'hue'
p9226
aa(lp9227
S'be'
p9228
aS'free'
p9229
aa(lp9230
S'ensue'
p9231
aS'seed'
p9232
aa(lp9233
S'you'
p9234
aS'true'
p9235
aa(lp9236
S'proceed'
p9237
aS'made'
p9238
aa(lp9239
S'fade'
p9240
aS'compile'
p9241
aa(lp9242
S'run'
p9243
aS'fordone'
p9244
aa(lp9245
S'awhile'
p9246
aS'anew'
p9247
aa(lp9248
S'toil'
p9249
aS'assoyle'
p9250
aa(lp9251
S'due'
p9252
aS'praise'
p9253
aa(lp9254
S'mew'
p9255
aS'hue'
p9256
aa(lp9257
S'raise'
p9258
aS'mean'
p9259
aa(lp9260
S'Queene'
p9261
aS'mark'
p9262
aa(lp9263
S'heares'
p9264
aS'appears'
p9265
aa(lp9266
S'spark'
p9267
aS'lay'
p9268
aa(lp9269
S'bark'
p9270
aS'dark'
p9271
aa(lp9272
S'away'
p9273
aS'dight'
p9274
aa(lp9275
S'display'
p9276
aS'way'
p9277
aa(lp9278
S'sprite'
p9279
aS'wonderment'
p9280
aa(lp9281
S'astonishment'
p9282
aS'placed'
p9283
aa(lp9284
S'you'
p9285
aS'rue'
p9286
aa(lp9287
S'debased'
p9288
aS'invent'
p9289
aa(lp9290
S'graced'
p9291
aS'enchased'
p9292
aa(lp9293
S'monument'
p9294
aS'worth'
p9295
aa(lp9296
S'relent'
p9297
aS'spent'
p9298
aa(lp9299
S'forth'
p9300
aS'me'
p9301
aa(lp9302
S'degree'
p9303
aS'pain'
p9304
aa(lp9305
S'covetize'
p9306
aS'suffice'
p9307
aa(lp9308
S'complain'
p9309
aS'more'
p9310
aa(lp9311
S'sustain'
p9312
aS'vain'
p9313
aa(lp9314
S'poor'
p9315
aS'brook'
p9316
aa(lp9317
S'store'
p9318
aS'before'
p9319
aa(lp9320
S'look'
p9321
aS'me'
p9322
aa(lp9323
S'she'
p9324
aS'desire'
p9325
aa(lp9326
S'fire'
p9327
aS'unrest'
p9328
aa(lp9329
S'breast'
p9330
aS'rest'
p9331
aa(lp9332
S'sprites'
p9333
aS'delights'
p9334
aa(lp9335
S'sights'
p9336
aS'plights'
p9337
aa(lp9338
S'attain'
p9339
aS'constrain'
p9340
aa(lp9341
S'perfection'
p9342
aS'election'
p9343
aa(lp9344
S'things'
p9345
aS'sings'
p9346
aa(lp9347
S'flatter'
p9348
aS'clatter'
p9349
aa(lp9350
S'matter'
p9351
aS'her'
p9352
aa(lp9353
S'admire'
p9354
aS'aspire'
p9355
aa(lp9356
S'entire'
p9357
aS'inspire'
p9358
aa(lp9359
S'quill'
p9360
aS'fill'
p9361
aa(lp9362
S'thunder'
p9363
aS'wonder'
p9364
aa(lp9365
S'sting'
p9366
aS'spring'
p9367
aa(lp9368
S'fell'
p9369
aS'well'
p9370
aa(lp9371
S'hell'
p9372
aS'tell'
p9373
aa(lp9374
S'hire'
p9375
aS'ire'
p9376
aa(lp9377
S'fire'
p9378
aS'conspire'
p9379
aa(lp9380
S'head'
p9381
aS'bred'
p9382
aa(lp9383
S'reward'
p9384
aS'prepared'
p9385
aa(lp9386
S'love'
p9387
aS'move'
p9388
aa(lp9389
S'outworn'
p9390
aS'morn'
p9391
aa(lp9392
S'adorn'
p9393
aS'forlorn'
p9394
aa(lp9395
S'end'
p9396
aS'reascend'
p9397
aa(lp9398
S'spend'
p9399
aS'extend'
p9400
aa(lp9401
S'beguile'
p9402
aS'mile'
p9403
aa(lp9404
S'last'
p9405
aS'fast'
p9406
aa(lp9407
S'light'
p9408
aS'night'
p9409
aa(lp9410
S'astray'
p9411
aS'dismay'
p9412
aa(lp9413
S'day'
p9414
aS'ray'
p9415
aa(lp9416
S'vain'
p9417
aS'remain'
p9418
aa(lp9419
S'plain'
p9420
aS'sustain'
p9421
aa(lp9422
S'part'
p9423
aS'heart'
p9424
aa(lp9425
S'mind'
p9426
aS'blind'
p9427
aa(lp9428
S'bough'
p9429
aS'vow'
p9430
aa(lp9431
S'mate'
p9432
aS'late'
p9433
aa(lp9434
S'disconsolate'
p9435
aS'desolate'
p9436
aa(lp9437
S'love'
p9438
aS'dove'
p9439
aa(lp9440
S'hove'
p9441
aS'move'
p9442
aa(lp9443
S'sight'
p9444
aS'delight'
p9445
aa(lp9446
S'miss'
p9447
aS'bliss'
p9448
aasS'D'
p9449
I26
sS'L'
p9450
I10
sS'O'
p9451
(lp9452
(lp9453
F0.5154184381462927
aF0.1626100613812527
aF0.12807875462061163
aF1.6266008560285581e-46
aF0.044934880099821106
aF0.005901294789296964
aF0.002118263980087666
aF0.02170084699656005
aF8.075011135653162e-61
aF1.9054277467725228e-101
aF0.012062327143995369
aF2.154883788255072e-226
aF0.002374523939960403
aF0.024563336690680837
aF0.031889349193649726
aF0.0007935883558261172
aF0.004570048193536618
aF0.004476547123541385
aF8.044115399045115e-272
aF0.010252135089569256
aF6.2977367234792e-92
aF0.019150787062793044
aF0.00853527766725297
aF6.21632128074528e-77
aF0.000569539525256829
aF0.0
aa(lp9454
F0.38182330572410544
aF0.010799262374140943
aF0.0011088229610052068
aF1.5218223388463146e-111
aF0.04360241202701434
aF0.19403929275879456
aF0.022692678965660584
aF1.9839820591963672e-80
aF0.025651617489646825
aF1.9644148211201804e-109
aF0.010152381827893518
aF0.24433780512284864
aF0.013785430323217596
aF5.9401608369270854e-217
aF2.0326613336819045e-105
aF0.05059347883631927
aF7.791073794880207e-140
aF1.1190276508301701e-115
aF5.287164921062848e-279
aF2.220865581689178e-143
aF5.179716989998554e-98
aF8.632843744873001e-230
aF5.92970238378681e-191
aF0.0014135115893433995
aF9.318756713074618e-53
aF0.0
aa(lp9455
F0.8651604221875981
aF2.6810582613294237e-302
aF0.12359079738654528
aF0.0
aF8.018122998713317e-146
aF6.427910733482586e-174
aF1.03623548627161e-107
aF0.0
aF0.0
aF0.0
aF9.678672250071536e-32
aF0.0
aF2.3738711247570254e-115
aF1.0457628020372032e-297
aF0.004956226388121994
aF0.0062925540377429725
aF0.0
aF4.265738527103937e-291
aF0.0
aF0.0
aF0.0
aF0.0
aF9.903402568730767e-132
aF8.612567008106117e-19
aF3.3829494760818383e-34
aF0.0
aa(lp9456
F0.763150828529962
aF1.066355691846135e-108
aF0.206312157163861
aF1.4814408879090654e-63
aF6.966457703209147e-78
aF0.00882868631760519
aF0.003129981358577026
aF0.0020255579254743607
aF1.681758285252236e-12
aF0.0
aF4.041515396866242e-44
aF0.0
aF2.0122024227975145e-87
aF1.538604660288846e-64
aF0.0020102591737662955
aF2.201393165466577e-78
aF0.0003248426355614849
aF2.0451820797186878e-29
aF0.0
aF0.0004860617321692319
aF0.0
aF0.0032472231883159644
aF0.004071466320307243
aF0.006194709503797883
aF0.00021822614892209573
aF0.0
aa(lp9457
F0.49508417082167666
aF7.495092867997832e-142
aF2.7616213558046e-12
aF1.680976349402294e-176
aF2.3921290596242254e-27
aF3.4032455653391398e-195
aF7.644596327257316e-31
aF1.0052426391299587e-130
aF5.630074344641351e-148
aF4.25e-322
aF0.1845689334422326
aF0.0
aF0.31838776632676086
aF3.0083382046092255e-147
aF7.625695868794671e-15
aF6.199226282539512e-82
aF1.1347111553068248e-10
aF2.39897816701533e-209
aF0.0
aF4.132617116892838e-142
aF4.091230271100004e-173
aF0.0
aF5.4420878311817e-71
aF7.19419474697836e-27
aF0.001959129293084754
aF0.0
aa(lp9458
F0.5948465213390977
aF5.855669420804149e-220
aF0.030719856302653132
aF1.2093858952065434e-53
aF0.03957773051361772
aF4.4830868401432803e-32
aF0.004554692339699589
aF5.231370437477741e-44
aF1.1832034228697499e-185
aF2.264216777948484e-93
aF0.20873191882106706
aF3.2588017393581905e-159
aF0.042911119553738504
aF1.835334928462076e-137
aF0.03670314737394385
aF0.001700202569890661
aF0.019343557281237694
aF4.675260927769514e-93
aF2.2227598789063167e-39
aF3.881737173443484e-173
aF0.0
aF1.108354195647226e-24
aF0.00621174821944964
aF0.009354492410853064
aF0.0053450132747411
aF0.0
aa(lp9459
F0.683754919843423
aF0.005565569020492552
aF1.9844336224030825e-100
aF1.7853895938831915e-195
aF1.3501644329461725e-12
aF9.119650326347476e-284
aF1.6068649558784987e-167
aF5.963880926127536e-58
aF4.993879023612993e-262
aF1.7708072527213998e-220
aF0.013582231617864052
aF1.0576936266050789e-287
aF2.3322475925535977e-77
aF2.815216578434359e-285
aF0.002810923473317612
aF0.287843551773482
aF0.0015848739899796435
aF1.2923046052297184e-293
aF3.9767332854915795e-99
aF0.003606660428057512
aF0.0
aF0.0
aF0.0012512698520406964
aF6.106940587615786e-148
aF0.0
aF0.0
aa(lp9460
F0.009013776561375374
aF1.0738211782032405e-22
aF0.028741901163311483
aF0.5586869627672426
aF0.044573755047028076
aF6.647080570584185e-08
aF0.011813839009288861
aF0.024663535948347828
aF0.1404540094224735
aF1.2780035848143334e-56
aF0.00021615913335322321
aF0.02876702722411186
aF2.061386498042052e-43
aF0.03536258773194895
aF0.015547406357155097
aF0.024633057239343042
aF5.998756124742583e-85
aF0.03367637631932691
aF4.700953230117073e-66
aF0.011438960980812117
aF0.006535684125902809
aF0.02176994881410212
aF0.0007591386439992627
aF0.0031792337059174474
aF2.4807303439553336e-65
aF0.00016657333415839078
aa(lp9461
F0.17020291294982717
aF0.03554322453731105
aF1.696315094624888e-05
aF8.223984752233459e-40
aF0.037537912378168475
aF2.9337318142385432e-05
aF2.1205582713270476e-18
aF0.3571451155872239
aF6.254214779021961e-101
aF0.31306963433237417
aF0.042043825645555
aF7.383784191745861e-31
aF0.0003503100819600353
aF2.9491660476780367e-43
aF0.005712314283146737
aF2.482919564066949e-19
aF0.0005487125567366816
aF7.215787141649308e-111
aF0.009404463323818356
aF0.008336869463745608
aF2.333882287845345e-118
aF0.0013943444057302554
aF0.012080968646791762
aF0.006583091338032549
aF4.902686508001136e-13
aF0.0
aa(lp9462
F0.13551769842556396
aF0.09378582705557131
aF0.030869108885665228
aF3.266344067427385e-48
aF0.27944268958504226
aF0.03388809380442909
aF0.04589807154975519
aF3.7507063409535344e-19
aF0.1181913513129774
aF2.707909422772529e-139
aF0.020302013105805584
aF1.033873588407994e-162
aF0.03508629451707226
aF1.8932023563473787e-42
aF0.014072476957701143
aF0.08446583414469695
aF0.019436704107888083
aF0.03876911368685328
aF5.165725458857931e-167
aF0.0030747023633394223
aF0.03323063644047709
aF4.9534794735822375e-26
aF1.5765964465337814e-125
aF0.011684092003360833
aF0.0022852920538021537
aF0.0
aasS'A_start'
p9463
(lp9464
F0.1
aF0.1
aF0.1
aF0.1
aF0.1
aF0.1
aF0.1
aF0.1
aF0.1
aF0.1
asb.