(lp0
(lp1
S'increase'
p2
aS'decease'
p3
aa(lp4
S'die'
p5
aS'memory'
p6
aa(lp7
S'eyes'
p8
aS'lies'
p9
aa(lp10
S'fuel'
p11
aS'cruel'
p12
aa(lp13
S'ornament'
p14
aS'content'
p15
aa(lp16
S'spring'
p17
aS'niggarding'
p18
aa(lp19
S'be'
p20
aS'thee'
p21
aa(lp22
S'brow'
p23
aS'now'
p24
aa(lp25
S'field'
p26
aS'held'
p27
aa(lp28
S'lies'
p29
aS'eyes'
p30
aa(lp31
S'days'
p32
aS'praise'
p33
aa(lp34
S'use'
p35
aS"excuse'"
p36
aa(lp37
S'mine'
p38
aS'thine'
p39
aa(lp40
S'old'
p41
aS'cold'
p42
aa(lp43
S'viewest'
p44
aS'renewest'
p45
aa(lp46
S'another'
p47
aS'mother'
p48
aa(lp49
S'womb'
p50
aS'tomb'
p51
aa(lp52
S'husbandry'
p53
aS'posterity'
p54
aa(lp55
S'thee'
p56
aS'see'
p57
aa(lp58
S'prime'
p59
aS'time'
p60
aa(lp61
S'be'
p62
aS'thee'
p63
aa(lp64
S'spend'
p65
aS'lend'
p66
aa(lp67
S'legacy'
p68
aS'free'
p69
aa(lp70
S'abuse'
p71
aS'use'
p72
aa(lp73
S'give'
p74
aS'live'
p75
aa(lp76
S'alone'
p77
aS'gone'
p78
aa(lp79
S'deceive'
p80
aS'leave'
p81
aa(lp82
S'thee'
p83
aS'be'
p84
aa(lp85
S'frame'
p86
aS'same'
p87
aa(lp88
S'dwell'
p89
aS'excel'
p90
aa(lp91
S'on'
p92
aS'gone'
p93
aa(lp94
S'there'
p95
aS'where'
p96
aa(lp97
S'left'
p98
aS'bereft'
p99
aa(lp100
S'glass'
p101
aS'was'
p102
aa(lp103
S'meet'
p104
aS'sweet'
p105
aa(lp106
S'deface'
p107
aS'place'
p108
aa(lp109
S'distilled'
p110
aS'self-killed'
p111
aa(lp112
S'usury'
p113
aS'thee'
p114
aa(lp115
S'loan'
p116
aS'one'
p117
aa(lp118
S'art'
p119
aS'depart'
p120
aa(lp121
S'thee'
p122
aS'posterity'
p123
aa(lp124
S'fair'
p125
aS'heir'
p126
aa(lp127
S'light'
p128
aS'sight'
p129
aa(lp130
S'eye'
p131
aS'majesty'
p132
aa(lp133
S'hill'
p134
aS'still'
p135
aa(lp136
S'age'
p137
aS'pilgrimage'
p138
aa(lp139
S'car'
p140
aS'are'
p141
aa(lp142
S'day'
p143
aS'way'
p144
aa(lp145
S'noon'
p146
aS'son'
p147
aa(lp148
S'sadly'
p149
aS'gladly'
p150
aa(lp151
S'joy'
p152
aS'annoy'
p153
aa(lp154
S'sounds'
p155
aS'confounds'
p156
aa(lp157
S'ear'
p158
aS'bear'
p159
aa(lp160
S'another'
p161
aS'mother'
p162
aa(lp163
S'ordering'
p164
aS'sing'
p165
aa(lp166
S'one'
p167
aS"none'"
p168
aa(lp169
S'eye'
p170
aS'die'
p171
aa(lp172
S'life'
p173
aS'wife'
p174
aa(lp175
S'weep'
p176
aS'keep'
p177
aa(lp178
S'behind'
p179
aS'mind'
p180
aa(lp181
S'spend'
p182
aS'end'
p183
aa(lp184
S'it'
p185
aS'it'
p186
aa(lp187
S'sits'
p188
aS'commits'
p189
aa(lp190
S'any'
p191
aS'many'
p192
aa(lp193
S'unprovident'
p194
aS'evident'
p195
aa(lp196
S'hate'
p197
aS'ruinate'
p198
aa(lp199
S'conspire'
p200
aS'desire'
p201
aa(lp202
S'mind'
p203
aS'kind'
p204
aa(lp205
S'love'
p206
aS'prove'
p207
aa(lp208
S'me'
p209
aS'thee'
p210
aa(lp211
S"grow'st"
p212
aS"bestow'st"
p213
aa(lp214
S'departest'
p215
aS'convertest'
p216
aa(lp217
S'increase'
p218
aS'cease'
p219
aa(lp220
S'decay'
p221
aS'away'
p222
aa(lp223
S'store'
p224
aS'more'
p225
aa(lp226
S'perish'
p227
aS'cherish'
p228
aa(lp229
S'thereby'
p230
aS'die'
p231
aa(lp232
S'time'
p233
aS'prime'
p234
aa(lp235
S'night'
p236
aS'white'
p237
aa(lp238
S'leaves'
p239
aS'sheaves'
p240
aa(lp241
S'herd'
p242
aS'beard'
p243
aa(lp244
S'make'
p245
aS'forsake'
p246
aa(lp247
S'go'
p248
aS'grow'
p249
aa(lp250
S'defence'
p251
aS'hence'
p252
aa(lp253
S'are'
p254
aS'prepare'
p255
aa(lp256
S'live'
p257
aS'give'
p258
aa(lp259
S'lease'
p260
aS'decease'
p261
aa(lp262
S'were'
p263
aS'bear'
p264
aa(lp265
S'decay'
p266
aS'day'
p267
aa(lp268
S'uphold'
p269
aS'cold'
p270
aa(lp271
S'know'
p272
aS'so'
p273
aa(lp274
S'pluck'
p275
aS'luck'
p276
aa(lp277
S'astronomy'
p278
aS'quality'
p279
aa(lp280
S'tell'
p281
aS'well'
p282
aa(lp283
S'wind'
p284
aS'find'
p285
aa(lp286
S'derive'
p287
aS'thrive'
p288
aa(lp289
S'art'
p290
aS'convert'
p291
aa(lp292
S'prognosticate'
p293
aS'date'
p294
aa(lp295
S'grows'
p296
aS'shows'
p297
aa(lp298
S'moment'
p299
aS'comment'
p300
aa(lp301
S'increase'
p302
aS'decrease'
p303
aa(lp304
S'sky'
p305
aS'memory'
p306
aa(lp307
S'stay'
p308
aS'decay'
p309
aa(lp310
S'sight'
p311
aS'night'
p312
aa(lp313
S'you'
p314
aS'new'
p315
aa(lp316
S'way'
p317
aS'decay'
p318
aa(lp319
S'Time'
p320
aS'rhyme'
p321
aa(lp322
S'hours'
p323
aS'flowers'
p324
aa(lp325
S'unset'
p326
aS'counterfeit'
p327
aa(lp328
S'repair'
p329
aS'fair'
p330
aa(lp331
S'pen'
p332
aS'men'
p333
aa(lp334
S'still'
p335
aS'skill'
p336
aa(lp337
S'come'
p338
aS'tomb'
p339
aa(lp340
S'deserts'
p341
aS'parts'
p342
aa(lp343
S'eyes'
p344
aS'lies'
p345
aa(lp346
S'graces'
p347
aS'faces'
p348
aa(lp349
S'age'
p350
aS'rage'
p351
aa(lp352
S'tongue'
p353
aS'song'
p354
aa(lp355
S'time'
p356
aS'rhyme'
p357
aa(lp358
S'day'
p359
aS'May'
p360
aa(lp361
S'temperate'
p362
aS'date'
p363
aa(lp364
S'shines'
p365
aS'declines'
p366
aa(lp367
S'dimmed'
p368
aS'untrimmed'
p369
aa(lp370
S'fade'
p371
aS'shade'
p372
aa(lp373
S"ow'st"
p374
aS"grow'st"
p375
aa(lp376
S'see'
p377
aS'thee'
p378
aa(lp379
S'paws'
p380
aS'jaws'
p381
aa(lp382
S'brood'
p383
aS'blood'
p384
aa(lp385
S"fleet'st"
p386
aS'sweets'
p387
aa(lp388
S'Time'
p389
aS'crime'
p390
aa(lp391
S'brow'
p392
aS'allow'
p393
aa(lp394
S'pen'
p395
aS'men'
p396
aa(lp397
S'wrong'
p398
aS'young'
p399
aa(lp400
S'painted'
p401
aS'acquainted'
p402
aa(lp403
S'passion'
p404
aS'fashion'
p405
aa(lp406
S'rolling'
p407
aS'controlling'
p408
aa(lp409
S'gazeth'
p410
aS'amazeth'
p411
aa(lp412
S'created'
p413
aS'defeated'
p414
aa(lp415
S'a-doting'
p416
aS'nothing'
p417
aa(lp418
S'pleasure'
p419
aS'treasure'
p420
aa(lp421
S'muse'
p422
aS'use'
p423
aa(lp424
S'verse'
p425
aS'rehearse'
p426
aa(lp427
S'compare'
p428
aS'rare'
p429
aa(lp430
S'gems'
p431
aS'hems'
p432
aa(lp433
S'write'
p434
aS'bright'
p435
aa(lp436
S'fair'
p437
aS'air'
p438
aa(lp439
S'well'
p440
aS'sell'
p441
aa(lp442
S'old'
p443
aS'behold'
p444
aa(lp445
S'date'
p446
aS'expiate'
p447
aa(lp448
S'thee'
p449
aS'me'
p450
aa(lp451
S'heart'
p452
aS'art'
p453
aa(lp454
S'wary'
p455
aS'chary'
p456
aa(lp457
S'will'
p458
aS'ill'
p459
aa(lp460
S'slain'
p461
aS'again'
p462
aa(lp463
S'stage'
p464
aS'rage'
p465
aa(lp466
S'part'
p467
aS'heart'
p468
aa(lp469
S'say'
p470
aS'decay'
p471
aa(lp472
S'rite'
p473
aS'might'
p474
aa(lp475
S'eloquence'
p476
aS'recompense'
p477
aa(lp478
S'breast'
p479
aS'expressed'
p480
aa(lp481
S'writ'
p482
aS'wit'
p483
aa(lp484
S'stelled'
p485
aS'held'
p486
aa(lp487
S'heart'
p488
aS'art'
p489
aa(lp490
S'skill'
p491
aS'still'
p492
aa(lp493
S'lies'
p494
aS'eyes'
p495
aa(lp496
S'done'
p497
aS'sun'
p498
aa(lp499
S'me'
p500
aS'thee'
p501
aa(lp502
S'art'
p503
aS'heart'
p504
aa(lp505
S'stars'
p506
aS'bars'
p507
aa(lp508
S'boast'
p509
aS'most'
p510
aa(lp511
S'spread'
p512
aS'buried'
p513
aa(lp514
S'eye'
p515
aS'die'
p516
aa(lp517
S'fight'
p518
aS'quite'
p519
aa(lp520
S'foiled'
p521
aS'toiled'
p522
aa(lp523
S'beloved'
p524
aS'removed'
p525
aa(lp526
S'vassalage'
p527
aS'embassage'
p528
aa(lp529
S'knit'
p530
aS'wit'
p531
aa(lp532
S'mine'
p533
aS'thine'
p534
aa(lp535
S'it'
p536
aS'it'
p537
aa(lp538
S'moving'
p539
aS'loving'
p540
aa(lp541
S'aspect'
p542
aS'respect'
p543
aa(lp544
S'thee'
p545
aS'me'
p546
aa(lp547
S'bed'
p548
aS'head'
p549
aa(lp550
S'tired'
p551
aS'expired'
p552
aa(lp553
S'abide'
p554
aS'wide'
p555
aa(lp556
S'thee'
p557
aS'see'
p558
aa(lp559
S'sight'
p560
aS'night'
p561
aa(lp562
S'view'
p563
aS'new'
p564
aa(lp565
S'mind'
p566
aS'find'
p567
aa(lp568
S'plight'
p569
aS'night'
p570
aa(lp571
S'rest'
p572
aS'oppressed'
p573
aa(lp574
S'reign'
p575
aS'complain'
p576
aa(lp577
S'me'
p578
aS'thee'
p579
aa(lp580
S'bright'
p581
aS'night'
p582
aa(lp583
S'heaven'
p584
aS'even'
p585
aa(lp586
S'longer'
p587
aS'stronger'
p588
aa(lp589
S'eyes'
p590
aS'cries'
p591
aa(lp592
S'state'
p593
aS'fate'
p594
aa(lp595
S'hope'
p596
aS'scope'
p597
aa(lp598
S'possessed'
p599
aS'least'
p600
aa(lp601
S'despising'
p602
aS'arising'
p603
aa(lp604
S'state'
p605
aS'gate'
p606
aa(lp607
S'brings'
p608
aS'kings'
p609
aa(lp610
S'thought'
p611
aS'sought'
p612
aa(lp613
S'past'
p614
aS'waste'
p615
aa(lp616
S'flow'
p617
aS'woe'
p618
aa(lp619
S'night'
p620
aS'sight'
p621
aa(lp622
S'foregone'
p623
aS'moan'
p624
aa(lp625
S"o'er"
p626
aS'before'
p627
aa(lp628
S'friend'
p629
aS'end'
p630
aa(lp631
S'hearts'
p632
aS'parts'
p633
aa(lp634
S'dead'
p635
aS'buried'
p636
aa(lp637
S'tear'
p638
aS'appear'
p639
aa(lp640
S'eye'
p641
aS'lie'
p642
aa(lp643
S'live'
p644
aS'give'
p645
aa(lp646
S'gone'
p647
aS'alone'
p648
aa(lp649
S'thee'
p650
aS'me'
p651
aa(lp652
S'day'
p653
aS're-survey'
p654
aa(lp655
S'cover'
p656
aS'lover'
p657
aa(lp658
S'time'
p659
aS'rhyme'
p660
aa(lp661
S'pen'
p662
aS'men'
p663
aa(lp664
S'thought'
p665
aS'brought'
p666
aa(lp667
S'age'
p668
aS'equipage'
p669
aa(lp670
S'prove'
p671
aS"love'"
p672
aa(lp673
S'seen'
p674
aS'green'
p675
aa(lp676
S'eye'
p677
aS'alchemy'
p678
aa(lp679
S'ride'
p680
aS'hide'
p681
aa(lp682
S'face'
p683
aS'disgrace'
p684
aa(lp685
S'shine'
p686
aS'mine'
p687
aa(lp688
S'brow'
p689
aS'now'
p690
aa(lp691
S'disdaineth'
p692
aS'staineth'
p693
aa(lp694
S'day'
p695
aS'way'
p696
aa(lp697
S'cloak'
p698
aS'smoke'
p699
aa(lp700
S'break'
p701
aS'speak'
p702
aa(lp703
S'face'
p704
aS'disgrace'
p705
aa(lp706
S'grief'
p707
aS'relief'
p708
aa(lp709
S'loss'
p710
aS'cross'
p711
aa(lp712
S'sheds'
p713
aS'deeds'
p714
aa(lp715
S'done'
p716
aS'sun'
p717
aa(lp718
S'mud'
p719
aS'bud'
p720
aa(lp721
S'this'
p722
aS'amiss'
p723
aa(lp724
S'compare'
p725
aS'are'
p726
aa(lp727
S'sense'
p728
aS'commence'
p729
aa(lp730
S'advocate'
p731
aS'hate'
p732
aa(lp733
S'be'
p734
aS'me'
p735
aa(lp736
S'twain'
p737
aS'remain'
p738
aa(lp739
S'one'
p740
aS'alone'
p741
aa(lp742
S'respect'
p743
aS'effect'
p744
aa(lp745
S'spite'
p746
aS'delight'
p747
aa(lp748
S'thee'
p749
aS'me'
p750
aa(lp751
S'shame'
p752
aS'name'
p753
aa(lp754
S'sort'
p755
aS'report'
p756
aa(lp757
S'delight'
p758
aS'spite'
p759
aa(lp760
S'youth'
p761
aS'truth'
p762
aa(lp763
S'wit'
p764
aS'sit'
p765
aa(lp766
S'more'
p767
aS'store'
p768
aa(lp769
S'despised'
p770
aS'sufficed'
p771
aa(lp772
S'give'
p773
aS'live'
p774
aa(lp775
S'thee'
p776
aS'me'
p777
aa(lp778
S'invent'
p779
aS'excellent'
p780
aa(lp781
S'verse'
p782
aS'rehearse'
p783
aa(lp784
S'me'
p785
aS'thee'
p786
aa(lp787
S'sight'
p788
aS'light'
p789
aa(lp790
S'worth'
p791
aS'forth'
p792
aa(lp793
S'invocate'
p794
aS'date'
p795
aa(lp796
S'days'
p797
aS'praise'
p798
aa(lp799
S'sing'
p800
aS'bring'
p801
aa(lp802
S'me'
p803
aS'thee'
p804
aa(lp805
S'live'
p806
aS'give'
p807
aa(lp808
S'one'
p809
aS'alone'
p810
aa(lp811
S'prove'
p812
aS'love'
p813
aa(lp814
S'leave'
p815
aS'deceive'
p816
aa(lp817
S'twain'
p818
aS'remain'
p819
aa(lp820
S'all'
p821
aS'call'
p822
aa(lp823
S'before'
p824
aS'more'
p825
aa(lp826
S'receivest'
p827
aS'deceivest'
p828
aa(lp829
S'usest'
p830
aS'refusest'
p831
aa(lp832
S'thief'
p833
aS'grief'
p834
aa(lp835
S'poverty'
p836
aS'injury'
p837
aa(lp838
S'shows'
p839
aS'foes'
p840
aa(lp841
S'commits'
p842
aS'befits'
p843
aa(lp844
S'heart'
p845
aS'art'
p846
aa(lp847
S'won'
p848
aS'son'
p849
aa(lp850
S'assailed'
p851
aS'prevailed'
p852
aa(lp853
S'forbear'
p854
aS'there'
p855
aa(lp856
S'youth'
p857
aS'truth'
p858
aa(lp859
S'thee'
p860
aS'me'
p861
aa(lp862
S'grief'
p863
aS'chief'
p864
aa(lp865
S'dearly'
p866
aS'nearly'
p867
aa(lp868
S'ye'
p869
aS'me'
p870
aa(lp871
S'her'
p872
aS'her'
p873
aa(lp874
S'gain'
p875
aS'twain'
p876
aa(lp877
S'loss'
p878
aS'cross'
p879
aa(lp880
S'one'
p881
aS'alone'
p882
aa(lp883
S'see'
p884
aS'thee'
p885
aa(lp886
S'unrespected'
p887
aS'directed'
p888
aa(lp889
S'bright'
p890
aS'light'
p891
aa(lp892
S'show'
p893
aS'so'
p894
aa(lp895
S'made'
p896
aS'shade'
p897
aa(lp898
S'day'
p899
aS'stay'
p900
aa(lp901
S'thee'
p902
aS'me'
p903
aa(lp904
S'thought'
p905
aS'brought'
p906
aa(lp907
S'way'
p908
aS'stay'
p909
aa(lp910
S'stand'
p911
aS'land'
p912
aa(lp913
S'thee'
p914
aS'be'
p915
aa(lp916
S'thought'
p917
aS'wrought'
p918
aa(lp919
S'gone'
p920
aS'moan'
p921
aa(lp922
S'slow'
p923
aS'woe'
p924
aa(lp925
S'fire'
p926
aS'desire'
p927
aa(lp928
S'abide'
p929
aS'slide'
p930
aa(lp931
S'gone'
p932
aS'alone'
p933
aa(lp934
S'thee'
p935
aS'melancholy'
p936
aa(lp937
S'recured'
p938
aS'assured'
p939
aa(lp940
S'thee'
p941
aS'me'
p942
aa(lp943
S'glad'
p944
aS'sad'
p945
aa(lp946
S'war'
p947
aS'bar'
p948
aa(lp949
S'sight'
p950
aS'right'
p951
aa(lp952
S'lie'
p953
aS'deny'
p954
aa(lp955
S'eyes'
p956
aS'lies'
p957
aa(lp958
S'impanelled'
p959
aS'determined'
p960
aa(lp961
S'heart'
p962
aS'part'
p963
aa(lp964
S'part'
p965
aS'heart'
p966
aa(lp967
S'took'
p968
aS'look'
p969
aa(lp970
S'other'
p971
aS'smother'
p972
aa(lp973
S'feast'
p974
aS'guest'
p975
aa(lp976
S'heart'
p977
aS'part'
p978
aa(lp979
S'love'
p980
aS'move'
p981
aa(lp982
S'me'
p983
aS'thee'
p984
aa(lp985
S'sight'
p986
aS'delight'
p987
aa(lp988
S'way'
p989
aS'stay'
p990
aa(lp991
S'thrust'
p992
aS'trust'
p993
aa(lp994
S'are'
p995
aS'care'
p996
aa(lp997
S'grief'
p998
aS'thief'
p999
aa(lp1000
S'chest'
p1001
aS'breast'
p1002
aa(lp1003
S'art'
p1004
aS'part'
p1005
aa(lp1006
S'fear'
p1007
aS'dear'
p1008
aa(lp1009
S'come'
p1010
aS'sum'
p1011
aa(lp1012
S'defects'
p1013
aS'respects'
p1014
aa(lp1015
S'pass'
p1016
aS'was'
p1017
aa(lp1018
S'eye'
p1019
aS'gravity'
p1020
aa(lp1021
S'here'
p1022
aS'uprear'
p1023
aa(lp1024
S'desert'
p1025
aS'part'
p1026
aa(lp1027
S'laws'
p1028
aS'cause'
p1029
aa(lp1030
S'way'
p1031
aS'say'
p1032
aa(lp1033
S'end'
p1034
aS"friend'"
p1035
aa(lp1036
S'woe'
p1037
aS'know'
p1038
aa(lp1039
S'me'
p1040
aS'thee'
p1041
aa(lp1042
S'on'
p1043
aS'groan'
p1044
aa(lp1045
S'hide'
p1046
aS'side'
p1047
aa(lp1048
S'mind'
p1049
aS'behind'
p1050
aa(lp1051
S'offence'
p1052
aS'thence'
p1053
aa(lp1054
S'speed'
p1055
aS'need'
p1056
aa(lp1057
S'find'
p1058
aS'wind'
p1059
aa(lp1060
S'slow'
p1061
aS'know'
p1062
aa(lp1063
S'pace'
p1064
aS'race'
p1065
aa(lp1066
S'made'
p1067
aS'jade'
p1068
aa(lp1069
S'wilful-slow'
p1070
aS'go'
p1071
aa(lp1072
S'key'
p1073
aS'survey'
p1074
aa(lp1075
S'treasure'
p1076
aS'pleasure'
p1077
aa(lp1078
S'rare'
p1079
aS'are'
p1080
aa(lp1081
S'set'
p1082
aS'carcanet'
p1083
aa(lp1084
S'chest'
p1085
aS'special-blest'
p1086
aa(lp1087
S'hide'
p1088
aS'pride'
p1089
aa(lp1090
S'scope'
p1091
aS'hope'
p1092
aa(lp1093
S'made'
p1094
aS'shade'
p1095
aa(lp1096
S'tend'
p1097
aS'lend'
p1098
aa(lp1099
S'counterfeit'
p1100
aS'set'
p1101
aa(lp1102
S'you'
p1103
aS'new'
p1104
aa(lp1105
S'year'
p1106
aS'appear'
p1107
aa(lp1108
S'show'
p1109
aS'know'
p1110
aa(lp1111
S'part'
p1112
aS'heart'
p1113
aa(lp1114
S'seem'
p1115
aS'deem'
p1116
aa(lp1117
S'give'
p1118
aS'live'
p1119
aa(lp1120
S'dye'
p1121
aS'wantonly'
p1122
aa(lp1123
S'roses'
p1124
aS'discloses'
p1125
aa(lp1126
S'show'
p1127
aS'so'
p1128
aa(lp1129
S'fade'
p1130
aS'made'
p1131
aa(lp1132
S'youth'
p1133
aS'truth'
p1134
aa(lp1135
S'monuments'
p1136
aS'contents'
p1137
aa(lp1138
S'rhyme'
p1139
aS'time'
p1140
aa(lp1141
S'overturn'
p1142
aS'burn'
p1143
aa(lp1144
S'masonry'
p1145
aS'memory'
p1146
aa(lp1147
S'enmity'
p1148
aS'posterity'
p1149
aa(lp1150
S'room'
p1151
aS'doom'
p1152
aa(lp1153
S'arise'
p1154
aS'eyes'
p1155
aa(lp1156
S'said'
p1157
aS'allayed'
p1158
aa(lp1159
S'appetite'
p1160
aS'might'
p1161
aa(lp1162
S'fill'
p1163
aS'kill'
p1164
aa(lp1165
S'fulness'
p1166
aS'dulness'
p1167
aa(lp1168
S'be'
p1169
aS'see'
p1170
aa(lp1171
S'new'
p1172
aS'view'
p1173
aa(lp1174
S'care'
p1175
aS'rare'
p1176
aa(lp1177
S'tend'
p1178
aS'spend'
p1179
aa(lp1180
S'desire'
p1181
aS'require'
p1182
aa(lp1183
S'hour'
p1184
aS'sour'
p1185
aa(lp1186
S'you'
p1187
aS'adieu'
p1188
aa(lp1189
S'thought'
p1190
aS'nought'
p1191
aa(lp1192
S'suppose'
p1193
aS'those'
p1194
aa(lp1195
S'will'
p1196
aS'ill'
p1197
aa(lp1198
S'slave'
p1199
aS'crave'
p1200
aa(lp1201
S'pleasure'
p1202
aS'leisure'
p1203
aa(lp1204
S'beck'
p1205
aS'check'
p1206
aa(lp1207
S'liberty'
p1208
aS'injury'
p1209
aa(lp1210
S'strong'
p1211
aS'belong'
p1212
aa(lp1213
S'time'
p1214
aS'crime'
p1215
aa(lp1216
S'hell'
p1217
aS'well'
p1218
aa(lp1219
S'is'
p1220
aS'amis'
p1221
aa(lp1222
S'beguiled'
p1223
aS'child'
p1224
aa(lp1225
S'look'
p1226
aS'book'
p1227
aa(lp1228
S'sun'
p1229
aS'done'
p1230
aa(lp1231
S'say'
p1232
aS'they'
p1233
aa(lp1234
S'frame'
p1235
aS'same'
p1236
aa(lp1237
S'days'
p1238
aS'praise'
p1239
aa(lp1240
S'shore'
p1241
aS'before'
p1242
aa(lp1243
S'end'
p1244
aS'contend'
p1245
aa(lp1246
S'light'
p1247
aS'fight'
p1248
aa(lp1249
S'crowned'
p1250
aS'confound'
p1251
aa(lp1252
S'youth'
p1253
aS'truth'
p1254
aa(lp1255
S'brow'
p1256
aS'mow'
p1257
aa(lp1258
S'stand'
p1259
aS'hand'
p1260
aa(lp1261
S'open'
p1262
aS'broken'
p1263
aa(lp1264
S'night'
p1265
aS'sight'
p1266
aa(lp1267
S'thee'
p1268
aS'me'
p1269
aa(lp1270
S'pry'
p1271
aS'jealousy'
p1272
aa(lp1273
S'great'
p1274
aS'defeat'
p1275
aa(lp1276
S'awake'
p1277
aS'sake'
p1278
aa(lp1279
S'elsewhere'
p1280
aS'near'
p1281
aa(lp1282
S'eye'
p1283
aS'remedy'
p1284
aa(lp1285
S'part'
p1286
aS'heart'
p1287
aa(lp1288
S'mine'
p1289
aS'define'
p1290
aa(lp1291
S'account'
p1292
aS'surmount'
p1293
aa(lp1294
S'indeed'
p1295
aS'read'
p1296
aa(lp1297
S'antiquity'
p1298
aS'iniquity'
p1299
aa(lp1300
S'praise'
p1301
aS'days'
p1302
aa(lp1303
S'now'
p1304
aS'brow'
p1305
aa(lp1306
S"o'erworn"
p1307
aS'morn'
p1308
aa(lp1309
S'night'
p1310
aS'sight'
p1311
aa(lp1312
S'king'
p1313
aS'spring'
p1314
aa(lp1315
S'fortify'
p1316
aS'memory'
p1317
aa(lp1318
S'knife'
p1319
aS'life'
p1320
aa(lp1321
S'seen'
p1322
aS'green'
p1323
aa(lp1324
S'defaced'
p1325
aS'down-rased'
p1326
aa(lp1327
S'age'
p1328
aS'rage'
p1329
aa(lp1330
S'gain'
p1331
aS'main'
p1332
aa(lp1333
S'shore'
p1334
aS'store'
p1335
aa(lp1336
S'State'
p1337
aS'ruminate'
p1338
aa(lp1339
S'decay'
p1340
aS'away'
p1341
aa(lp1342
S'choose'
p1343
aS'lose'
p1344
aa(lp1345
S'sea'
p1346
aS'plea'
p1347
aa(lp1348
S'power'
p1349
aS'flower'
p1350
aa(lp1351
S'out'
p1352
aS'stout'
p1353
aa(lp1354
S'days'
p1355
aS'decays'
p1356
aa(lp1357
S'alack'
p1358
aS'back'
p1359
aa(lp1360
S'hid'
p1361
aS'forbid'
p1362
aa(lp1363
S'might'
p1364
aS'bright'
p1365
aa(lp1366
S'cry'
p1367
aS'jollity'
p1368
aa(lp1369
S'born'
p1370
aS'forsworn'
p1371
aa(lp1372
S'misplaced'
p1373
aS'disgraced'
p1374
aa(lp1375
S'strumpeted'
p1376
aS'disabled'
p1377
aa(lp1378
S'authority'
p1379
aS'simplicity'
p1380
aa(lp1381
S'skill'
p1382
aS'ill'
p1383
aa(lp1384
S'gone'
p1385
aS'alone'
p1386
aa(lp1387
S'live'
p1388
aS'achieve'
p1389
aa(lp1390
S'impiety'
p1391
aS'society'
p1392
aa(lp1393
S'cheek'
p1394
aS'seek'
p1395
aa(lp1396
S'hue'
p1397
aS'true'
p1398
aa(lp1399
S'is'
p1400
aS'his'
p1401
aa(lp1402
S'veins'
p1403
aS'gains'
p1404
aa(lp1405
S'had'
p1406
aS'bad'
p1407
aa(lp1408
S'outworn'
p1409
aS'born'
p1410
aa(lp1411
S'now'
p1412
aS'brow'
p1413
aa(lp1414
S'dead'
p1415
aS'head'
p1416
aa(lp1417
S'away'
p1418
aS'gay'
p1419
aa(lp1420
S'seen'
p1421
aS'green'
p1422
aa(lp1423
S'true'
p1424
aS'new'
p1425
aa(lp1426
S'store'
p1427
aS'yore'
p1428
aa(lp1429
S'view'
p1430
aS'due'
p1431
aa(lp1432
S'mend'
p1433
aS'commend'
p1434
aa(lp1435
S'crowned'
p1436
aS'confound'
p1437
aa(lp1438
S'own'
p1439
aS'shown'
p1440
aa(lp1441
S'mind'
p1442
aS'kind'
p1443
aa(lp1444
S'deeds'
p1445
aS'weeds'
p1446
aa(lp1447
S'show'
p1448
aS'grow'
p1449
aa(lp1450
S'defect'
p1451
aS'suspect'
p1452
aa(lp1453
S'fair'
p1454
aS'air'
p1455
aa(lp1456
S'approve'
p1457
aS'love'
p1458
aa(lp1459
S'time'
p1460
aS'prime'
p1461
aa(lp1462
S'days'
p1463
aS'praise'
p1464
aa(lp1465
S'charged'
p1466
aS'enlarged'
p1467
aa(lp1468
S'show'
p1469
aS'owe'
p1470
aa(lp1471
S'dead'
p1472
aS'fled'
p1473
aa(lp1474
S'bell'
p1475
aS'dwell'
p1476
aa(lp1477
S'not'
p1478
aS'forgot'
p1479
aa(lp1480
S'so'
p1481
aS'woe'
p1482
aa(lp1483
S'verse'
p1484
aS'rehearse'
p1485
aa(lp1486
S'clay'
p1487
aS'decay'
p1488
aa(lp1489
S'moan'
p1490
aS'gone'
p1491
aa(lp1492
S'recite'
p1493
aS'quite'
p1494
aa(lp1495
S'love'
p1496
aS'prove'
p1497
aa(lp1498
S'lie'
p1499
aS'I'
p1500
aa(lp1501
S'desert'
p1502
aS'impart'
p1503
aa(lp1504
S'this'
p1505
aS'is'
p1506
aa(lp1507
S'untrue'
p1508
aS'you'
p1509
aa(lp1510
S'forth'
p1511
aS'worth'
p1512
aa(lp1513
S'behold'
p1514
aS'cold'
p1515
aa(lp1516
S'hang'
p1517
aS'sang'
p1518
aa(lp1519
S'day'
p1520
aS'away'
p1521
aa(lp1522
S'west'
p1523
aS'rest'
p1524
aa(lp1525
S'fire'
p1526
aS'expire'
p1527
aa(lp1528
S'lie'
p1529
aS'by'
p1530
aa(lp1531
S'strong'
p1532
aS'long'
p1533
aa(lp1534
S'arrest'
p1535
aS'interest'
p1536
aa(lp1537
S'away'
p1538
aS'stay'
p1539
aa(lp1540
S'review'
p1541
aS'due'
p1542
aa(lp1543
S'thee'
p1544
aS'me'
p1545
aa(lp1546
S'life'
p1547
aS'knife'
p1548
aa(lp1549
S'dead'
p1550
aS'remembered'
p1551
aa(lp1552
S'contains'
p1553
aS'remains'
p1554
aa(lp1555
S'life'
p1556
aS'strife'
p1557
aa(lp1558
S'ground'
p1559
aS'found'
p1560
aa(lp1561
S'anon'
p1562
aS'alone'
p1563
aa(lp1564
S'treasure'
p1565
aS'pleasure'
p1566
aa(lp1567
S'sight'
p1568
aS'delight'
p1569
aa(lp1570
S'look'
p1571
aS'took'
p1572
aa(lp1573
S'day'
p1574
aS'away'
p1575
aa(lp1576
S'pride'
p1577
aS'aside'
p1578
aa(lp1579
S'change'
p1580
aS'strange'
p1581
aa(lp1582
S'same'
p1583
aS'name'
p1584
aa(lp1585
S'weed'
p1586
aS'proceed'
p1587
aa(lp1588
S'you'
p1589
aS'new'
p1590
aa(lp1591
S'argument'
p1592
aS'spent'
p1593
aa(lp1594
S'old'
p1595
aS'told'
p1596
aa(lp1597
S'wear'
p1598
aS'bear'
p1599
aa(lp1600
S'waste'
p1601
aS'taste'
p1602
aa(lp1603
S'show'
p1604
aS'know'
p1605
aa(lp1606
S'memory'
p1607
aS'eternity'
p1608
aa(lp1609
S'contain'
p1610
aS'brain'
p1611
aa(lp1612
S'find'
p1613
aS'mind'
p1614
aa(lp1615
S'look'
p1616
aS'book'
p1617
aa(lp1618
S'muse'
p1619
aS'use'
p1620
aa(lp1621
S'verse'
p1622
aS'disperse'
p1623
aa(lp1624
S'sing'
p1625
aS'wing'
p1626
aa(lp1627
S'fly'
p1628
aS'majesty'
p1629
aa(lp1630
S'compile'
p1631
aS'style'
p1632
aa(lp1633
S'thee'
p1634
aS'be'
p1635
aa(lp1636
S'advance'
p1637
aS'ignorance'
p1638
aa(lp1639
S'aid'
p1640
aS'decayed'
p1641
aa(lp1642
S'grace'
p1643
aS'place'
p1644
aa(lp1645
S'argument'
p1646
aS'invent'
p1647
aa(lp1648
S'pen'
p1649
aS'again'
p1650
aa(lp1651
S'word'
p1652
aS'afford'
p1653
aa(lp1654
S'give'
p1655
aS'live'
p1656
aa(lp1657
S'say'
p1658
aS'pay'
p1659
aa(lp1660
S'write'
p1661
aS'might'
p1662
aa(lp1663
S'name'
p1664
aS'fame'
p1665
aa(lp1666
S'is'
p1667
aS'his'
p1668
aa(lp1669
S'bear'
p1670
aS'appear'
p1671
aa(lp1672
S'afloat'
p1673
aS'boat'
p1674
aa(lp1675
S'ride'
p1676
aS'pride'
p1677
aa(lp1678
S'away'
p1679
aS'decay'
p1680
aa(lp1681
S'make'
p1682
aS'take'
p1683
aa(lp1684
S'rotten'
p1685
aS'forgotten'
p1686
aa(lp1687
S'have'
p1688
aS'grave'
p1689
aa(lp1690
S'die'
p1691
aS'lie'
p1692
aa(lp1693
S'verse'
p1694
aS'rehearse'
p1695
aa(lp1696
S"o'er-read"
p1697
aS'dead'
p1698
aa(lp1699
S'pen'
p1700
aS'men'
p1701
aa(lp1702
S'muse'
p1703
aS'use'
p1704
aa(lp1705
S"o'erlook"
p1706
aS'book'
p1707
aa(lp1708
S'hue'
p1709
aS'anew'
p1710
aa(lp1711
S'praise'
p1712
aS'days'
p1713
aa(lp1714
S'devised'
p1715
aS'sympathized'
p1716
aa(lp1717
S'lend'
p1718
aS'friend'
p1719
aa(lp1720
S'used'
p1721
aS'abused'
p1722
aa(lp1723
S'need'
p1724
aS'exceed'
p1725
aa(lp1726
S'set'
p1727
aS'debt'
p1728
aa(lp1729
S'report'
p1730
aS'short'
p1731
aa(lp1732
S'show'
p1733
aS'grow'
p1734
aa(lp1735
S'impute'
p1736
aS'mute'
p1737
aa(lp1738
S'dumb'
p1739
aS'tomb'
p1740
aa(lp1741
S'eyes'
p1742
aS'devise'
p1743
aa(lp1744
S'more'
p1745
aS'store'
p1746
aa(lp1747
S'you'
p1748
aS'grew'
p1749
aa(lp1750
S'dwell'
p1751
aS'tell'
p1752
aa(lp1753
S'glory'
p1754
aS'story'
p1755
aa(lp1756
S'writ'
p1757
aS'wit'
p1758
aa(lp1759
S'clear'
p1760
aS'where'
p1761
aa(lp1762
S'curse'
p1763
aS'worse'
p1764
aa(lp1765
S'still'
p1766
aS'quill'
p1767
aa(lp1768
S'compiled'
p1769
aS'filed'
p1770
aa(lp1771
S'words'
p1772
aS'affords'
p1773
aa(lp1774
S'Amen'
p1775
aS'pen'
p1776
aa(lp1777
S'true'
p1778
aS'you'
p1779
aa(lp1780
S'more'
p1781
aS'before'
p1782
aa(lp1783
S'respect'
p1784
aS'effect'
p1785
aa(lp1786
S'verse'
p1787
aS'inhearse'
p1788
aa(lp1789
S'you'
p1790
aS'grew'
p1791
aa(lp1792
S'write'
p1793
aS'night'
p1794
aa(lp1795
S'dead'
p1796
aS'astonished'
p1797
aa(lp1798
S'ghost'
p1799
aS'boast'
p1800
aa(lp1801
S'intelligence'
p1802
aS'thence'
p1803
aa(lp1804
S'line'
p1805
aS'mine'
p1806
aa(lp1807
S'possessing'
p1808
aS'releasing'
p1809
aa(lp1810
S'estimate'
p1811
aS'determinate'
p1812
aa(lp1813
S'granting'
p1814
aS'wanting'
p1815
aa(lp1816
S'deserving'
p1817
aS'swerving'
p1818
aa(lp1819
S'knowing'
p1820
aS'growing'
p1821
aa(lp1822
S'mistaking'
p1823
aS'making'
p1824
aa(lp1825
S'flatter'
p1826
aS'matter'
p1827
aa(lp1828
S'light'
p1829
aS'fight'
p1830
aa(lp1831
S'scorn'
p1832
aS'forsworn'
p1833
aa(lp1834
S'acquainted'
p1835
aS'attainted'
p1836
aa(lp1837
S'story'
p1838
aS'glory'
p1839
aa(lp1840
S'too'
p1841
aS'do'
p1842
aa(lp1843
S'thee'
p1844
aS'me'
p1845
aa(lp1846
S'belong'
p1847
aS'wrong'
p1848
aa(lp1849
S'fault'
p1850
aS'halt'
p1851
aa(lp1852
S'offence'
p1853
aS'defence'
p1854
aa(lp1855
S'ill'
p1856
aS'will'
p1857
aa(lp1858
S'change'
p1859
aS'strange'
p1860
aa(lp1861
S'tongue'
p1862
aS'wronk'
p1863
aa(lp1864
S'dwell'
p1865
aS'tell'
p1866
aa(lp1867
S'debate'
p1868
aS'hate'
p1869
aa(lp1870
S'now'
p1871
aS'bow'
p1872
aa(lp1873
S'cross'
p1874
aS'after-loss'
p1875
aa(lp1876
S'sorrow'
p1877
aS'morrow'
p1878
aa(lp1879
S'woe'
p1880
aS'overthrow'
p1881
aa(lp1882
S'last'
p1883
aS'taste'
p1884
aa(lp1885
S'spite'
p1886
aS'might'
p1887
aa(lp1888
S'woe'
p1889
aS'so'
p1890
aa(lp1891
S'skill'
p1892
aS'ill'
p1893
aa(lp1894
S'force'
p1895
aS'horse'
p1896
aa(lp1897
S'pleasure'
p1898
aS'measure'
p1899
aa(lp1900
S'rest'
p1901
aS'best'
p1902
aa(lp1903
S'me'
p1904
aS'be'
p1905
aa(lp1906
S'costs'
p1907
aS'boast'
p1908
aa(lp1909
S'take'
p1910
aS'make'
p1911
aa(lp1912
S'away'
p1913
aS'stay'
p1914
aa(lp1915
S'mine'
p1916
aS'thine'
p1917
aa(lp1918
S'wrongs'
p1919
aS'belongs'
p1920
aa(lp1921
S'end'
p1922
aS'depend'
p1923
aa(lp1924
S'mind'
p1925
aS'find'
p1926
aa(lp1927
S'lie'
p1928
aS'die'
p1929
aa(lp1930
S'blot'
p1931
aS'not'
p1932
aa(lp1933
S'true'
p1934
aS'new'
p1935
aa(lp1936
S'face'
p1937
aS'place'
p1938
aa(lp1939
S'eye'
p1940
aS'history'
p1941
aa(lp1942
S'change'
p1943
aS'strange'
p1944
aa(lp1945
S'decree'
p1946
aS'be'
p1947
aa(lp1948
S'dwell'
p1949
aS'tell'
p1950
aa(lp1951
S'grow'
p1952
aS'show'
p1953
aa(lp1954
S'none'
p1955
aS'stone'
p1956
aa(lp1957
S'show'
p1958
aS'slow'
p1959
aa(lp1960
S'graces'
p1961
aS'faces'
p1962
aa(lp1963
S'expense'
p1964
aS'excellence'
p1965
aa(lp1966
S'sweet'
p1967
aS'meet'
p1968
aa(lp1969
S'die'
p1970
aS'dignity'
p1971
aa(lp1972
S'deeds'
p1973
aS'weeds'
p1974
aa(lp1975
S'shame'
p1976
aS'name'
p1977
aa(lp1978
S'rose'
p1979
aS'enclose'
p1980
aa(lp1981
S'days'
p1982
aS'praise'
p1983
aa(lp1984
S'sport'
p1985
aS'report'
p1986
aa(lp1987
S'got'
p1988
aS'blot'
p1989
aa(lp1990
S'thee'
p1991
aS'see'
p1992
aa(lp1993
S'privilege'
p1994
aS'edge'
p1995
aa(lp1996
S'wantonness'
p1997
aS'less'
p1998
aa(lp1999
S'sport'
p2000
aS'resort'
p2001
aa(lp2002
S'queen'
p2003
aS'seen'
p2004
aa(lp2005
S'esteemed'
p2006
aS'deemed'
p2007
aa(lp2008
S'betray'
p2009
aS'away'
p2010
aa(lp2011
S'translate'
p2012
aS'state'
p2013
aa(lp2014
S'sort'
p2015
aS'report'
p2016
aa(lp2017
S'been'
p2018
aS'seen'
p2019
aa(lp2020
S'year'
p2021
aS'everywhere'
p2022
aa(lp2023
S'time'
p2024
aS'prime'
p2025
aa(lp2026
S'increase'
p2027
aS'decease'
p2028
aa(lp2029
S'me'
p2030
aS'thee'
p2031
aa(lp2032
S'fruit'
p2033
aS'mute'
p2034
aa(lp2035
S'cheer'
p2036
aS'near'
p2037
aa(lp2038
S'spring'
p2039
aS'thing'
p2040
aa(lp2041
S'trim'
p2042
aS'him'
p2043
aa(lp2044
S'smell'
p2045
aS'tell'
p2046
aa(lp2047
S'hue'
p2048
aS'grew'
p2049
aa(lp2050
S'white'
p2051
aS'delight'
p2052
aa(lp2053
S'rose'
p2054
aS'those'
p2055
aa(lp2056
S'away'
p2057
aS'play'
p2058
aa(lp2059
S'long'
p2060
aS'song'
p2061
aa(lp2062
S'might'
p2063
aS'light'
p2064
aa(lp2065
S'redeem'
p2066
aS'esteem'
p2067
aa(lp2068
S'spent'
p2069
aS'argument'
p2070
aa(lp2071
S'survey'
p2072
aS'decay'
p2073
aa(lp2074
S'there'
p2075
aS'everywhere'
p2076
aa(lp2077
S'life'
p2078
aS'knife'
p2079
aa(lp2080
S'amends'
p2081
aS'depends'
p2082
aa(lp2083
S'dyed'
p2084
aS'dignified'
p2085
aa(lp2086
S'say'
p2087
aS'lay'
p2088
aa(lp2089
S'fixed'
p2090
aS"intermixed'"
p2091
aa(lp2092
S'dumb'
p2093
aS'tomb'
p2094
aa(lp2095
S'thee'
p2096
aS'be'
p2097
aa(lp2098
S'how'
p2099
aS'now'
p2100
aa(lp2101
S'seeming'
p2102
aS'esteeming'
p2103
aa(lp2104
S'appear'
p2105
aS'where'
p2106
aa(lp2107
S'spring'
p2108
aS'sing'
p2109
aa(lp2110
S'lays'
p2111
aS'days'
p2112
aa(lp2113
S'now'
p2114
aS'bough'
p2115
aa(lp2116
S'night'
p2117
aS'delight'
p2118
aa(lp2119
S'tongue'
p2120
aS'song'
p2121
aa(lp2122
S'forth'
p2123
aS'worth'
p2124
aa(lp2125
S'pride'
p2126
aS'beside'
p2127
aa(lp2128
S'write'
p2129
aS'quite'
p2130
aa(lp2131
S'face'
p2132
aS'disgrace'
p2133
aa(lp2134
S'mend'
p2135
aS'tend'
p2136
aa(lp2137
S'well'
p2138
aS'tell'
p2139
aa(lp2140
S'sit'
p2141
aS'it'
p2142
aa(lp2143
S'old'
p2144
aS'cold'
p2145
aa(lp2146
S'eyed'
p2147
aS'pride'
p2148
aa(lp2149
S'turned'
p2150
aS'burned'
p2151
aa(lp2152
S'seen'
p2153
aS'green'
p2154
aa(lp2155
S'hand'
p2156
aS'stand'
p2157
aa(lp2158
S'perceived'
p2159
aS'deceived'
p2160
aa(lp2161
S'unbred'
p2162
aS'dead'
p2163
aa(lp2164
S'idolatry'
p2165
aS'be'
p2166
aa(lp2167
S'show'
p2168
aS'so'
p2169
aa(lp2170
S'kind'
p2171
aS'confined'
p2172
aa(lp2173
S'excellence'
p2174
aS'difference'
p2175
aa(lp2176
S'argument'
p2177
aS'spent'
p2178
aa(lp2179
S'words'
p2180
aS'affords'
p2181
aa(lp2182
S'alone'
p2183
aS'one'
p2184
aa(lp2185
S'time'
p2186
aS'rhyme'
p2187
aa(lp2188
S'wights'
p2189
aS'knights'
p2190
aa(lp2191
S'best'
p2192
aS'expressed'
p2193
aa(lp2194
S'brow'
p2195
aS'now'
p2196
aa(lp2197
S'prophecies'
p2198
aS'eyes'
p2199
aa(lp2200
S'prefiguring'
p2201
aS'sing'
p2202
aa(lp2203
S'days'
p2204
aS'praise'
p2205
aa(lp2206
S'soul'
p2207
aS'control'
p2208
aa(lp2209
S'come'
p2210
aS'doom'
p2211
aa(lp2212
S'endured'
p2213
aS'assured'
p2214
aa(lp2215
S'presage'
p2216
aS'age'
p2217
aa(lp2218
S'time'
p2219
aS'rhyme'
p2220
aa(lp2221
S'subscribes'
p2222
aS'tribes'
p2223
aa(lp2224
S'monument'
p2225
aS'spent'
p2226
aa(lp2227
S'character'
p2228
aS'register'
p2229
aa(lp2230
S'spirit'
p2231
aS'merit'
p2232
aa(lp2233
S'divine'
p2234
aS'thine'
p2235
aa(lp2236
S'same'
p2237
aS'name'
p2238
aa(lp2239
S'case'
p2240
aS'place'
p2241
aa(lp2242
S'age'
p2243
aS'page'
p2244
aa(lp2245
S'bred'
p2246
aS'dead'
p2247
aa(lp2248
S'heart'
p2249
aS'depart'
p2250
aa(lp2251
S'qualify'
p2252
aS'lie'
p2253
aa(lp2254
S'ranged'
p2255
aS'exchanged'
p2256
aa(lp2257
S'again'
p2258
aS'stain'
p2259
aa(lp2260
S'reigned'
p2261
aS'stained'
p2262
aa(lp2263
S'blood'
p2264
aS'good'
p2265
aa(lp2266
S'call'
p2267
aS'all'
p2268
aa(lp2269
S'there'
p2270
aS'dear'
p2271
aa(lp2272
S'view'
p2273
aS'new'
p2274
aa(lp2275
S'truth'
p2276
aS'youth'
p2277
aa(lp2278
S'above'
p2279
aS'love'
p2280
aa(lp2281
S'end'
p2282
aS'friend'
p2283
aa(lp2284
S'grind'
p2285
aS'confined'
p2286
aa(lp2287
S'best'
p2288
aS'breast'
p2289
aa(lp2290
S'chide'
p2291
aS'provide'
p2292
aa(lp2293
S'deeds'
p2294
aS'breeds'
p2295
aa(lp2296
S'brand'
p2297
aS'hand'
p2298
aa(lp2299
S'subdued'
p2300
aS'renewed'
p2301
aa(lp2302
S'drink'
p2303
aS'think'
p2304
aa(lp2305
S'infection'
p2306
aS'correction'
p2307
aa(lp2308
S'ye'
p2309
aS'me'
p2310
aa(lp2311
S'fill'
p2312
aS'ill'
p2313
aa(lp2314
S'brow'
p2315
aS'allow'
p2316
aa(lp2317
S'strive'
p2318
aS'alive'
p2319
aa(lp2320
S'tongue'
p2321
aS'wrong'
p2322
aa(lp2323
S'care'
p2324
aS'are'
p2325
aa(lp2326
S'sense'
p2327
aS'dispense'
p2328
aa(lp2329
S'bred'
p2330
aS'dead'
p2331
aa(lp2332
S'mind'
p2333
aS'blind'
p2334
aa(lp2335
S'about'
p2336
aS'out'
p2337
aa(lp2338
S'heart'
p2339
aS'part'
p2340
aa(lp2341
S'latch'
p2342
aS'catch'
p2343
aa(lp2344
S'sight'
p2345
aS'night'
p2346
aa(lp2347
S'creature'
p2348
aS'feature'
p2349
aa(lp2350
S'you'
p2351
aS'untrue'
p2352
aa(lp2353
S'you'
p2354
aS'true'
p2355
aa(lp2356
S'flattery'
p2357
aS'alchemy'
p2358
aa(lp2359
S'indigest'
p2360
aS'best'
p2361
aa(lp2362
S'resemble'
p2363
aS'assemble'
p2364
aa(lp2365
S'seeing'
p2366
aS"'greeing"
p2367
aa(lp2368
S'up'
p2369
aS'cup'
p2370
aa(lp2371
S'sin'
p2372
aS'begin'
p2373
aa(lp2374
S'lie'
p2375
aS'why'
p2376
aa(lp2377
S'dearer'
p2378
aS'clearer'
p2379
aa(lp2380
S'accidents'
p2381
aS'intents'
p2382
aa(lp2383
S'kings'
p2384
aS'things'
p2385
aa(lp2386
S'tyranny'
p2387
aS'incertainty'
p2388
aa(lp2389
S"best'"
p2390
aS'rest'
p2391
aa(lp2392
S'so'
p2393
aS'grow'
p2394
aa(lp2395
S'minds'
p2396
aS'finds'
p2397
aa(lp2398
S'love'
p2399
aS'remove'
p2400
aa(lp2401
S'mark'
p2402
aS'bark'
p2403
aa(lp2404
S'shaken'
p2405
aS'taken'
p2406
aa(lp2407
S'cheeks'
p2408
aS'weeks'
p2409
aa(lp2410
S'come'
p2411
aS'doom'
p2412
aa(lp2413
S'proved'
p2414
aS'loved'
p2415
aa(lp2416
S'all'
p2417
aS'call'
p2418
aa(lp2419
S'repay'
p2420
aS'day'
p2421
aa(lp2422
S'minds'
p2423
aS'winds'
p2424
aa(lp2425
S'right'
p2426
aS'sight'
p2427
aa(lp2428
S'down'
p2429
aS'frown'
p2430
aa(lp2431
S'accumulate'
p2432
aS'hate'
p2433
aa(lp2434
S'prove'
p2435
aS'love'
p2436
aa(lp2437
S'keen'
p2438
aS'unseen'
p2439
aa(lp2440
S'urge'
p2441
aS'purge'
p2442
aa(lp2443
S'sweetness'
p2444
aS'meetness'
p2445
aa(lp2446
S'feeding'
p2447
aS'needing'
p2448
aa(lp2449
S'anticipate'
p2450
aS'state'
p2451
aa(lp2452
S'assured'
p2453
aS'cured'
p2454
aa(lp2455
S'true'
p2456
aS'you'
p2457
aa(lp2458
S'tears'
p2459
aS'fears'
p2460
aa(lp2461
S'within'
p2462
aS'win'
p2463
aa(lp2464
S'committed'
p2465
aS'fitted'
p2466
aa(lp2467
S'never'
p2468
aS'fever'
p2469
aa(lp2470
S'true'
p2471
aS'anew'
p2472
aa(lp2473
S'better'
p2474
aS'greater'
p2475
aa(lp2476
S'content'
p2477
aS'spent'
p2478
aa(lp2479
S'now'
p2480
aS'bow'
p2481
aa(lp2482
S'feel'
p2483
aS'steel'
p2484
aa(lp2485
S'shaken'
p2486
aS'taken'
p2487
aa(lp2488
S'time'
p2489
aS'crime'
p2490
aa(lp2491
S'remembered'
p2492
aS'tendered'
p2493
aa(lp2494
S'hits'
p2495
aS'fits'
p2496
aa(lp2497
S'fee'
p2498
aS'me'
p2499
aa(lp2500
S'esteemed'
p2501
aS'deemed'
p2502
aa(lp2503
S'being'
p2504
aS'seeing'
p2505
aa(lp2506
S'eyes'
p2507
aS'spies'
p2508
aa(lp2509
S'blood'
p2510
aS'good'
p2511
aa(lp2512
S'level'
p2513
aS'bevel'
p2514
aa(lp2515
S'own'
p2516
aS'shown'
p2517
aa(lp2518
S'maintain'
p2519
aS'reign'
p2520
aa(lp2521
S'brain'
p2522
aS'remain'
p2523
aa(lp2524
S'memory'
p2525
aS'eternity'
p2526
aa(lp2527
S'heart'
p2528
aS'part'
p2529
aa(lp2530
S'subsist'
p2531
aS'missed'
p2532
aa(lp2533
S'hold'
p2534
aS'bold'
p2535
aa(lp2536
S'score'
p2537
aS'more'
p2538
aa(lp2539
S'thee'
p2540
aS'me'
p2541
aa(lp2542
S'change'
p2543
aS'strange'
p2544
aa(lp2545
S'might'
p2546
aS'sight'
p2547
aa(lp2548
S'admire'
p2549
aS'desire'
p2550
aa(lp2551
S'old'
p2552
aS'told'
p2553
aa(lp2554
S'defy'
p2555
aS'lie'
p2556
aa(lp2557
S'past'
p2558
aS'haste'
p2559
aa(lp2560
S'be'
p2561
aS'thee'
p2562
aa(lp2563
S'state'
p2564
aS'hate'
p2565
aa(lp2566
S'unfathered'
p2567
aS'gathered'
p2568
aa(lp2569
S'accident'
p2570
aS'discontent'
p2571
aa(lp2572
S'falls'
p2573
aS'calls'
p2574
aa(lp2575
S'heretic'
p2576
aS'politic'
p2577
aa(lp2578
S'hours'
p2579
aS'showers'
p2580
aa(lp2581
S'time'
p2582
aS'crime'
p2583
aa(lp2584
S'canopy'
p2585
aS'eternity'
p2586
aa(lp2587
S'honouring'
p2588
aS'ruining'
p2589
aa(lp2590
S'favour'
p2591
aS'savour'
p2592
aa(lp2593
S'rent'
p2594
aS'spent'
p2595
aa(lp2596
S'heart'
p2597
aS'art'
p2598
aa(lp2599
S'free'
p2600
aS'thee'
p2601
aa(lp2602
S'soul'
p2603
aS'control'
p2604
aa(lp2605
S'fair'
p2606
aS'heir'
p2607
aa(lp2608
S'name'
p2609
aS'shame'
p2610
aa(lp2611
S'power'
p2612
aS'bower'
p2613
aa(lp2614
S'face'
p2615
aS'disgrace'
p2616
aa(lp2617
S'black'
p2618
aS'lack'
p2619
aa(lp2620
S'seem'
p2621
aS'esteem'
p2622
aa(lp2623
S'woe'
p2624
aS'so'
p2625
aa(lp2626
S"play'st"
p2627
aS"sway'st"
p2628
aa(lp2629
S'sounds'
p2630
aS'confounds'
p2631
aa(lp2632
S'leap'
p2633
aS'reap'
p2634
aa(lp2635
S'hand'
p2636
aS'stand'
p2637
aa(lp2638
S'state'
p2639
aS'gait'
p2640
aa(lp2641
S'chips'
p2642
aS'lips'
p2643
aa(lp2644
S'this'
p2645
aS'kiss'
p2646
aa(lp2647
S'shame'
p2648
aS'blame'
p2649
aa(lp2650
S'lust'
p2651
aS'trust'
p2652
aa(lp2653
S'straight'
p2654
aS'bait'
p2655
aa(lp2656
S'had'
p2657
aS'mad'
p2658
aa(lp2659
S'so'
p2660
aS'woe'
p2661
aa(lp2662
S'extreme'
p2663
aS'dream'
p2664
aa(lp2665
S'well'
p2666
aS'hell'
p2667
aa(lp2668
S'sun'
p2669
aS'dun'
p2670
aa(lp2671
S'red'
p2672
aS'head'
p2673
aa(lp2674
S'white'
p2675
aS'delight'
p2676
aa(lp2677
S'cheeks'
p2678
aS'reeks'
p2679
aa(lp2680
S'know'
p2681
aS'go'
p2682
aa(lp2683
S'sound'
p2684
aS'ground'
p2685
aa(lp2686
S'rare'
p2687
aS'compare'
p2688
aa(lp2689
S'art'
p2690
aS'heart'
p2691
aa(lp2692
S'cruel'
p2693
aS'jewel'
p2694
aa(lp2695
S'behold'
p2696
aS'bold'
p2697
aa(lp2698
S'groan'
p2699
aS'alone'
p2700
aa(lp2701
S'swear'
p2702
aS'bear'
p2703
aa(lp2704
S'face'
p2705
aS'place'
p2706
aa(lp2707
S'deeds'
p2708
aS'proceeds'
p2709
aa(lp2710
S'me'
p2711
aS'be'
p2712
aa(lp2713
S'disdain'
p2714
aS'pain'
p2715
aa(lp2716
S'heaven'
p2717
aS'even'
p2718
aa(lp2719
S'east'
p2720
aS'west'
p2721
aa(lp2722
S'face'
p2723
aS'grace'
p2724
aa(lp2725
S'heart'
p2726
aS'part'
p2727
aa(lp2728
S'black'
p2729
aS'lack'
p2730
aa(lp2731
S'groan'
p2732
aS'alone'
p2733
aa(lp2734
S'me'
p2735
aS'be'
p2736
aa(lp2737
S'taken'
p2738
aS'forsaken'
p2739
aa(lp2740
S'engrossed'
p2741
aS'crossed'
p2742
aa(lp2743
S'ward'
p2744
aS'guard'
p2745
aa(lp2746
S'bail'
p2747
aS'gaol'
p2748
aa(lp2749
S'thee'
p2750
aS'me'
p2751
aa(lp2752
S'thine'
p2753
aS'mine'
p2754
aa(lp2755
S'will'
p2756
aS'still'
p2757
aa(lp2758
S'free'
p2759
aS'me'
p2760
aa(lp2761
S'kind'
p2762
aS'bind'
p2763
aa(lp2764
S'take'
p2765
aS'sake'
p2766
aa(lp2767
S'use'
p2768
aS'abuse'
p2769
aa(lp2770
S'me'
p2771
aS'free'
p2772
aa(lp2773
S'will'
p2774
aS'still'
p2775
aa(lp2776
S'over-plus'
p2777
aS'thus'
p2778
aa(lp2779
S'spacious'
p2780
aS'gracious'
p2781
aa(lp2782
S'thine'
p2783
aS'shine'
p2784
aa(lp2785
S'still'
p2786
aS'will'
p2787
aa(lp2788
S'store'
p2789
aS'more'
p2790
aa(lp2791
S'kill'
p2792
aS"'Will'"
p2793
aa(lp2794
S'near'
p2795
aS'there'
p2796
aa(lp2797
S"'Will'"
p2798
aS'fulfil'
p2799
aa(lp2800
S'love'
p2801
aS'prove'
p2802
aa(lp2803
S'one'
p2804
aS'none'
p2805
aa(lp2806
S'untold'
p2807
aS'hold'
p2808
aa(lp2809
S'be'
p2810
aS'thee'
p2811
aa(lp2812
S'still'
p2813
aS'Will'
p2814
aa(lp2815
S'eyes'
p2816
aS'lies'
p2817
aa(lp2818
S'see'
p2819
aS'be'
p2820
aa(lp2821
S'looks'
p2822
aS'hooks'
p2823
aa(lp2824
S'ride'
p2825
aS'tied'
p2826
aa(lp2827
S'plot'
p2828
aS'not'
p2829
aa(lp2830
S'place'
p2831
aS'face'
p2832
aa(lp2833
S'erred'
p2834
aS'transferred'
p2835
aa(lp2836
S'truth'
p2837
aS'youth'
p2838
aa(lp2839
S'lies'
p2840
aS'subtleties'
p2841
aa(lp2842
S'young'
p2843
aS'tongue'
p2844
aa(lp2845
S'best'
p2846
aS'suppressed'
p2847
aa(lp2848
S'unjust'
p2849
aS'trust'
p2850
aa(lp2851
S'old'
p2852
aS'told'
p2853
aa(lp2854
S'me'
p2855
aS'be'
p2856
aa(lp2857
S'wrong'
p2858
aS'tongue'
p2859
aa(lp2860
S'heart'
p2861
aS'art'
p2862
aa(lp2863
S'sight'
p2864
aS'might'
p2865
aa(lp2866
S'aside'
p2867
aS'bide'
p2868
aa(lp2869
S'knows'
p2870
aS'foes'
p2871
aa(lp2872
S'enemies'
p2873
aS'injuries'
p2874
aa(lp2875
S'slain'
p2876
aS'pain'
p2877
aa(lp2878
S'press'
p2879
aS'express'
p2880
aa(lp2881
S'disdain'
p2882
aS'pain'
p2883
aa(lp2884
S'were'
p2885
aS'near'
p2886
aa(lp2887
S'so'
p2888
aS'know'
p2889
aa(lp2890
S'mad'
p2891
aS'bad'
p2892
aa(lp2893
S'thee'
p2894
aS'be'
p2895
aa(lp2896
S'belied'
p2897
aS'wide'
p2898
aa(lp2899
S'eyes'
p2900
aS'despise'
p2901
aa(lp2902
S'note'
p2903
aS'dote'
p2904
aa(lp2905
S'delighted'
p2906
aS'invited'
p2907
aa(lp2908
S'prone'
p2909
aS'alone'
p2910
aa(lp2911
S'can'
p2912
aS'man'
p2913
aa(lp2914
S'thee'
p2915
aS'be'
p2916
aa(lp2917
S'gain'
p2918
aS'pain'
p2919
aa(lp2920
S'hate'
p2921
aS'state'
p2922
aa(lp2923
S'loving'
p2924
aS'reproving'
p2925
aa(lp2926
S'thine'
p2927
aS'mine'
p2928
aa(lp2929
S'ornaments'
p2930
aS'rents'
p2931
aa(lp2932
S'those'
p2933
aS'grows'
p2934
aa(lp2935
S'thee'
p2936
aS'be'
p2937
aa(lp2938
S'hide'
p2939
aS'denied'
p2940
aa(lp2941
S'catch'
p2942
aS'dispatch'
p2943
aa(lp2944
S'away'
p2945
aS'stay'
p2946
aa(lp2947
S'chase'
p2948
aS'face'
p2949
aa(lp2950
S'bent'
p2951
aS'discontent'
p2952
aa(lp2953
S'thee'
p2954
aS'me'
p2955
aa(lp2956
S'behind'
p2957
aS'kind'
p2958
aa(lp2959
S'Will'
p2960
aS'still'
p2961
aa(lp2962
S'despair'
p2963
aS'fair'
p2964
aa(lp2965
S'still'
p2966
aS'ill'
p2967
aa(lp2968
S'evil'
p2969
aS'devil'
p2970
aa(lp2971
S'side'
p2972
aS'pride'
p2973
aa(lp2974
S'fiend'
p2975
aS'friend'
p2976
aa(lp2977
S'tell'
p2978
aS'hell'
p2979
aa(lp2980
S'doubt'
p2981
aS'out'
p2982
aa(lp2983
S'make'
p2984
aS'sake'
p2985
aa(lp2986
S"hate'"
p2987
aS'state'
p2988
aa(lp2989
S'come'
p2990
aS'doom'
p2991
aa(lp2992
S'sweet'
p2993
aS'greet'
p2994
aa(lp2995
S'end'
p2996
aS'fiend'
p2997
aa(lp2998
S'day'
p2999
aS'away'
p3000
aa(lp3001
S'threw'
p3002
aS"you'"
p3003
aa(lp3004
S'earth'
p3005
aS'dearth'
p3006
aa(lp3007
S'array'
p3008
aS'gay'
p3009
aa(lp3010
S'lease'
p3011
aS'excess'
p3012
aa(lp3013
S'spend'
p3014
aS'end'
p3015
aa(lp3016
S'loss'
p3017
aS'dross'
p3018
aa(lp3019
S'store'
p3020
aS'more'
p3021
aa(lp3022
S'men'
p3023
aS'then'
p3024
aa(lp3025
S'still'
p3026
aS'ill'
p3027
aa(lp3028
S'disease'
p3029
aS'please'
p3030
aa(lp3031
S'love'
p3032
aS'approve'
p3033
aa(lp3034
S'kept'
p3035
aS'except'
p3036
aa(lp3037
S'care'
p3038
aS'are'
p3039
aa(lp3040
S'unrest'
p3041
aS'expressed'
p3042
aa(lp3043
S'bright'
p3044
aS'night'
p3045
aa(lp3046
S'head'
p3047
aS'fled'
p3048
aa(lp3049
S'sight'
p3050
aS'aright'
p3051
aa(lp3052
S'dote'
p3053
aS'denote'
p3054
aa(lp3055
S'so'
p3056
aS'no'
p3057
aa(lp3058
S'true'
p3059
aS'view'
p3060
aa(lp3061
S'tears'
p3062
aS'clears'
p3063
aa(lp3064
S'blind'
p3065
aS'find'
p3066
aa(lp3067
S'not'
p3068
aS'forgot'
p3069
aa(lp3070
S'partake'
p3071
aS'sake'
p3072
aa(lp3073
S'friend'
p3074
aS'spend'
p3075
aa(lp3076
S'upon'
p3077
aS'moan'
p3078
aa(lp3079
S'respect'
p3080
aS'defect'
p3081
aa(lp3082
S'despise'
p3083
aS'eyes'
p3084
aa(lp3085
S'mind'
p3086
aS'blind'
p3087
aa(lp3088
S'might'
p3089
aS'sight'
p3090
aa(lp3091
S'sway'
p3092
aS'day'
p3093
aa(lp3094
S'ill'
p3095
aS'skill'
p3096
aa(lp3097
S'deeds'
p3098
aS'exceeds'
p3099
aa(lp3100
S'more'
p3101
aS'abhor'
p3102
aa(lp3103
S'hate'
p3104
aS'state'
p3105
aa(lp3106
S'me'
p3107
aS'thee'
p3108
aa(lp3109
S'is'
p3110
aS'amiss'
p3111
aa(lp3112
S'love'
p3113
aS'prove'
p3114
aa(lp3115
S'betray'
p3116
aS'may'
p3117
aa(lp3118
S'treason'
p3119
aS'reason'
p3120
aa(lp3121
S'thee'
p3122
aS'be'
p3123
aa(lp3124
S'pride'
p3125
aS'side'
p3126
aa(lp3127
S'call'
p3128
aS'fall'
p3129
aa(lp3130
S'forsworn'
p3131
aS'torn'
p3132
aa(lp3133
S'swearing'
p3134
aS'bearing'
p3135
aa(lp3136
S'thee'
p3137
aS'thee'
p3138
aa(lp3139
S'most'
p3140
aS'lost'
p3141
aa(lp3142
S'kindness'
p3143
aS'blindness'
p3144
aa(lp3145
S'constancy'
p3146
aS'see'
p3147
aa(lp3148
g1500
aS'be'
p3149
aa(lp3150
S'asleep'
p3151
aS'steep'
p3152
aa(lp3153
S'found'
p3154
aS'ground'
p3155
aa(lp3156
S'Love'
p3157
aS'prove'
p3158
aa(lp3159
S'endure'
p3160
aS'cure'
p3161
aa(lp3162
S'new-fired'
p3163
aS'desired'
p3164
aa(lp3165
S'breast'
p3166
aS'guest'
p3167
aa(lp3168
S'lies'
p3169
aS'eyes'
p3170
aa(lp3171
S'asleep'
p3172
aS'keep'
p3173
aa(lp3174
S'brand'
p3175
aS'hand'
p3176
aa(lp3177
S'fire'
p3178
aS'desire'
p3179
aa(lp3180
S'warmed'
p3181
aS'disarmed'
p3182
aa(lp3183
S'by'
p3184
aS'remedy'
p3185
aa(lp3186
S'perpetual'
p3187
aS'thrall'
p3188
aa(lp3189
S'prove'
p3190
aS'love'
p3191
aa.