(dp0
I0
S'NN'
p1
sI1
S'PRP'
p2
sI2
S'NNS'
p3
sI3
S'IN'
p4
sI4
S'RB'
p5
sI5
S'MD'
p6
sI6
S'VBD'
p7
sI7
S'DT'
p8
sI8
S'CC'
p9
sI9
S'PRP$'
p10
sI10
S'JJ'
p11
sI11
S'TO'
p12
sI12
S'VBN'
p13
sI13
S'WRB'
p14
sI14
S'VBG'
p15
sI15
S'VB'
p16
sI16
S'RBR'
p17
sI17
S'VBZ'
p18
sI18
S'WP$'
p19
sI19
S'WP'
p20
sI20
S'VBP'
p21
sI21
S'WDT'
p22
sI22
S'CD'
p23
sI23
S'JJS'
p24
sI24
S'JJR'
p25
sI25
S'EX'
p26
s.