(dp0
S'fawn'
p1
I3132
sS'pardon'
p2
I1753
sS"t'abide"
p3
I3400
sS'yellow'
p4
I2005
sS'four'
p5
I1479
sS'hath'
p6
I457
sS'woods'
p7
I3521
sS'sleep'
p8
I1432
sS'astray'
p9
I3727
sS"friend's"
p10
I1170
sS'hanging'
p11
I936
sS'mansion'
p12
I2355
sS'appetite'
p13
I1698
sS'evermore'
p14
I1310
sS'hate'
p15
I479
sS'forget'
p16
I904
sS'whose'
p17
I160
sS'feeding'
p18
I1702
sS'reposeth'
p19
I4029
sS'vile'
p20
I1988
sS'granting'
p21
I2246
sS'love-learned'
p22
I3866
sS'sweetest'
p23
I1266
sS'contained'
p24
I3321
sS'presents'
p25
I1037
sS'bays'
p26
I3669
sS'walks'
p27
I2270
sS"there's"
p28
I3099
sS'whatsoever'
p29
I1000
sS'under'
p30
I339
sS'lord'
p31
I980
sS'sorry'
p32
I797
sS'pride'
p33
I961
sS'sway'
p34
I1904
sS'worth'
p35
I99
sS'wondrous'
p36
I2484
sS'unrighteous'
p37
I3350
sS'amorous'
p38
I4240
sS'discased'
p39
I3202
sS'dispense'
p40
I2600
sS'void'
p41
I4258
sS'hadst'
p42
I1368
sS'lurk'
p43
I4189
sS'inhearse'
p44
I2225
sS"women's"
p45
I824
sS'shoot'
p46
I2696
sS'every'
p47
I254
sS'foul'
p48
I2726
sS'nourished'
p49
I2021
sS"o'er-read"
p50
I2157
sS'wonts'
p51
I3805
sS'special'
p52
I1636
sS'thenceforth'
p53
I3823
sS'raging'
p54
I4011
sS'believed'
p55
I3005
sS'uttering'
p56
I1949
sS'prize'
p57
I1550
sS'unrest'
p58
I3111
sS'fondly'
p59
I4121
sS'graced'
p60
I2114
sS'shrill'
p61
I3512
sS'harrowed'
p62
I4162
sS'glancing'
p63
I3464
sS'honor'
p64
I3287
sS'relics'
p65
I3572
sS'succession'
p66
I139
sS'graces'
p67
I729
sS'triumph'
p68
I953
sS'enjoy'
p69
I1092
sS'charter'
p70
I1748
sS'force'
p71
I1696
sS'depraves'
p72
I3687
sS'tired'
p73
I1013
sS'awake'
p74
I1808
sS'razed'
p75
I972
sS'warns'
p76
I3270
sS'out-going'
p77
I379
sS'direct'
p78
I3731
sS'assure'
p79
I2583
sS'tires'
p80
I1651
sS'longwhile'
p81
I3965
sS'crave'
p82
I1737
sS'persuade'
p83
I876
sS'rigorous'
p84
I3402
sS'false-forged'
p85
I4337
sS'quill'
p86
I2187
sS'even'
p87
I672
sS'beated'
p88
I1826
sS'captain'
p89
I1631
sS'hide'
p90
I1203
sS"ne'er"
p91
I736
sS'wreck'
p92
I4016
sS'solemn'
p93
I1624
sS'thunder'
p94
I631
sS'fingers'
p95
I2857
sS'liberty'
p96
I1388
sS'children'
p97
I2092
sS'lowliness'
p98
I3421
sS'worser'
p99
I3057
sS'inheritors'
p100
I3088
sS'above'
p101
I2229
sS'guilty'
p102
I2567
sS'matcheth'
p103
I1960
sS'new'
p104
I142
sS'net'
p105
I3768
sS'poorly'
p106
I1648
sS'ever'
p107
I816
sS'seeks'
p108
I3382
sS'told'
p109
I1492
sS'deemed'
p110
I2370
sS'merchandized'
p111
I2442
sS'sinks'
p112
I1482
sS"t'adorn"
p113
I3544
sS'join'
p114
I2277
sS'fervent'
p115
I3699
sS'never'
p116
I8
sS'here'
p117
I583
sS'herd'
p118
I554
sS'beck'
p119
I1740
sS"sweet'st"
p120
I2921
sS'pursuit'
p121
I2884
sS'humility'
p122
I3864
sS'active'
p123
I1320
sS'spies'
p124
I2762
sS'a-doting'
p125
I845
sS'effectually'
p126
I2606
sS'dry'
p127
I1236
sS'resty'
p128
I2421
sS'substance'
p129
I297
sS'daughter'
p130
I3802
sS'uplifting'
p131
I4307
sS'gaol'
p132
I2931
sS'leaves'
p133
I272
sS'climbed'
p134
I355
sS'credit'
p135
I2982
sS'smoke'
p136
I1230
sS'permit'
p137
I1198
sS'bettered'
p138
I2049
sS'mistake'
p139
I3123
sS'settled'
p140
I1564
sS'politic'
p141
I2812
sS'golden'
p142
I191
sS'swearing'
p143
I3155
sS'divide'
p144
I1494
sS'motley'
p145
I2549
sS'blessed-fair'
p146
I2315
sS'acquit'
p147
I3845
sS'sorrows'
p148
I1070
sS'patience'
p149
I1746
sS'guests'
p150
I4260
sS'comb'
p151
I4331
sS'stern'
p152
I2375
sS'costly'
p153
I3086
sS'glance'
p154
I2060
sS"light's"
p155
I38
sS'debased'
p156
I4300
sS'plot'
p157
I2972
sS'budding'
p158
I2347
sS'would'
p159
I517
sS'revengeful'
p160
I3649
sS'recured'
p161
I1483
sS"world's"
p162
I54
sS'junes'
p163
I2475
sS'forepast'
p164
I4083
sS'orpheus'
p165
I3874
sS'music'
p166
I386
sS'therefore'
p167
I886
sS'shed'
p168
I4114
sS'langor'
p169
I3752
sS'survive'
p170
I1157
sS'gilding'
p171
I832
sS'tell'
p172
I151
sS'breathe'
p173
I778
sS'leese'
p174
I300
sS'unbless'
p175
I163
sS'holy'
p176
I1145
sS'wary'
p177
I884
sS'brings'
p178
I1104
sS'infusion'
p179
I3645
sS'muse'
p180
I854
sS'herein'
p181
I510
sS'grief'
p182
I1242
sS'glass'
p183
I152
sS'warm'
p184
I146
sS'arms'
p185
I3959
sS'loose'
p186
I4269
sS'excellent'
p187
I1336
sS'robbing'
p188
I1943
sS'contemplation'
p189
I4286
sS'ward'
p190
I2928
sS'hold'
p191
I592
sS'striving'
p192
I2460
sS'must'
p193
I240
sS'me'
p194
I499
sS'sprite'
p195
I3216
sS'locked'
p196
I1545
sS'room'
p197
I1691
sS'err'
p198
I2902
sS'rights'
p199
I745
sS'work'
p200
I249
sS'eclipse'
p201
I2508
sS'roof'
p202
I485
sS'meadows'
p203
I1191
sS'ere'
p204
I306
sS'itself'
p205
I3630
sS'leaped'
p206
I2404
sS'tradefull'
p207
I3441
sS'revenues'
p208
I3029
sS'my'
p209
I135
sS'example'
p210
I2197
sS'lodged'
p211
I492
sS'phrase'
p212
I2212
sS'subtleties'
p213
I2978
sS'wonderment'
p214
I3253
sS'fresher'
p215
I2172
sS'wane'
p216
I502
sS'unjust'
p217
I2986
sS'floor'
p218
I3529
sS'laughs'
p219
I3996
sS'disparagement'
p220
I4136
sS'honey'
p221
I1871
sS'foist'
p222
I2790
sS'kingdoms'
p223
I1981
sS'respose'
p224
I1016
sS'immortally'
p225
I3888
sS'times'
p226
I321
sS'looser'
p227
I3550
sS'worse'
p228
I1774
sS'ceremony'
p229
I907
sS"consum'st"
p230
I434
sS'gusts'
p231
I604
sS'provide'
p232
I2568
sS'dignifies'
p233
I2202
sS'travel'
p234
I1014
sS'indirectly'
p235
I1919
sS'feature'
p236
I2617
sS"th'only"
p237
I4359
sS'stint'
p238
I3879
sS'wights'
p239
I2493
sS'far'
p240
I1023
sS'hot'
p241
I760
sS'writers'
p242
I2163
sS"glory's"
p243
I4039
sS'rashly'
p244
I3782
sS'answer'
p245
I130
sS'gate'
p246
I1101
sS'unwarily'
p247
I3458
sS'rebellious'
p248
I3299
sS'dignified'
p249
I2433
sS'turmoil'
p250
I3381
sS"o'er-snowed"
p251
I277
sS'blanks'
p252
I2087
sS'beauty'
p253
I105
sS'after'
p254
I596
sS'bared'
p255
I4362
sS'wrong'
p256
I813
sS'lot'
p257
I4296
sS'lay'
p258
I1426
sS'law'
p259
I3349
sS'lap'
p260
I2409
sS'wronk'
p261
I2271
sS'descent'
p262
I4219
sS'purchase'
p263
I3638
sS'attempt'
p264
I4310
sS'third'
p265
I4221
sS'scourge'
p266
I3600
sS"rud'st"
p267
I2614
sS'revolt'
p268
I2314
sS'greet'
p269
I1561
sS'purging'
p270
I1471
sS'wink'
p271
I1429
sS'maintain'
p272
I2768
sS'haste'
p273
I1011
sS'keeps'
p274
I716
sS'jove'
p275
I3803
sS'alack'
p276
I1215
sS'wouldst'
p277
I646
sS'wind'
p278
I629
sS'bed-vow'
p279
I3157
sS'determinate'
p280
I2244
sS'couplement'
p281
I857
sS'after-loss'
p282
I2278
sS'office'
p283
I2439
sS'deck'
p284
I3273
sS'consent'
p285
I1058
sS'over'
p286
I3532
sS'profaned'
p287
I2846
sS'sickly'
p288
I3104
sS'fortify'
p289
I695
sS'ghastly'
p290
I1038
sS'blossom'
p291
I4072
sS'strangle'
p292
I2269
sS"bestow'st"
p293
I504
sS'wrought'
p294
I847
sS'before'
p295
I684
sS'fit'
p296
I3557
sS'heretofore'
p297
I4089
sS'blown'
p298
I4035
sS'crew'
p299
I4071
sS'better'
p300
I1176
sS'meekness'
p301
I3543
sS'fade'
p302
I771
sS'persist'
p303
I3300
sS'carve'
p304
I807
sS'hidden'
p305
I1151
sS'savour'
p306
I2826
sS'then'
p307
I109
sS'them'
p308
I640
sS'blots'
p309
I1301
sS'maker'
p310
I3330
sS'spray'
p311
I3830
sS'enrich'
p312
I2095
sS'thee'
p313
I78
sS'safe'
p314
I3855
sS"truth's"
p315
I650
sS'break'
p316
I1099
sS"winter's"
p317
I304
sS'diseased'
p318
I2711
sS'they'
p319
I292
sS'glazed'
p320
I939
sS'one'
p321
I318
sS'silver'
p322
I1261
sS'shadows'
p323
I1436
sS'rhetoric'
p324
I2174
sS'meat'
p325
I3820
sS'brightness'
p326
I3140
sS'freshly'
p327
I4084
sS'troublous'
p328
I3721
sS'persever'
p329
I3344
sS'slavery'
p330
I2922
sS'rocks'
p331
I1877
sS'herald'
p332
I59
sS'victories'
p333
I970
sS'needing'
p334
I2710
sS'arrow'
p335
I3473
sS'each'
p336
I340
sS'wantonly'
p337
I1661
sS'dulness'
p338
I1710
sS'went'
p339
I1614
sS'side'
p340
I1507
sS'luck'
p341
I619
sS'true-telling'
p342
I2177
sS'wheel'
p343
I3497
sS'woes'
p344
I1113
sS'concord'
p345
I400
sS'innocent'
p346
I3909
sS"'will'"
p347
I2951
sS'spider'
p348
I4190
sS'taught'
p349
I1861
sS'forgot'
p350
I975
sS'misprision'
p351
I2252
sS'whit'
p352
I1220
sS'truant'
p353
I2430
sS'array'
p354
I3082
sS'borne'
p355
I564
sS'contend'
p356
I1780
sS'large'
p357
I1462
sS'decree'
p358
I2325
sS'weakness'
p359
I2257
sS'sang'
p360
I2007
sS'god'
p361
I1735
sS"th'assurance"
p362
I4030
sS'washed'
p363
I4163
sS'forty'
p364
I86
sS"run'st"
p365
I3049
sS'content'
p366
I62
sS'laid'
p367
I2821
sS'heart-inflaming'
p368
I3188
sS'restraint'
p369
I3860
sS'heavenly'
p370
I353
sS'got'
p371
I2099
sS'newly'
p372
I4109
sS'marigold'
p373
I959
sS'forth'
p374
I1227
sS'stately'
p375
I4169
sS'prizing'
p376
I3048
sS'assured'
p377
I1489
sS'fadeth'
p378
I2014
sS'hang'
p379
I1662
sS'deceived'
p380
I2318
sS'eternal'
p381
I606
sS'given'
p382
I220
sS'free'
p383
I211
sS'mourning'
p384
I2916
sS'mistaking'
p385
I2251
sS'bestow'
p386
I994
sS'whereupon'
p387
I830
sS'evil'
p388
I620
sS'unquiet'
p389
I3225
sS'element'
p390
I3999
sS'crowned'
p391
I1327
sS'mistress'
p392
I819
sS'knit'
p393
I981
sS'wantonness'
p394
I2363
sS'wrath'
p395
I3380
sS"receiv'st"
p396
I394
sS'created'
p397
I841
sS'lour'
p398
I3326
sS'days'
p399
I110
sS'sue'
p400
I2947
sS'bears'
p401
I1252
sS'renew'
p402
I1697
sS'tempting'
p403
I1409
sS'unknown'
p404
I2675
sS'tied'
p405
I2971
sS'potions'
p406
I2578
sS'loud'
p407
I3053
sS'ruinate'
p408
I484
sS'user'
p409
I459
sS'separable'
p410
I1304
sS'untutored'
p411
I2977
sS'already'
p412
I2071
sS'crowning'
p413
I2662
sS'hearsay'
p414
I873
sS"'greeing"
p415
I2634
sS'rank'
p416
I1958
sS'hearing'
p417
I2222
sS'protract'
p418
I4348
sS'jealous'
p419
I1730
sS'featured'
p420
I1087
sS'blossomed'
p421
I4117
sS'another'
p422
I154
sS'sober'
p423
I2914
sS'thick'
p424
I3397
sS'filching'
p425
I2046
sS'sends'
p426
I4365
sS'cheerless'
p427
I3261
sS'exchequer'
p428
I1925
sS'usurer'
p429
I223
sS'top'
p430
I699
sS'hawks'
p431
I2297
sS'millioned'
p432
I2645
sS'greedily'
p433
I3376
sS'master'
p434
I820
sS'too'
p435
I48
sS'dwell'
p436
I252
sS'bitter'
p437
I2579
sS'aslake'
p438
I3878
sS'troubled'
p439
I3984
sS'saith'
p440
I2624
sS'plaint'
p441
I3506
sS'broils'
p442
I1683
sS'feathers'
p443
I2108
sS'griefs'
p444
I2289
sS'took'
p445
I1515
sS'wisdom'
p446
I509
sS'atalanta'
p447
I4257
sS'wardrobe'
p448
I1633
sS'shortly'
p449
I3943
sS'upbrought'
p450
I4069
sS"youth's"
p451
I97
sS'spreads'
p452
I3293
sS'character'
p453
I1767
sS'begins'
p454
I1018
sS'distance'
p455
I1446
sS"here's"
p456
I1427
sS'guile'
p457
I3767
sS'soonest'
p458
I4033
sS'coward'
p459
I2034
sS"mother's"
p460
I180
sS'tree'
p461
I3650
sS'bitterness'
p462
I1726
sS'idly'
p463
I2419
sS'matter'
p464
I1452
sS'idle'
p465
I1804
sS'titles'
p466
I950
sS'flame'
p467
I37
sS'friend'
p468
I1133
sS'deserving'
p469
I2247
sS'askance'
p470
I2555
sS'knights'
p471
I2496
sS'beard'
p472
I561
sS'powers'
p473
I3083
sS'swift-footed'
p474
I799
sS'ravished'
p475
I3255
sS'fashion'
p476
I823
sS'sees'
p477
I3126
sS'hue'
p478
I835
sS"mind's"
p479
I2076
sS'mought'
p480
I3347
sS'modern'
p481
I2188
sS'mind'
p482
I449
sS'mine'
p483
I126
sS'spent'
p484
I2070
sS'seed'
p485
I4273
sS'manner'
p486
I2998
sS'amiss'
p487
I1272
sS'bewailed'
p488
I1312
sS"deserv'st"
p489
I1359
sS'churl'
p490
I70
sS'seem'
p491
I909
sS'doff'
p492
I3634
sS'seek'
p493
I1574
sS'tells'
p494
I538
sS'contents'
p495
I1674
sS'ray'
p496
I3729
sS'cage'
p497
I4127
sS'praising'
p498
I1366
sS'drossy'
p499
I3419
sS'strength'
p500
I910
sS'entrap'
p501
I3391
sS'neck'
p502
I2905
sS'snow'
p503
I2891
sS'sound'
p504
I2896
sS'chest'
p505
I1544
sS'subjects'
p506
I1775
sS'forces'
p507
I3422
sS'laughed'
p508
I2405
sS'pilgrimage'
p509
I362
sS'rider'
p510
I1588
sS'aggravate'
p511
I3091
sS'antick'
p512
I4167
sS'pandora'
p513
I3596
sS'maiden'
p514
I703
sS'though'
p515
I293
sS'object'
p516
I831
sS'dial'
p517
I2074
sS'justify'
p518
I2989
sS'dulling'
p519
I2459
sS'errors'
p520
I2369
sS'mouth'
p521
I4325
sS'plenty'
p522
I3746
sS'ashes'
p523
I2018
sS'disarmed'
p524
I3196
sS'grave'
p525
I79
sS'shalt'
p526
I187
sS'constancy'
p527
I2486
sS'peers'
p528
I3871
sS"hearts'"
p529
I3868
sS'consumed'
p530
I2022
sS'enchased'
p531
I4301
sS'flow'
p532
I1114
sS'breathes'
p533
I2160
sS'steeled'
p534
I2591
sS'ruthless'
p535
I3751
sS'points'
p536
I1003
sS'forsook'
p537
I4154
sS'enbrew'
p538
I3978
sS'breathed'
p539
I3069
sS'wrecked'
p540
I2147
sS'fitted'
p541
I2731
sS'reserve'
p542
I1165
sS'wild'
p543
I2456
sS'renewed'
p544
I2574
sS'bait'
p545
I2879
sS'inspire'
p546
I3644
sS"poets'"
p547
I3662
sS'oaths'
p548
I3164
sS'enjoyer'
p549
I2045
sS'ending'
p550
I1692
sS'quench'
p551
I4157
sS'poison'
p552
I2722
sS'makest'
p553
I3352
sS'earth'
p554
I786
sS'evening'
p555
I4347
sS'bail'
p556
I2026
sS'enjoyed'
p557
I2877
sS'bearer'
p558
I1600
sS'apace'
p559
I4244
sS'touches'
p560
I737
sS'copy'
p561
I536
sS'proposed'
p562
I2886
sS'spite'
p563
I1303
sS'herself'
p564
I2919
sS'aspire'
p565
I3309
sS'cupid'
p566
I3169
sS'bush'
p567
I3976
sS'bliss'
p568
I2885
sS'touched'
p569
I735
sS'rich'
p570
I685
sS'pursuing'
p571
I2053
sS'mend'
p572
I1945
sS"'thou"
p573
I428
sS'forelock'
p574
I4184
sS'columbines'
p575
I4112
sS'heart-thrilling'
p576
I3386
sS'borrowed'
p577
I2842
sS'do'
p578
I326
sS'blenches'
p579
I2556
sS'forsworn'
p580
I1893
sS'lightening'
p581
I3345
sS"'i"
p582
I3068
sS"abode's"
p583
I3893
sS'kindling'
p584
I3307
sS'conduct'
p585
I3724
sS'stop'
p586
I178
sS'perceive'
p587
I669
sS'leisure'
p588
I1362
sS'raiment'
p589
I880
sS'guileful'
p590
I3394
sS'gored'
p591
I2552
sS'bootless'
p592
I1080
sS'spirit'
p593
I1712
sS'despite'
p594
I193
sS'report'
p595
I1318
sS'beseen'
p596
I3631
sS'saturn'
p597
I2406
sS'seemly'
p598
I881
sS'entreaty'
p599
I3505
sS'runs'
p600
I3038
sS'increasing'
p601
I1857
sS'bar'
p602
I1495
sS'spilling'
p603
I3800
sS'exchanged'
p604
I2540
sS'fields'
p605
I4264
sS'beseem'
p606
I2917
sS'sithens'
p607
I3228
sS'thrusts'
p608
I1591
sS'doting'
p609
I2901
sS'twice'
p610
I750
sS'eyelids'
p611
I1028
sS'hercules'
p612
I4255
sS'esteeming'
p613
I2441
sS'release'
p614
I3754
sS'hasten'
p615
I1778
sS'steal'
p616
I1308
sS'farther'
p617
I1061
sS'unprovident'
p618
I473
sS'penance'
p619
I2582
sS"wond'ring"
p620
I2795
sS'unrespected'
p621
I1430
sS'fair'
p622
I128
sS'habit'
p623
I2987
sS'imitate'
p624
I1918
sS'nut'
p625
I3622
sS'proclaims'
p626
I2515
sS'betokening'
p627
I4080
sS'depends'
p628
I2311
sS'allure'
p629
I3546
sS'corrupt'
p630
I2965
sS'fain'
p631
I4352
sS'prostrate'
p632
I4007
sS'best'
p633
I529
sS'subject'
p634
I1333
sS'voyage'
p635
I4057
sS'said'
p636
I1412
sS'draws'
p637
I3554
sS'temptation'
p638
I1395
sS"bett'ring"
p639
I1163
sS'away'
p640
I516
sS'sail'
p641
I2134
sS'solace'
p642
I3966
sS'bier'
p643
I563
sS'madding'
p644
I2734
sS'wilful-slow'
p645
I1613
sS'mud'
p646
I1259
sS'score'
p647
I2779
sS'finger'
p648
I2367
sS'pebbled'
p649
I1776
sS'scorn'
p650
I1107
sS'drawn'
p651
I718
sS'sorts'
p652
I3626
sS'enlighten'
p653
I3167
sS'approach'
p654
I3967
sS'ire'
p655
I3565
sS'discovery'
p656
I3938
sS'preserve'
p657
I3103
sS'warrior'
p658
I966
sS'we'
p659
I3
sS'men'
p660
I668
sS'terms'
p661
I3094
sS'parallels'
p662
I1792
sS'extend'
p663
I4353
sS'nature'
p664
I234
sS'woxen'
p665
I3229
sS'weak'
p666
I1247
sS'ignorance'
p667
I2105
sS'authorizing'
p668
I1271
sS'thereon'
p669
I4259
sS'disdaineth'
p670
I1219
sS'wear'
p671
I680
sS'diest'
p672
I383
sS'defiance'
p673
I3292
sS'news'
p674
I3001
sS'debt'
p675
I2184
sS'tempests'
p676
I2672
sS'pity'
p677
I77
sS'foes'
p678
I1385
sS'goddess'
p679
I2566
sS'accident'
p680
I2799
sS'disdain'
p681
I2909
sS'fault'
p682
I1279
sS'ill'
p683
I889
sS'resounded'
p684
I3515
sS'against'
p685
I588
sS'gotten'
p686
I4178
sS'brag'
p687
I777
sS'mildly'
p688
I3323
sS'receives'
p689
I2571
sS'faces'
p690
I733
sS'exceeds'
p691
I3143
sS'sunshine'
p692
I3828
sS'expense'
p693
I1123
sS'groans'
p694
I2904
sS'asked'
p695
I107
sS'suggest'
p696
I3054
sS'tough'
p697
I3618
sS'vexed'
p698
I3122
sS'honouring'
p699
I2818
sS'burthen'
p700
I911
sS'vain'
p701
I3444
sS'height'
p702
I675
sS'flames'
p703
I3310
sS'hers'
p704
I1410
sS'prone'
p705
I3015
sS'lowly'
p706
I3239
sS'springs'
p707
I2472
sS'over-plus'
p708
I2950
sS'trust'
p709
I905
sS'heals'
p710
I1241
sS'speak'
p711
I1237
sS'helice'
p712
I3735
sS'yellowed'
p713
I738
sS'unhappily'
p714
I1894
sS'puts'
p715
I1006
sS'eager'
p716
I2699
sS'time-bettering'
p717
I2170
sS'foully'
p718
I3839
sS'condemned'
p719
I3766
sS'rebounded'
p720
I3519
sS'three'
p721
I2466
sS'been'
p722
I1759
sS'particulars'
p723
I2301
sS'twain'
p724
I1293
sS'much'
p725
I124
sS'interest'
p726
I1149
sS'incertainty'
p727
I2660
sS'privilege'
p728
I2359
sS'vermilion'
p729
I2411
sS'fry'
p730
I3705
sS'lovely'
p731
I184
sS'thrice'
p732
I1719
sS'idol'
p733
I2481
sS'threw'
p734
I3076
sS'cuckoo'
p735
I3509
sS'life'
p736
I433
sS"brav'ry"
p737
I1232
sS'easy'
p738
I2537
sS'erred'
p739
I2974
sS'drugs'
p740
I2723
sS'maladies'
p741
I2700
sS'speeches'
p742
I4333
sS'augmenteth'
p743
I3843
sS'decrepit'
p744
I1319
sS'craft'
p745
I3579
sS'dote'
p746
I3009
sS'child'
p747
I127
sS'catch'
p748
I2611
sS'doth'
p749
I206
sS'erst'
p750
I557
sS'gracious'
p751
I336
sS'applied'
p752
I3710
sS'physician'
p753
I3106
sS'east'
p754
I2911
sS'sly'
p755
I3771
sS'persueth'
p756
I3374
sS'air'
p757
I868
sS'lesser'
p758
I2638
sS'ugly'
p759
I1202
sS'near'
p760
I1813
sS'weaker'
p761
I3780
sS'suppose'
p762
I1731
sS'comptroll'
p763
I3362
sS'aid'
p764
I2117
sS'voice'
p765
I1946
sS'launched'
p766
I4022
sS'weakens'
p767
I902
sS"'mongst"
p768
I3524
sS'changed'
p769
I3341
sS'abhored'
p770
I3698
sS'played'
p771
I928
sS'is'
p772
I156
sS'astonishment'
p773
I3251
sS'it'
p774
I144
sS'defeated'
p775
I849
sS'shame'
p776
I117
sS'to-morrow'
p777
I1706
sS'splendour'
p778
I1212
sS'watching'
p779
I3121
sS'in'
p780
I67
sS'bounteous'
p781
I222
sS'sever'
p782
I3314
sS'if'
p783
I132
sS'grown'
p784
I1169
sS'wooing'
p785
I3063
sS'memorial'
p786
I2027
sS'awakes'
p787
I1531
sS'cools'
p788
I3203
sS'patent'
p789
I2250
sS'things'
p790
I863
sS'make'
p791
I136
sS'wound'
p792
I1240
sS"lords'"
p793
I2390
sS'beside'
p794
I899
sS'bosoms'
p795
I2752
sS"th'"
p796
I243
sS'silly'
p797
I3534
sS'several'
p798
I2973
sS'grows'
p799
I651
sS'entitled'
p800
I1328
sS'lusty'
p801
I111
sS'fairly'
p802
I261
sS'juniper'
p803
I3613
sS'lusts'
p804
I3302
sS'tops'
p805
I1189
sS'rain'
p806
I630
sS'hand'
p807
I302
sS'delight'
p808
I1307
sS'corruption'
p809
I4271
sS'purer'
p810
I3342
sS'descry'
p811
I3410
sS'supposing'
p812
I2317
sS'dark'
p813
I1434
sS"tempests'"
p814
I3789
sS'bequest'
p815
I209
sS'blamed'
p816
I1373
sS'thoughts'
p817
I1024
sS'censures'
p818
I3119
sS'kept'
p819
I460
sS'thy'
p820
I39
sS'singleness'
p821
I409
sS'sweetness'
p822
I2328
sS'possessed'
p823
I480
sS'humble'
p824
I2136
sS'game'
p825
I4152
sS'inherit'
p826
I2333
sS'ocean'
p827
I1713
sS'ragged'
p828
I303
sS'thm'
p829
I3977
sS'fulness'
p830
I1708
sS'greatest'
p831
I1541
sS'incapable'
p832
I2620
sS'mother'
p833
I161
sS'hearts'
p834
I1137
sS'the'
p835
I19
sS'cure'
p836
I2584
sS'yours'
p837
I584
sS'left'
p838
I278
sS'rubies'
p839
I3446
sS'reeks'
p840
I2895
sS'appease'
p841
I3566
sS'just'
p842
I2541
sS'wasteful'
p843
I688
sS'yea'
p844
I1367
sS'gods'
p845
I3599
sS"flesh's"
p846
I3633
sS"poet's"
p847
I743
sS'unfair'
p848
I262
sS'repose'
p849
I1575
sS'verses'
p850
I2463
sS'maketh'
p851
I2621
sS'thanks'
p852
I1341
sS'fullness'
p853
I3819
sS'swears'
p854
I2976
sS'venemous'
p855
I4329
sS'prognosticate'
p856
I647
sS'plight'
p857
I1045
sS'yet'
p858
I226
sS'succeeding'
p859
I811
sS'vices'
p860
I2354
sS'adding'
p861
I852
sS'dearer'
p862
I1174
sS'compeers'
p863
I2230
sS'had'
p864
I612
sS'counted'
p865
I2839
sS'flit'
p866
I3829
sS'presagers'
p867
I915
sS'alchemy'
p868
I1193
sS'belongs'
p869
I925
sS'beloved'
p870
I474
sS'prison'
p871
I2929
sS'hap'
p872
I435
sS'pitiful'
p873
I2831
sS'save'
p874
I580
sS'deadly'
p875
I3263
sS'gave'
p876
I527
sS"others'"
p877
I2113
sS'dignity'
p878
I2340
sS'bands'
p879
I3207
sS'spacious'
p880
I2953
sS'reviewest'
p881
I2029
sS'awhile'
p882
I4278
sS'firmer'
p883
I3303
sS'birth'
p884
I1173
sS'wanting'
p885
I991
sS'shadow'
p886
I1036
sS'willful'
p887
I3707
sS'dreams'
p888
I1431
sS"picture's"
p889
I1496
sS'desire'
p890
I2
sS'brought'
p891
I1172
sS"feed'st"
p892
I40
sS'gift'
p893
I532
sS'new-found'
p894
I2063
sS'vilest'
p895
I1987
sS'unreave'
p896
I3578
sS'transform'
p897
I3651
sS'offices'
p898
I2094
sS'night'
p899
I540
sS'hung'
p900
I1039
sS'three-score'
p901
I4060
sS'hardens'
p902
I3995
sS'antique'
p903
I746
sS'right'
p904
I1497
sS'old'
p905
I134
sS'dilate'
p906
I4146
sS'understand'
p907
I3911
sS'flatter'
p908
I1066
sS"war's"
p909
I1685
sS'deaf'
p910
I1081
sS'short-numbered'
p911
I2810
sS'dead'
p912
I1139
sS'born'
p913
I1888
sS'offer'
p914
I3366
sS'election'
p915
I4321
sS'mazed'
p916
I3319
sS'compassed'
p917
I4078
sS'dear'
p918
I609
sS'altered'
p919
I2319
sS'bore'
p920
I2816
sS'guess'
p921
I1954
sS'unvalued'
p922
I4253
sS'creep'
p923
I2649
sS'enemies'
p924
I1055
sS'for'
p925
I169
sS"bosom's"
p926
I938
sS'rehearse'
p927
I856
sS'comments'
p928
I2209
sS"bath'd"
p929
I3219
sS'foe'
p930
I51
sS'denied'
p931
I3036
sS'displayed'
p932
I4179
sS'plights'
p933
I4318
sS'bold'
p934
I2781
sS'discord'
p935
I4128
sS'burn'
p936
I794
sS'faery'
p937
I4276
sS'divining'
p938
I2502
sS'shifting'
p939
I826
sS'losing'
p940
I1425
sS'taker'
p941
I2883
sS'peep'
p942
I944
sS'disdains'
p943
I172
sS'shaken'
p944
I2671
sS'proceed'
p945
I2066
sS'trophy'
p946
I4174
sS'theirs'
p947
I828
sS'coral'
p948
I2888
sS'haply'
p949
I1097
sS'frailer'
p950
I2763
sS'o'
p951
I491
sS'costs'
p952
I2303
sS'whilest'
p953
I3877
sS'despair'
p954
I3002
sS'felt'
p955
I2381
sS'cherish'
p956
I530
sS'commit'
p957
I2088
sS'lacked'
p958
I1640
sS'worthily'
p959
I4165
sS'sprites'
p960
I4311
sS'prince'
p961
I4251
sS'bath'
p962
I3177
sS'mile'
p963
I4355
sS'raised'
p964
I3145
sS'faint'
p965
I2129
sS'snare'
p966
I3774
sS'presence'
p967
I495
sS'civil'
p968
I1287
sS'pays'
p969
I2123
sS'nought'
p970
I659
sS'bound'
p971
I1738
sS'son'
p972
I380
sS'down'
p973
I1481
sS'lies'
p974
I41
sS'refined'
p975
I2219
sS"pour'st"
p976
I1335
sS'methods'
p977
I2062
sS'strangely'
p978
I1560
sS"virtue's"
p979
I4235
sS'despised'
p980
I1330
sS'suffice'
p981
I3742
sS'jealousy'
p982
I1806
sS'sovereign'
p983
I1188
sS'fight'
p984
I964
sS'forhead'
p985
I3451
sS'virgin'
p986
I3197
sS'victorious'
p987
I3670
sS'accompanied'
p988
I4315
sS'way'
p989
I375
sS'call'
p990
I507
sS'soom'
p991
I4302
sS'was'
p992
I287
sS'war'
p993
I391
sS'happy'
p994
I416
sS'lowest'
p995
I4046
sS'starve'
p996
I4361
sS'head'
p997
I341
sS'faring'
p998
I890
sS'form'
p999
I155
sS'statute'
p1000
I2943
sS'crown'
p1001
I2511
sS'becoming'
p1002
I2852
sS'sundry'
p1003
I4054
sS'spy'
p1004
I3470
sS'forgetful'
p1005
I2418
sS'fore'
p1006
I374
sS'back'
p1007
I185
sS'heinous'
p1008
I804
sS'pricked'
p1009
I853
sS'heat'
p1010
I556
sS'hear'
p1011
I388
sS'odours'
p1012
I1667
sS'learned'
p1013
I2939
sS'astonished'
p1014
I2231
sS'blindness'
p1015
I3166
sS'removed'
p1016
I977
sS'true'
p1017
I401
sS'deepest'
p1018
I2749
sS'continuance'
p1019
I3500
sS'absent'
p1020
I1391
sS'lilies'
p1021
I2345
sS'humbled'
p1022
I3360
sS'builds'
p1023
I4132
sS'captive'
p1024
I1912
sS'extremity'
p1025
I1603
sS"for't"
p1026
I2437
sS'bids'
p1027
I1524
sS'bounds'
p1028
I4066
sS'until'
p1029
I1486
sS'crystal'
p1030
I1499
sS'unfathered'
p1031
I2396
sS'adore'
p1032
I360
sS'anew'
p1033
I2168
sS'engraft'
p1034
I690
sS'bide'
p1035
I1743
sS'latch'
p1036
I2608
sS'temper'
p1037
I3804
sS'fetters'
p1038
I3786
sS'adorn'
p1039
I3660
sS'trim'
p1040
I2401
sS'moly'
p1041
I3624
sS'later'
p1042
I4234
sS'disgrace'
p1043
I1076
sS'ornaments'
p1044
I3025
sS'fury'
p1045
I2414
sS'sinful'
p1046
I2461
sS'steep-up'
p1047
I354
sS"beauty's"
p1048
I11
sS'hungry'
p1049
I1709
sS'huswife'
p1050
I3039
sS'sometime'
p1051
I761
sS'subsist'
p1052
I2774
sS'prayer'
p1053
I3384
sS'shines'
p1054
I759
sS'face'
p1055
I150
sS'injurious'
p1056
I1447
sS'posting'
p1057
I1602
sS'willingly'
p1058
I2001
sS'looked'
p1059
I2503
sS'engines'
p1060
I3438
sS'faithful'
p1061
I3666
sS'dying'
p1062
I3098
sS'no'
p1063
I289
sS'pityless'
p1064
I4006
sS'ambrosial'
p1065
I3821
sS'excel'
p1066
I260
sS"lov'st"
p1067
I395
sS'actor'
p1068
I896
sS'thriftless'
p1069
I116
sS'despising'
p1070
I1093
sS'falsely'
p1071
I3118
sS"renew'th"
p1072
I3369
sS'papers'
p1073
I739
sS'tie'
p1074
I1979
sS'vanished'
p1075
I1122
sS'smell'
p1076
I1957
sS'eternity'
p1077
I2084
sS'picture'
p1078
I1523
sS'enlarge'
p1079
I3715
sS'intend'
p1080
I1026
sS'phoenix'
p1081
I792
sS'pyramids'
p1082
I2785
sS'dies'
p1083
I196
sS'welcome'
p1084
I1720
sS'first-born'
p1085
I864
sS'present-absent'
p1086
I1476
sS'journey'
p1087
I1017
sS'intent'
p1088
I3375
sS'reign'
p1089
I1053
sS'budded'
p1090
I4106
sS'occasion'
p1091
I3987
sS'rolling'
p1092
I827
sS'pierced'
p1093
I1500
sS'seeing'
p1094
I1952
sS'died'
p1095
I1180
sS'wrackful'
p1096
I1874
sS'warn'
p1097
I3692
sS'to-day'
p1098
I1703
sS'longer'
p1099
I585
sS'blushing'
p1100
I2863
sS'outwent'
p1101
I4062
sS'daily'
p1102
I1071
sS'loyal'
p1103
I4129
sS'cheater'
p1104
I3148
sS'teeth'
p1105
I790
sS"dian's"
p1106
I3170
sS'laws'
p1107
I1570
sS'restored'
p1108
I1135
sS'songs'
p1109
I2482
sS'throng'
p1110
I3396
sS'cruelly'
p1111
I3841
sS'chain'
p1112
I3849
sS'whoever'
p1113
I2949
sS'rob'
p1114
I3490
sS'varying'
p1115
I2489
sS"perceiv'st"
p1116
I2023
sS'souls'
p1117
I838
sS'invent'
p1118
I1332
sS'engrafted'
p1119
I1329
sS'leads'
p1120
I264
sS'continual'
p1121
I2797
sS'mild'
p1122
I3413
sS'slandered'
p1123
I2841
sS'ice'
p1124
I3671
sS'battle'
p1125
I3370
sS'idolatry'
p1126
I2480
sS'abundant'
p1127
I2394
sS'disobeys'
p1128
I3525
sS'needeth'
p1129
I3426
sS'retention'
p1130
I2778
sS'mounted'
p1131
I1604
sS'praises'
p1132
I2206
sS'fancies'
p1133
I4267
sS'father'
p1134
I611
sS'confounds'
p1135
I268
sS'vex'
p1136
I2313
sS'blissing'
p1137
I4134
sS'amaze'
p1138
I3459
sS'charge'
p1139
I3089
sS'praised'
p1140
I2221
sS'excellect'
p1141
I3951
sS'terror'
p1142
I3690
sS'choir'
p1143
I3516
sS'suffered'
p1144
I2745
sS'addeth'
p1145
I2955
sS'furrows'
p1146
I877
sS'abundance'
p1147
I42
sS'strumpeted'
p1148
I1899
sS'string'
p1149
I411
sS'advantage'
p1150
I1852
sS'drudge'
p1151
I3154
sS'fleece'
p1152
I1940
sS'votary'
p1153
I3193
sS'mourn'
p1154
I1982
sS'advised'
p1155
I1557
sS'word'
p1156
I2065
sS'trouble'
p1157
I1082
sS'brows'
p1158
I4107
sS'feeble'
p1159
I370
sS'minute'
p1160
I4356
sS'cool'
p1161
I3199
sS"soul's"
p1162
I996
sS'perceived'
p1163
I2477
sS'clouds'
p1164
I1064
sS'nectar'
p1165
I3822
sS'level'
p1166
I2694
sS'did'
p1167
I248
sS'die'
p1168
I7
sS'dig'
p1169
I91
sS"best'"
p1170
I2658
sS'cloudy'
p1171
I3736
sS'forgets'
p1172
I4204
sS'leave'
p1173
I235
sS'settle'
p1174
I3883
sS'excellence'
p1175
I2338
sS'burned'
p1176
I2474
sS'quick'
p1177
I1684
sS'woven'
p1178
I4194
sS'round'
p1179
I3447
sS'enlumined'
p1180
I4147
sS'prevent'
p1181
I2701
sS'brave'
p1182
I542
sS'says'
p1183
I1504
sS'fearing'
p1184
I2657
sS"offender's"
p1185
I1249
sS'double-vantage'
p1186
I2263
sS'sigh'
p1187
I1112
sS'wherefore'
p1188
I692
sS'cost'
p1189
I1846
sS'dried'
p1190
I3304
sS'scarce'
p1191
I3772
sS'patient'
p1192
I2576
sS'fear'
p1193
I432
sS'indigest'
p1194
I2625
sS'hymn'
p1195
I2218
sS"fleet'st"
p1196
I795
sS'curse'
p1197
I1084
sS'appear'
p1198
I1148
sS'assistance'
p1199
I2098
sS'contracted'
p1200
I32
sS'favour'
p1201
I948
sS'pleased'
p1202
I3010
sS'suspect'
p1203
I1964
sS'handmaid'
p1204
I4289
sS'goes'
p1205
I1779
sS'pine'
p1206
I2056
sS'aswagement'
p1207
I3755
sS'appeal'
p1208
I2697
sS'badge'
p1209
I3642
sS'filled'
p1210
I724
sS'unsure'
p1211
I3604
sS"april's"
p1212
I865
sS'prescriptions'
p1213
I3107
sS'wail'
p1214
I440
sS'honour'
p1215
I603
sS'clerk'
p1216
I2214
sS'dazed'
p1217
I3248
sS'virtues'
p1218
I3456
sS'water'
p1219
I1464
sS'entertain'
p1220
I1364
sS'address'
p1221
I3368
sS'alone'
p1222
I229
sS'subtle'
p1223
I3580
sS'appears'
p1224
I2457
sS'change'
p1225
I488
sS'blunter'
p1226
I1699
sS'boy'
p1227
I2529
sS'enroll'
p1228
I3363
sS'stair'
p1229
I4042
sS'boast'
p1230
I949
sS'root'
p1231
I1682
sS'eke'
p1232
I3485
sS'overflowing'
p1233
I3858
sS'wherever'
p1234
I1472
sS'bow'
p1235
I2276
sS'council'
p1236
I3598
sS'spheres'
p1237
I2732
sS'reascend'
p1238
I4350
sS'shook'
p1239
I2469
sS'respite'
p1240
I3373
sS'recounting'
p1241
I1490
sS'stained'
p1242
I2545
sS'love'
p1243
I465
sS'humour'
p1244
I2299
sS'tempteth'
p1245
I3059
sS'storms'
p1246
I3896
sS'paragon'
p1247
I4138
sS'bloody'
p1248
I694
sS'withal'
p1249
I3182
sS'betraying'
p1250
I3149
sS'rash'
p1251
I3283
sS'surmount'
p1252
I1820
sS'swallowed'
p1253
I2880
sS'disguising'
p1254
I3986
sS"suff'ring"
p1255
I1422
sS"o'erworn"
p1256
I1831
sS"th'importune"
p1257
I3581
sS'voices'
p1258
I2596
sS'wealth'
p1259
I1105
sS'prove'
p1260
I426
sS'sake'
p1261
I1420
sS'confounded'
p1262
I1859
sS'angry'
p1263
I3108
sS'give'
p1264
I219
sS'visit'
p1265
I4313
sS'only'
p1266
I60
sS"batt'ring"
p1267
I1872
sS'wrongs'
p1268
I1389
sS'live'
p1269
I195
sS'wood'
p1270
I2854
sS'prey'
p1271
I1543
sS'memory'
p1272
I22
sS'scope'
p1273
I1088
sS'angels'
p1274
I3333
sS"ulysses'"
p1275
I3574
sS'loving'
p1276
I1004
sS"love's"
p1277
I806
sS'dismay'
p1278
I3436
sS'dolphin'
p1279
I3794
sS'fierce'
p1280
I789
sS'riot'
p1281
I1405
sS'sessions'
p1282
I1108
sS'towers'
p1283
I1849
sS'neglected'
p1284
I3044
sS'acceptable'
p1285
I237
sS"strength's"
p1286
I903
sS'drown'
p1287
I1115
sS'everywhere'
p1288
I2383
sS'virtue'
p1289
I1665
sS"danger's"
p1290
I4357
sS'lamping'
p1291
I3215
sS'robe'
p1292
I1632
sS'epitaph'
p1293
I2151
sS'fly'
p1294
I2103
sS'impair'
p1295
I2192
sS'sheds'
p1296
I1253
sS'decked'
p1297
I4265
sS'sphere'
p1298
I4059
sS'broom-flower'
p1299
I3623
sS'car'
p1300
I364
sS'prayed'
p1301
I4268
sS'soul'
p1302
I1816
sS'purge'
p1303
I2702
sS'hardest'
p1304
I2362
sS'sour'
p1305
I1363
sS'can'
p1306
I575
sS'growing'
p1307
I1168
sS'making'
p1308
I46
sS"prevent'st"
p1309
I2428
sS'arrive'
p1310
I4091
sS'laughter'
p1311
I3507
sS'deceased'
p1312
I1162
sS'breeds'
p1313
I2569
sS'ensue'
p1314
I4079
sS'heart'
p1315
I822
sS'dedicated'
p1316
I2164
sS"servant's"
p1317
I3090
sS'want'
p1318
I946
sS'figure'
p1319
I2478
sS'unpityed'
p1320
I3377
sS'predict'
p1321
I635
sS'stoutly'
p1322
I4282
sS'sense'
p1323
I1277
sS'distillation'
p1324
I279
sS'confused'
p1325
I3481
sS'heard'
p1326
I2792
sS'critic'
p1327
I2599
sS'purity'
p1328
I3062
sS'hides'
p1329
I727
sS"mak'st"
p1330
I69
sS'provoke'
p1331
I1589
sS'stole'
p1332
I2124
sS'breaking'
p1333
I3398
sS'bereft'
p1334
I285
sS'churls'
p1335
I1955
sS'noyous'
p1336
I4349
sS'winter'
p1337
I269
sS'dress'
p1338
I1942
sS'divided'
p1339
I1356
sS'undivided'
p1340
I1297
sS'cloak'
p1341
I1226
sS'trophies'
p1342
I1153
sS"lour'st"
p1343
I3134
sS'write'
p1344
I728
sS'till'
p1345
I848
sS'sword'
p1346
I1686
sS'adamant'
p1347
I3850
sS'husbandry'
p1348
I170
sS'sworn'
p1349
I3115
sS'lighten'
p1350
I3339
sS"eye's"
p1351
I1514
sS'map'
p1352
I1930
sS'mar'
p1353
I2462
sS'where-through'
p1354
I942
sS'rears'
p1355
I3408
sS'all-tyrant'
p1356
I3130
sS'may'
p1357
I446
sS'sacrifice'
p1358
I3569
sS'fed'
p1359
I3096
sS'spot'
p1360
I2348
sS'siren'
p1361
I2724
sS'brazen'
p1362
I4131
sS'tipped'
p1363
I4328
sS'mad'
p1364
I2882
sS'date'
p1365
I648
sS'end'
p1366
I456
sS'hateth'
p1367
I3131
sS'flourish'
p1368
I1790
sS'grow'
p1369
I573
sS'man'
p1370
I836
sS'temperate'
p1371
I752
sS'branches'
p1372
I3616
sS'remember'
p1373
I1989
sS'liquid'
p1374
I284
sS'candles'
p1375
I872
sS'rather'
p1376
I2791
sS'darkened'
p1377
I3891
sS'so'
p1378
I94
sS'silence'
p1379
I2190
sS'deceive'
p1380
I232
sS'thorns'
p1381
I1262
sS'tall'
p1382
I2150
sS'truce'
p1383
I3387
sS'increase'
p1384
I1
sS"victor's"
p1385
I3210
sS'forced'
p1386
I1408
sS'tormenteth'
p1387
I3840
sS'serving'
p1388
I351
sS'shield'
p1389
I3957
sS'receivest'
p1390
I1369
sS'indeed'
p1391
I1822
sS'forfeit'
p1392
I2506
sS'wishing'
p1393
I1085
sS'years'
p1394
I1393
sS'course'
p1395
I768
sS'pitch'
p1396
I366
sS'darting'
p1397
I3467
sS'cold'
p1398
I143
sS'still'
p1399
I296
sS'blooded'
p1400
I3541
sS'birds'
p1401
I2008
sS'depending'
p1402
I3606
sS'trifle'
p1403
I1535
sS'solitary'
p1404
I3962
sS'limbs'
p1405
I1015
sS'derive'
p1406
I637
sS'thank'
p1407
I2127
sS'acknowledge'
p1408
I1309
sS'muses'
p1409
I2211
sS'chips'
p1410
I2867
sS'inferior'
p1411
I2137
sS'curls'
p1412
I549
sS'footing'
p1413
I4263
sS'forms'
p1414
I4075
sS'maid'
p1415
I3171
sS'tillage'
p1416
I171
sS"play'st"
p1417
I2853
sS'policy'
p1418
I2714
sS"stol'n"
p1419
I1146
sS'main'
p1420
I1783
sS'into'
p1421
I1334
sS'correspondence'
p1422
I3116
sS'closure'
p1423
I1547
sS'truest'
p1424
I1534
sS'equipage'
p1425
I1175
sS'thereby'
p1426
I12
sS'quod'
p1427
I4231
sS'sooner'
p1428
I2876
sS'delighted'
p1429
I3011
sS'records'
p1430
I2796
sS'flint'
p1431
I3501
sS'coat-armor'
p1432
I4180
sS'half'
p1433
I726
sS'not'
p1434
I158
sS'sorted'
p1435
I4145
sS'now'
p1436
I55
sS'twilight'
p1437
I2012
sS'enfold'
p1438
I3776
sS'nor'
p1439
I290
sS'wont'
p1440
I2445
sS"phoebus'"
p1441
I3646
sS'term'
p1442
I2310
sS'name'
p1443
I1315
sS'servant'
p1444
I1728
sS'uncertain'
p1445
I3105
sS'drop'
p1446
I2279
sS'arrows'
p1447
I3466
sS'covetize'
p1448
I3740
sS'careless'
p1449
I3798
sS'breach'
p1450
I3160
sS'craftily'
p1451
I3777
sS'floods'
p1452
I4010
sS'veins'
p1453
I1921
sS'construe'
p1454
I3869
sS'orphans'
p1455
I2397
sS'whenas'
p1456
I3726
sS'eyelid'
p1457
I3827
sS'surfeit'
p1458
I2055
sS"another's"
p1459
I1941
sS'whylest'
p1460
I3815
sS"abondon'd"
p1461
I3423
sS'receipt'
p1462
I2960
sS'long-while'
p1463
I3338
sS'richly'
p1464
I2208
sS'fever'
p1465
I2733
sS'farewell'
p1466
I2241
sS'seeting'
p1467
I3178
sS'begun'
p1468
I3583
sS'year'
p1469
I518
sS'hymns'
p1470
I1102
sS'calling'
p1471
I3260
sS'despight'
p1472
I3881
sS'living'
p1473
I329
sS'shown'
p1474
I1951
sS'followed'
p1475
I3074
sS'mouths'
p1476
I2159
sS'space'
p1477
I1448
sS'profit'
p1478
I2096
sS'confine'
p1479
I2194
sS'abide'
p1480
I1022
sS'looking'
p1481
I1032
sS'boundless'
p1482
I1865
sS'stupid'
p1483
I3862
sS'misseth'
p1484
I4185
sS'harden'
p1485
I3681
sS'grecian'
p1486
I1652
sS'receiving'
p1487
I1468
sS'correct'
p1488
I2581
sS'assurance'
p1489
I3854
sS'shows'
p1490
I658
sS'END'
p1491
I0
sS'worthiness'
p1492
I1639
sS'siege'
p1493
I1873
sS'cars'
p1494
I3014
sS'sweet-seasoned'
p1495
I2040
sS'quite'
p1496
I271
sS'godess'
p1497
I3571
sS'rebel'
p1498
I3084
sS'plea'
p1499
I1285
sS"feel'st"
p1500
I145
sS'care'
p1501
I1542
sS'advance'
p1502
I2116
sS"age's"
p1503
I1835
sS'workmanship'
p1504
I3487
sS'embassage'
p1505
I985
sS'contented'
p1506
I1091
sS"wand'rest"
p1507
I776
sS'honest'
p1508
I3165
sS'motion'
p1509
I1474
sS'thing'
p1510
I652
sS'impure'
p1511
I3548
sS'thine'
p1512
I30
sS'place'
p1513
I307
sS'recompense'
p1514
I917
sS'envied'
p1515
I3277
sS'slaying'
p1516
I3764
sS'sufferance'
p1517
I1744
sS'widow'
p1518
I442
sS'warning'
p1519
I1986
sS'think'
p1520
I1096
sS'frequent'
p1521
I2687
sS'first'
p1522
I842
sS'blind'
p1523
I1030
sS'langour'
p1524
I3942
sS'saving'
p1525
I3750
sS'mayst'
p1526
I508
sS'waves'
p1527
I1777
sS'safety'
p1528
I4093
sS'matchable'
p1529
I4141
sS'teachest'
p1530
I1365
sS'nativity'
p1531
I1784
sS'consecrate'
p1532
I2030
sS'long'
p1533
I779
sS'directly'
p1534
I3065
sS'habitation'
p1535
I2357
sS'carry'
p1536
I2025
sS'ill-used'
p1537
I2361
sS'sounds'
p1538
I398
sS'tame'
p1539
I1745
sS'open'
p1540
I1027
sS'affords'
p1541
I2216
sS'millions'
p1542
I1644
sS'interchange'
p1543
I1858
sS'little'
p1544
I655
sS'greediness'
p1545
I4001
sS'checked'
p1546
I274
sS'silent'
p1547
I921
sS'sufficeth'
p1548
I4096
sS'thankless'
p1549
I3637
sS'breed'
p1550
I316
sS'worshipped'
p1551
I4074
sS'chastity'
p1552
I4176
sS'fiery'
p1553
I1610
sS'bounty'
p1554
I531
sS'white'
p1555
I546
sS"tiger's"
p1556
I788
sS'speaking'
p1557
I914
sS'gives'
p1558
I208
sS'gaudy'
p1559
I58
sS'eyes'
p1560
I27
sS'pomp'
p1561
I2802
sS'blazon'
p1562
I2498
sS'that'
p1563
I13
sS'brains'
p1564
I1758
sS"men's"
p1565
I839
sS'proving'
p1566
I140
sS'hurt'
p1567
I2331
sS'alas'
p1568
I2548
sS'eyed'
p1569
I2465
sS'girded'
p1570
I559
sS'reproving'
p1571
I3023
sS'flowers'
p1572
I295
sS'amiable'
p1573
I3825
sS'than'
p1574
I322
sS"stick'st"
p1575
I482
sS'eyen'
p1576
I3393
sS'wide'
p1577
I802
sS'wert'
p1578
I843
sS'require'
p1579
I1722
sS'folly'
p1580
I512
sS'transferred'
p1581
I2975
sS'echoes'
p1582
I3520
sS'apples'
p1583
I4254
sS'were'
p1584
I120
sS'lillies'
p1585
I4115
sS'carcanet'
p1586
I1630
sS'wandering'
p1587
I3852
sS'and'
p1588
I61
sS'desperate'
p1589
I3109
sS'angel'
p1590
I3055
sS'slay'
p1591
I2990
sS'correction'
p1592
I2580
sS'confessed'
p1593
I2934
sS'turned'
p1594
I2471
sS'argument'
p1595
I1337
sS'jewels'
p1596
I1540
sS'sad'
p1597
I1131
sS'entombed'
p1598
I2155
sS'say'
p1599
I114
sS'perfumes'
p1600
I2476
sS'buried'
p1601
I960
sS'foiled'
p1602
I968
sS'anger'
p1603
I1592
sS'sap'
p1604
I275
sS'pry'
p1605
I1802
sS'any'
p1606
I470
sS'jacks'
p1607
I2859
sS'sport'
p1608
I2350
sS'cheerful'
p1609
I3818
sS'defaced'
p1610
I1844
sS'warriors'
p1611
I4168
sS'mourners'
p1612
I2849
sS'aside'
p1613
I2059
sS'note'
p1614
I419
sS'iron'
p1615
I3702
sS'wretch'
p1616
I1585
sS'lion'
p1617
I3531
sS'take'
p1618
I1316
sS'resembling'
p1619
I359
sS'green'
p1620
I560
sS'blunt'
p1621
I782
sS"th'anvil"
p1622
I3706
sS'embaseth'
p1623
I3409
sS'flattered'
p1624
I2988
sS'urge'
p1625
I2698
sS'begin'
p1626
I2640
sS'sure'
p1627
I1537
sS'pain'
p1628
I1353
sS'theatre'
p1629
I3980
sS'busy'
p1630
I3045
sS'sledge'
p1631
I3703
sS'tallies'
p1632
I2780
sS'price'
p1633
I3385
sS'knew'
p1634
I2642
sS'clearer'
p1635
I1438
sS'paid'
p1636
I1132
sS'remover'
p1637
I2668
sS'unkindness'
p1638
I2743
sS'boiling'
p1639
I3678
sS'staineth'
p1640
I1221
sS'flatterer'
p1641
I2598
sS'tract'
p1642
I376
sS'clatter'
p1643
I4323
sS'coveted'
p1644
I3625
sS'palate'
p1645
I2637
sS'winters'
p1646
I85
sS'forever'
p1647
I4222
sS'cruelties'
p1648
I3927
sS'garments'
p1649
I2295
sS'proud'
p1650
I96
sS'steady'
p1651
I4049
sS"travel's"
p1652
I1573
sS'fordone'
p1653
I4277
sS'wing'
p1654
I2106
sS"perfect'st"
p1655
I1608
sS'massacres'
p1656
I3359
sS'sunset'
p1657
I2015
sS'amis'
p1658
I1760
sS'glutton'
p1659
I72
sS'joys'
p1660
I3331
sS'perfumed'
p1661
I1660
sS'sourest'
p1662
I2342
sS'buriest'
p1663
I63
sS'shop'
p1664
I937
sS'shot'
p1665
I4023
sS'steed'
p1666
I4281
sS'show'
p1667
I299
sS'taketh'
p1668
I3539
sS'cheap'
p1669
I2550
sS'merit'
p1670
I984
sS'trespass'
p1671
I1270
sS'bright'
p1672
I28
sS'brunt'
p1673
I3399
sS'saying'
p1674
I3079
sS'untold'
p1675
I2962
sS'ground'
p1676
I2038
sS'amearst'
p1677
I4186
sS'unstayed'
p1678
I4034
sS'slow'
p1679
I1466
sS'woos'
p1680
I1398
sS'unkind'
p1681
I2739
sS'stormy'
p1682
I605
sS'title'
p1683
I1506
sS'escaped'
p1684
I4151
sS'treasure'
p1685
I112
sS'robs'
p1686
I1290
sS'written'
p1687
I986
sS'crime'
p1688
I803
sS'staid'
p1689
I4183
sS'tears'
p1690
I1255
sS'going'
p1691
I1615
sS'black'
p1692
I1041
sS'dispise'
p1693
I3763
sS'partake'
p1694
I3129
sS'deign'
p1695
I3214
sS'stain'
p1696
I1222
sS'wilfully'
p1697
I2140
sS'hindmost'
p1698
I2224
sS'get'
p1699
I381
sS"'tis"
p1700
I930
sS'limbecks'
p1701
I2727
sS'refreshed'
p1702
I4280
sS"t'achieve"
p1703
I3952
sS'expectation'
p1704
I4351
sS'truly'
p1705
I870
sS'whiles'
p1706
I3355
sS'loath'
p1707
I3748
sS'cannot'
p1708
I1343
sS'nearly'
p1709
I1414
sS'dye'
p1710
I1657
sS'clearest'
p1711
I4358
sS'prime'
p1712
I181
sS'reveal'
p1713
I3945
sS"viper's"
p1714
I3231
sS'cordials'
p1715
I3941
sS'seldom'
p1716
I1621
sS"t'accuse"
p1717
I4067
sS'yield'
p1718
I2154
sS'morning'
p1719
I1185
sS'naked'
p1720
I995
sS'miles'
p1721
I1460
sS'ruddy'
p1722
I4104
sS'baits'
p1723
I3904
sS'comfortless'
p1724
I3737
sS'unwares'
p1725
I3594
sS'where'
p1726
I43
sS'husband'
p1727
I410
sS'beholding'
p1728
I3983
sS"monarch's"
p1729
I2623
sS'seas'
p1730
I3791
sS'committed'
p1731
I2730
sS'up'
p1732
I343
sS"fortune's"
p1733
I1322
sS'asleep'
p1734
I3168
sS'expiate'
p1735
I878
sS'successive'
p1736
I2840
sS'seal'
p1737
I534
sS'salutation'
p1738
I2761
sS'weighing'
p1739
I4166
sS'ruined'
p1740
I2011
sS'prayers'
p1741
I2528
sS'purest'
p1742
I1896
sS'culver'
p1743
I4363
sS'wonder'
p1744
I1768
sS'youself'
p1745
I4193
sS'carefull'
p1746
I3738
sS'invoked'
p1747
I2097
sS'tongue-tied'
p1748
I1907
sS'plenteous'
p1749
I4135
sS'steadfast'
p1750
I3953
sS'compounds'
p1751
I2061
sS'crooked'
p1752
I1788
sS'review'
p1753
I2028
sS'amen'
p1754
I2213
sS'ornament'
p1755
I52
sS'colours'
p1756
I3483
sS'behind'
p1757
I443
sS'departest'
p1758
I503
sS'complexion'
p1759
I763
sS'sable'
p1760
I550
sS'between'
p1761
I4197
sS'import'
p1762
I2784
sS'enjoys'
p1763
I454
sS'presage'
p1764
I2509
sS'untainted'
p1765
I810
sS'forsake'
p1766
I569
sS'lays'
p1767
I2407
sS'amidst'
p1768
I4012
sS'fearless'
p1769
I3388
sS'discloses'
p1770
I1663
sS'pluck'
p1771
I613
sS'pained'
p1772
I3916
sS'blame'
p1773
I1371
sS'faults'
p1774
I1269
sS'countenance'
p1775
I2239
sS'disdainful'
p1776
I3655
sS'reigns'
p1777
I1142
sS'heal'
p1778
I3946
sS'drawen'
p1779
I4187
sS'gillyflowers'
p1780
I4103
sS'spark'
p1781
I3297
sS'profitless'
p1782
I224
sS'come'
p1783
I719
sS'grieved'
p1784
I1258
sS'dates'
p1785
I2789
sS'signed'
p1786
I4262
sS'many'
p1787
I422
sS'region'
p1788
I1218
sS'priests'
p1789
I3563
sS'jasmines'
p1790
I4116
sS'quiet'
p1791
I1044
sS'sights'
p1792
I4316
sS'wishful'
p1793
I4364
sS'dwellers'
p1794
I2823
sS'awards'
p1795
I3022
sS'fa&edry'
p1796
I3713
sS"sea's"
p1797
I859
sS'duty'
p1798
I983
sS'among'
p1799
I568
sS'unthrifts'
p1800
I610
sS'madness'
p1801
I3003
sS'spoil'
p1802
I1883
sS'repulse'
p1803
I3425
sS'unthrifty'
p1804
I202
sS'lace'
p1805
I1917
sS'swerving'
p1806
I2249
sS'dispatch'
p1807
I3042
sS'slain'
p1808
I893
sS'lothsome'
p1809
I3416
sS'stretched'
p1810
I748
sS'learning'
p1811
I2078
sS'proved'
p1812
I2557
sS'endeavor'
p1813
I4284
sS'hounds'
p1814
I2296
sS'vanquished'
p1815
I3659
sS'boat'
p1816
I2145
sS'doctor-like'
p1817
I1908
sS'season'
p1818
I3558
sS'arts'
p1819
I2115
sS'witless'
p1820
I4324
sS"starv'd"
p1821
I3747
sS'self-doing'
p1822
I1752
sS'west'
p1823
I1206
sS'dross'
p1824
I3092
sS'mark'
p1825
I412
sS'breath'
p1826
I1664
sS'subscribes'
p1827
I2518
sS"self's"
p1828
I595
sS'mars'
p1829
I1687
sS'dumps'
p1830
I3969
sS'informer'
p1831
I2836
sS'hardly'
p1832
I3479
sS'wants'
p1833
I4372
sS'spare'
p1834
I4024
sS'straying'
p1835
I1404
sS'robbed'
p1836
I3031
sS'thousand'
p1837
I971
sS'blessing'
p1838
I2165
sS'further'
p1839
I4354
sS'wounds'
p1840
I4019
sS'shined'
p1841
I3337
sS'tiger'
p1842
I4002
sS'nobler'
p1843
I3151
sS'spills'
p1844
I3585
sS'wake'
p1845
I1812
sS'external'
p1846
I1654
sS'encage'
p1847
I4213
sS'frantic-mad'
p1848
I3112
sS'masonry'
p1849
I1681
sS'careful'
p1850
I1532
sS'deceivest'
p1851
I1372
sS'those'
p1852
I213
sS'case'
p1853
I1576
sS'clears'
p1854
I3125
sS'myself'
p1855
I3401
sS'love-afamished'
p1856
I4360
sS'profane'
p1857
I2272
sS'scarlet'
p1858
I3026
sS'these'
p1859
I1095
sS'sheaves'
p1860
I558
sS'mount'
p1861
I4199
sS'languishing'
p1862
I3934
sS'rhymes'
p1863
I3220
sS'compile'
p1864
I2111
sS'cast'
p1865
I1555
sS'proves'
p1866
I1552
sS'cancelled'
p1867
I1120
sS'situation'
p1868
I2869
sS'endured'
p1869
I2507
sS'hunts'
p1870
I4003
sS'taking'
p1871
I3317
sS'fool'
p1872
I1733
sS'tyraness'
p1873
I3358
sS'endowed'
p1874
I528
sS'brow'
p1875
I82
sS'gluttoning'
p1876
I2057
sS'middle'
p1877
I356
sS'sudden'
p1878
I3970
sS'embrace'
p1879
I3610
sS'limping'
p1880
I1905
sS'return'
p1881
I1046
sS'pinks'
p1882
I4110
sS'fame'
p1883
I2133
sS'different'
p1884
I2408
sS'eye-glances'
p1885
I3489
sS'harsh'
p1886
I526
sS"tyrants'"
p1887
I2523
sS'strains'
p1888
I2292
sS'inquire'
p1889
I3635
sS'pay'
p1890
I314
sS'freewill'
p1891
I3357
sS'same'
p1892
I256
sS'check'
p1893
I1742
sS'shifts'
p1894
I455
sS'thralls'
p1895
I3696
sS'distilled'
p1896
I294
sS'figures'
p1897
I2412
sS'ladies'
p1898
I2497
sS"'truth"
p1899
I2435
sS'noble'
p1900
I3872
sS'wires'
p1901
I2892
sS'faculty'
p1902
I2775
sS'sickness'
p1903
I2703
sS'tyrannous'
p1904
I2899
sS'defy'
p1905
I2793
sS'drives'
p1906
I3553
sS'weed'
p1907
I102
sS'fruit'
p1908
I2395
sS'scorned'
p1909
I742
sS'conquered'
p1910
I2281
sS'extern'
p1911
I2819
sS'changing'
p1912
I769
sS'weep'
p1913
I441
sS"slander's"
p1914
I1963
sS'passing'
p1915
I3468
sS'vowed'
p1916
I3190
sS'weave'
p1917
I3271
sS'complained'
p1918
I3922
sS'vantage'
p1919
I2264
sS'woodbine'
p1920
I4195
sS'plaints'
p1921
I3437
sS'dear-purchased'
p1922
I2688
sS'throned'
p1923
I2366
sS'random'
p1924
I3114
sS'vacant'
p1925
I2077
sS'lady'
p1926
I3404
sS'without'
p1927
I513
sS'relief'
p1928
I1246
sS'trains'
p1929
I3902
sS'reward'
p1930
I4342
sS'extermities'
p1931
I3760
sS'amazed'
p1932
I3249
sS'charged'
p1933
I1975
sS'distills'
p1934
I1669
sS'summer'
p1935
I263
sS'desolate'
p1936
I4014
sS'manifold'
p1937
I3455
sS'ransoms'
p1938
I2756
sS'being'
p1939
I108
sS'when'
p1940
I87
sS'compound'
p1941
I2828
sS'knot'
p1942
I3318
sS'shamefully'
p1943
I1898
sS'rest'
p1944
I976
sS'ne'
p1945
I3285
sS'imprint'
p1946
I2075
sS'bareness'
p1947
I276
sS'locks'
p1948
I3453
sS'cease'
p1949
I514
sS'disperse'
p1950
I2101
sS'aspect'
p1951
I1001
sS'touch'
p1952
I3180
sS'speed'
p1953
I1587
sS'guides'
p1954
I998
sS'captured'
p1955
I4209
sS'afterwards'
p1956
I2643
sS'blow'
p1957
I2807
sS'daphne'
p1958
I3647
sS'gather'
p1959
I4279
sS'blot'
p1960
I1063
sS'unwooed'
p1961
I1666
sS'charactered'
p1962
I2772
sS'thinking'
p1963
I1992
sS'rose'
p1964
I10
sS'seems'
p1965
I2467
sS"summer's"
p1966
I280
sS"summers'"
p1967
I2468
sS'instrument'
p1968
I3979
sS'verse'
p1969
I720
sS'setting'
p1970
I4306
sS'suppressed'
p1971
I2984
sS'worthier'
p1972
I2120
sS'throw'
p1973
I2592
sS'dully'
p1974
I1583
sS'bond'
p1975
I2942
sS'valley-fountain'
p1976
I3175
sS'struck'
p1977
I2228
sS'pill'
p1978
I3621
sS'kingdom'
p1979
I1851
sS'liken'
p1980
I3826
sS'frown'
p1981
I963
sS'kills'
p1982
I1459
sS'read'
p1983
I639
sS'offence'
p1984
I1599
sS'sums'
p1985
I227
sS'dart'
p1986
I2993
sS'basest'
p1987
I1197
sS'traffic'
p1988
I230
sS'illusion'
p1989
I3463
sS"look's"
p1990
I3462
sS'confined'
p1991
I2485
sS'world'
p1992
I76
sS'sheen'
p1993
I3454
sS'aiming'
p1994
I3474
sS'reap'
p1995
I2861
sS'dare'
p1996
I1009
sS'acquainted'
p1997
I821
sS'fortune'
p1998
I628
sS'achieve'
p1999
I1915
sS'heretics'
p2000
I3914
sS'maintained'
p2001
I3765
sS'miracle'
p2002
I1884
sS'lightning'
p2003
I3328
sS'agreement'
p2004
I3757
sS'benefit'
p2005
I1047
sS"wretch's"
p2006
I2033
sS'miraculous'
p2007
I3680
sS'either'
p2008
I1528
sS'robbery'
p2009
I1377
sS'offenders'
p2010
I1417
sS'warrantise'
p2011
I3142
sS'nest'
p2012
I4236
sS'wend'
p2013
I3894
sS'tombed'
p2014
I239
sS'fulfil'
p2015
I2958
sS'falsehood'
p2016
I1538
sS'wooers'
p2017
I3576
sS'smiles'
p2018
I3491
sS'loosely'
p2019
I3286
sS'servile'
p2020
I4210
sS'captived'
p2021
I3846
sS'kings'
p2022
I1106
sS'images'
p2023
I1155
sS'diving'
p2024
I4241
sS'divine'
p2025
I2527
sS'thinks'
p2026
I1734
sS'gross'
p2027
I2179
sS'passions'
p2028
I3876
sS'mood'
p2029
I3240
sS'courses'
p2030
I1764
sS'noon'
p2031
I378
sS'lend'
p2032
I205
sS'stops'
p2033
I2450
sS'moon'
p2034
I860
sS'forgoing'
p2035
I2827
sS'spotless'
p2036
I4133
sS'expressing'
p2037
I2488
sS'tossed'
p2038
I3722
sS'self-loving'
p2039
I1829
sS'knife'
p2040
I1840
sS'mead'
p2041
I3972
sS'assay'
p2042
I3433
sS'destroys'
p2043
I458
sS'shorn'
p2044
I1937
sS'snowy'
p2045
I4108
sS'power'
p2046
I1866
sS'seconds'
p2047
I2833
sS'extremest'
p2048
I3842
sS'blest'
p2049
I1717
sS'strained'
p2050
I2175
sS'olives'
p2051
I2514
sS'forgetfulness'
p2052
I2783
sS'broken'
p2053
I1798
sS'lodestar'
p2054
I3734
sS'display'
p2055
I4245
sS'embase'
p2056
I3482
sS"o'er-green"
p2057
I2588
sS'assemble'
p2058
I2630
sS'feeds'
p2059
I1795
sS'fondness'
p2060
I3785
sS'death-bed'
p2061
I2020
sS'on'
p2062
I92
sS'stone'
p2063
I1677
sS'subdued'
p2064
I2572
sS'lioness'
p2065
I3535
sS'zealous'
p2066
I1025
sS'of'
p2067
I101
sS'choirs'
p2068
I2010
sS'feil'
p2069
I2721
sS'meaning'
p2070
I3522
sS'aread'
p2071
I3716
sS'whence'
p2072
I1548
sS'fell'
p2073
I846
sS'wolf'
p2074
I2374
sS'stand'
p2075
I700
sS'act'
p2076
I3158
sS'mixed'
p2077
I2834
sS"bear'st"
p2078
I471
sS'or'
p2079
I75
sS'diversely'
p2080
I3985
sS'imitated'
p2081
I1647
sS'widowed'
p2082
I2392
sS'long-lived'
p2083
I793
sS'burning'
p2084
I342
sS"put'st"
p2085
I2944
sS'distempered'
p2086
I3183
sS'image'
p2087
I197
sS'skilled'
p2088
I4053
sS'blessed'
p2089
I697
sS'guiltless'
p2090
I3537
sS'yourself'
p2091
I3274
sS'penelope'
p2092
I3575
sS'aswage'
p2093
I3900
sS'rues'
p2094
I3993
sS'rising'
p2095
I3153
sS'lively'
p2096
I1922
sS'dreaming'
p2097
I2505
sS'blesses'
p2098
I2352
sS'your'
p2099
I582
sS'restless'
p2100
I3372
sS'buds'
p2101
I753
sS"oaths'"
p2102
I3161
sS'fast'
p2103
I501
sS'prepare'
p2104
I586
sS'emprize'
p2105
I4172
sS'there'
p2106
I266
sS'disposed'
p2107
I2256
sS'sides'
p2108
I2985
sS'start'
p2109
I3848
sS'stealth'
p2110
I2081
sS'gaze'
p2111
I255
sS"seasons'"
p2112
I623
sS'stars'
p2113
I615
sS'jaws'
p2114
I787
sS'mollify'
p2115
I3701
sS'bubble'
p2116
I4036
sS'leach'
p2117
I3935
sS'lent'
p2118
I4137
sS'groan'
p2119
I1594
sS'enough'
p2120
I1234
sS"you'"
p2121
I3077
sS'petty'
p2122
I2290
sS'regard'
p2123
I3931
sS"dyer's"
p2124
I2573
sS'delayed'
p2125
I3676
sS'strikes'
p2126
I415
sS'meetness'
p2127
I2708
sS'shroud'
p2128
I3629
sS'suffers'
p2129
I2804
sS'ended'
p2130
I4018
sS'wouds'
p2131
I4027
sS'with'
p2132
I36
sS'happies'
p2133
I315
sS'abused'
p2134
I2180
sS'hire'
p2135
I3912
sS'applying'
p2136
I2729
sS'rage'
p2137
I607
sS"'stonished"
p2138
I3461
sS'grudging'
p2139
I4052
sS'niggarding'
p2140
I66
sS'self-same'
p2141
I671
sS'strawberry'
p2142
I4111
sS'sadness'
p2143
I3808
sS'scorning'
p2144
I3356
sS'impute'
p2145
I2189
sS'abuses'
p2146
I2766
sS'agree'
p2147
I3597
sS'strongly'
p2148
I982
sS'gone'
p2149
I233
sS'intents'
p2150
I2650
sS'celestial'
p2151
I1200
sS'fist'
p2152
I2941
sS'subdue'
p2153
I4233
sS'taste'
p2154
I1375
sS'ah'
p2155
I437
sS'accents'
p2156
I1950
sS'stealing'
p2157
I1208
sS'am'
p2158
I875
sS'deep'
p2159
I90
sS'an'
p2160
I119
sS'toiled'
p2161
I974
sS'excusing'
p2162
I1276
sS'deem'
p2163
I1655
sS'ensuing'
p2164
I4065
sS'carved'
p2165
I535
sS'pen'
p2166
I710
sS'ay'
p2167
I1403
sS'spends'
p2168
I2131
sS'fill'
p2169
I1707
sS'tedious'
p2170
I3720
sS'again'
p2171
I597
sS'proudly'
p2172
I2900
sS"judgment's"
p2173
I2906
sS'deserve'
p2174
I3035
sS'ever-fixed'
p2175
I2670
sS"helen's"
p2176
I1650
sS'repent'
p2177
I1245
sS'incertainties'
p2178
I2512
sS'tempest'
p2179
I3797
sS'roses'
p2180
I1263
sS"wand'ring"
p2181
I2673
sS'you'
p2182
I581
sS'dismayed'
p2183
I3298
sS'sufficient'
p2184
I3719
sS'abysm'
p2185
I2593
sS'poor'
p2186
I989
sS'reighneth'
p2187
I3533
sS'perils'
p2188
I3733
sS'immortalize'
p2189
I4228
sS'time'
p2190
I15
sS'merchants'
p2191
I3440
sS'gifts'
p2192
I2464
sS'flower'
p2193
I1869
sS'suited'
p2194
I2850
sS'brass'
p2195
I1850
sS'sequent'
p2196
I1782
sS"treason's"
p2197
I3390
sS'building'
p2198
I2149
sS'backward'
p2199
I1763
sS'remote'
p2200
I1449
sS'fraught'
p2201
I4092
sS'calls'
p2202
I186
sS'wife'
p2203
I438
sS"life's"
p2204
I1485
sS'forts'
p2205
I3429
sS'entangle'
p2206
I3775
sS'dyed'
p2207
I2431
sS'sounded'
p2208
I3511
sS'repay'
p2209
I2685
sS'hugely'
p2210
I2813
sS'treason'
p2211
I3150
sS'apparel'
p2212
I1005
sS'mean'
p2213
I3885
sS'tanned'
p2214
I1824
sS'unset'
p2215
I701
sS'all'
p2216
I106
sS'consider'
p2217
I653
sS'pointing'
p2218
I632
sS'suns'
p2219
I1223
sS'forbidden'
p2220
I311
sS'lack'
p2221
I1111
sS'neigh'
p2222
I1611
sS'worms'
p2223
I332
sS'importune'
p2224
I3032
sS'seals'
p2225
I2016
sS'sunk'
p2226
I541
sS"'gainst"
p2227
I483
sS'forged'
p2228
I2969
sS'welfare'
p2229
I2709
sS'dish'
p2230
I4252
sS'follow'
p2231
I3046
sS'meditation'
p2232
I1881
sS'faster'
p2233
I2427
sS'religious'
p2234
I1147
sS"gild'st"
p2235
I1067
sS'wakened'
p2236
I2695
sS'dreadful'
p2237
I3689
sS'wanton'
p2238
I2389
sS'homage'
p2239
I347
sS'sparkling'
p2240
I1069
sS'former'
p2241
I1704
sS"keep'st"
p2242
I3127
sS'to'
p2243
I31
sS'lustfull'
p2244
I4308
sS'device'
p2245
I3685
sS'present'
p2246
I1529
sS'dressing'
p2247
I2069
sS'nurseth'
p2248
I3102
sS'hideous'
p2249
I270
sS'weeks'
p2250
I2681
sS'paying'
p2251
I2825
sS'woman'
p2252
I844
sS'returned'
p2253
I1487
sS'bowers'
p2254
I4101
sS'song'
p2255
I423
sS'very'
p2256
I257
sS'caught'
p2257
I3778
sS'saved'
p2258
I3080
sS'coloured'
p2259
I3056
sS'oblation'
p2260
I2832
sS'medicine'
p2261
I2717
sS'aware'
p2262
I3779
sS'worst'
p2263
I814
sS'minded'
p2264
I515
sS'fall'
p2265
I599
sS'awful'
p2266
I3412
sS'hems'
p2267
I866
sS'difference'
p2268
I2487
sS'cunningly'
p2269
I3770
sS'strand'
p2270
I4224
sS'vouchsafe'
p2271
I1167
sS'heaven'
p2272
I634
sS'scath'
p2273
I3693
sS'list'
p2274
I1749
sS'silvered'
p2275
I548
sS'fearful'
p2276
I1882
sS'undone'
p2277
I3582
sS'deigned'
p2278
I4304
sS'coals'
p2279
I4338
sS'small'
p2280
I100
sS"t'"
p2281
I2713
sS'tender'
p2282
I26
sS'smith'
p2283
I3700
sS'relenting'
p2284
I3641
sS"i'll"
p2285
I1182
sS'quicker'
p2286
I1477
sS'ten'
p2287
I319
sS'outworn'
p2288
I1845
sS'dainty'
p2289
I3796
sS'past'
p2290
I543
sS'winds'
p2291
I756
sS'invention'
p2292
I1345
sS'catching'
p2293
I4340
sS'perspective'
p2294
I934
sS'pass'
p2295
I1559
sS'savage'
p2296
I2875
sS'affable'
p2297
I2235
sS'befriends'
p2298
I2738
sS'crests'
p2299
I2522
sS'creatures'
p2300
I4
sS'conscience'
p2301
I3147
sS'gazers'
p2302
I2379
sS'what'
p2303
I238
sS'defence'
p2304
I574
sS'stood'
p2305
I3460
sS'darkness'
p2306
I1031
sS'sweetly'
p2307
I407
sS'clock'
p2308
I539
sS'sun'
p2309
I861
sS'sum'
p2310
I138
sS'plast'
p2311
I3732
sS'brief'
p2312
I627
sS'stoop'
p2313
I4142
sS'prevailed'
p2314
I1399
sS'dints'
p2315
I3313
sS'foison'
p2316
I1653
sS'ill-wresting'
p2317
I3004
sS'nurse'
p2318
I892
sS'shun'
p2319
I2704
sS'apply'
p2320
I3704
sS'public'
p2321
I951
sS'womb'
p2322
I166
sS'quenched'
p2323
I3200
sS'message'
p2324
I3527
sS'full'
p2325
I1187
sS'ranged'
p2326
I2538
sS'love-suit'
p2327
I2959
sS'answers'
p2328
I1595
sS'revenge'
p2329
I3135
sS'hours'
p2330
I251
sS'ensconce'
p2331
I1566
sS'so-hot'
p2332
I3672
sS'excess'
p2333
I3087
sS'hast'
p2334
I444
sS'depend'
p2335
I2312
sS'strong'
p2336
I358
sS'respect'
p2337
I1007
sS'tragedy'
p2338
I3992
sS'happiness'
p2339
I4208
sS'colored'
p2340
I3268
sS'enmity'
p2341
I1689
sS'inspired'
p2342
I3324
sS'losses'
p2343
I1136
sS'dearths'
p2344
I624
sS'reason'
p2345
I2641
sS'simply'
p2346
I2983
sS'stiffness'
p2347
I4320
sS'action'
p2348
I1870
sS'steepy'
p2349
I1834
sS'extant'
p2350
I2186
sS"day's"
p2351
I1051
sS'relent'
p2352
I4303
sS'depart'
p2353
I324
sS'bathe'
p2354
I4207
sS'suddenly'
p2355
I3476
sS'impiety'
p2356
I1914
sS'tendered'
p2357
I2750
sS'amazement'
p2358
I3745
sS'sealed'
p2359
I3027
sS"lion's"
p2360
I781
sS'estimate'
p2361
I2242
sS'unthrift'
p2362
I453
sS'self-love'
p2363
I179
sS'eye'
p2364
I253
sS'takes'
p2365
I579
sS'cherubins'
p2366
I2628
sS'wiped'
p2367
I4229
sS'contains'
p2368
I2035
sS'two'
p2369
I1294
sS'pearl'
p2370
I1254
sS'breaches'
p2371
I4341
sS'morn'
p2372
I1210
sS'soil'
p2373
I1855
sS'taken'
p2374
I2674
sS'injury'
p2375
I1381
sS'defiled'
p2376
I3536
sS'more'
p2377
I123
sS'horses'
p2378
I2307
sS'wretched'
p2379
I2308
sS'unlearned'
p2380
I2979
sS'knows'
p2381
I725
sS'delves'
p2382
I1793
sS"ow'st"
p2383
I772
sS'foregone'
p2384
I1125
sS'spoils'
p2385
I2426
sS'woeful'
p2386
I3071
sS'excuse'
p2387
I1416
sS'lameness'
p2388
I2267
sS'controlling'
p2389
I833
sS'wretches'
p2390
I3836
sS'broke'
p2391
I3040
sS'graven'
p2392
I2423
sS'known'
p2393
I1382
sS'doom'
p2394
I649
sS'glad'
p2395
I798
sS'cunning'
p2396
I947
sS'commanded'
p2397
I3138
sS'over-goes'
p2398
I2458
sS'none'
p2399
I478
sS'hour'
p2400
I1214
sS'flight'
p2401
I4203
sS'besides'
p2402
I2601
sS'languishment'
p2403
I4063
sS'remain'
p2404
I1300
sS'nine'
p2405
I1349
sS'den'
p2406
I3831
sS'learn'
p2407
I922
sS'marble'
p2408
I1672
sS'history'
p2409
I2321
sS'beautiful'
p2410
I2495
sS'stubborn'
p2411
I3654
sS'compare'
p2412
I751
sS'attainted'
p2413
I2258
sS'visage'
p2414
I1204
sS'pompous'
p2415
I4250
sS'trial'
p2416
I3181
sS'share'
p2417
I1527
sS'conspire'
p2418
I481
sS'accept'
p2419
I3570
sS'thievish'
p2420
I1551
sS'well-seeing'
p2421
I3128
sS'numbers'
p2422
I731
sS'well-tuned'
p2423
I399
sS'sharp'
p2424
I1597
sS"year's"
p2425
I3587
sS'allege'
p2426
I1572
sS'garden'
p2427
I4097
sS'huge'
p2428
I662
sS'needs'
p2429
I1288
sS'court'
p2430
I3395
sS'calms'
p2431
I4088
sS'drained'
p2432
I1833
sS'needy'
p2433
I1892
sS"'thus"
p2434
I1580
sS'comfort'
p2435
I1324
sS'chopt'
p2436
I1825
sS'chace'
p2437
I3652
sS"adder's"
p2438
I2595
sS'glowing'
p2439
I2017
sS"heart's"
p2440
I1512
sS'sacred'
p2441
I349
sS'new-fangled'
p2442
I2294
sS'stir'
p2443
I3549
sS'panting'
p2444
I4153
sS'creature'
p2445
I2615
sS'mould'
p2446
I3997
sS'simplicity'
p2447
I1909
sS'tide'
p2448
I4226
sS'tried'
p2449
I3294
sS'rude'
p2450
I524
sS'disgraced'
p2451
I1901
sS'calm'
p2452
I3336
sS'derived'
p2453
I3221
sS"foes'"
p2454
I3882
sS'mended'
p2455
I1770
sS'blood'
p2456
I147
sS'coming'
p2457
I587
sS'monsters'
p2458
I2626
sS'replete'
p2459
I901
sS'a'
p2460
I45
sS'planet'
p2461
I4055
sS'refuse'
p2462
I3141
sS'short'
p2463
I758
sS"pleasure's"
p2464
I4202
sS'resemble'
p2465
I2627
sS'shady'
p2466
I2082
sS'register'
p2467
I2525
sS'spiteful'
p2468
I4334
sS'assoyle'
p2469
I3378
sS"present'st"
p2470
I1972
sS'shore'
p2471
I1715
sS'felicity'
p2472
I4164
sS'dread'
p2473
I3711
sS'shade'
p2474
I775
sS'perjured'
p2475
I2873
sS'banks'
p2476
I1716
sS'pleasure'
p2477
I397
sS"gav'st"
p2478
I895
sS'penury'
p2479
I2198
sS'dream'
p2480
I2254
sS"that's"
p2481
I317
sS'recite'
p2482
I1997
sS'adorned'
p2483
I3457
sS'help'
p2484
I1302
sS'winged'
p2485
I1605
sS'stays'
p2486
I3152
sS'soon'
p2487
I1458
sS'captiving'
p2488
I3403
sS'trade'
p2489
I3947
sS'disabled'
p2490
I1903
sS'held'
p2491
I98
sS'paper'
p2492
I1338
sS'through'
p2493
I190
sS'signs'
p2494
I1932
sS'hell'
p2495
I1754
sS'smiling'
p2496
I2803
sS'suffer'
p2497
I1741
sS'saucy'
p2498
I2139
sS'style'
p2499
I1183
sS'pent'
p2500
I282
sS'thrilling'
p2501
I3756
sS'render'
p2502
I2835
sS'glide'
p2503
I3488
sS'termed'
p2504
I744
sS'pray'
p2505
I3051
sS'inward'
p2506
I714
sS'deeds'
p2507
I1256
sS'bosom'
p2508
I462
sS'teeming'
p2509
I2387
sS'famished'
p2510
I1519
sS'late'
p2511
I2009
sS'resort'
p2512
I2364
sS'absence'
p2513
I1361
sS'strange'
p2514
I1643
sS'threescore'
p2515
I519
sS'ruining'
p2516
I2822
sS"craftsman's"
p2517
I3495
sS'self-willed'
p2518
I331
sS"sorrow's"
p2519
I3817
sS'match'
p2520
I4367
sS'might'
p2521
I9
sS'alter'
p2522
I1306
sS'crawls'
p2523
I1787
sS'forbear'
p2524
I1400
sS'tune'
p2525
I3012
sS'good'
p2526
I621
sS'tyrants'
p2527
I258
sS'kingly'
p2528
I2633
sS'seeking'
p2529
I486
sS'food'
p2530
I2037
sS'ye'
p2531
I1415
sS'storm-beaten'
p2532
I1235
sS'speechless'
p2533
I424
sS'walls'
p2534
I281
sS'nymphs'
p2535
I3191
sS'thereof'
p2536
I2132
sS'weeds'
p2537
I1956
sS'foot'
p2538
I1451
sS'hunted'
p2539
I2878
sS'breathers'
p2540
I2158
sS"mistress'"
p2541
I2848
sS'complain'
p2542
I1059
sS'mystery'
p2543
I3603
sS'likeness'
p2544
I3020
sS'hereafter'
p2545
I4214
sS'imprisoned'
p2546
I1637
sS'bent'
p2547
I2275
sS'always'
p2548
I2068
sS'loosly'
p2549
I4246
sS'truths'
p2550
I2372
sS'eloquence'
p2551
I913
sS'tear'
p2552
I1143
sS'stopped'
p2553
I2597
sS'exiled'
p2554
I3963
sS'turns'
p2555
I941
sS'found'
p2556
I1424
sS'heavy'
p2557
I1442
sS'weighs'
p2558
I2531
sS'proud-pied'
p2559
I2403
sS'bends'
p2560
I2669
sS'weight'
p2561
I1582
sS'house'
p2562
I600
sS'fish'
p2563
I3905
sS'hard'
p2564
I2748
sS'oppressed'
p2565
I1052
sS'idea'
p2566
I3887
sS'surly'
p2567
I1984
sS"nature's"
p2568
I210
sS'beyond'
p2569
I2773
sS'orient'
p2570
I337
sS'harp'
p2571
I3793
sS'travels'
p2572
I2539
sS'lovers'
p2573
I1152
sS'missed'
p2574
I2777
sS"fancy's"
p2575
I3254
sS'miss'
p2576
I4371
sS'since'
p2577
I572
sS'publish'
p2578
I2443
sS'admired'
p2579
I2204
sS'health'
p2580
I1491
sS'hill'
p2581
I352
sS'avenge'
p2582
I3910
sS'paradise'
p2583
I4237
sS'print'
p2584
I537
sS'darling'
p2585
I754
sS'drizling'
p2586
I3499
sS'issue'
p2587
I598
sS'sympathized'
p2588
I2176
sS'stewards'
p2589
I2339
sS'boldness'
p2590
I2864
sS'belied'
p2591
I2898
sS'arion'
p2592
I3790
sS'commits'
p2593
I466
sS'fore-bemoaned'
p2594
I1129
sS'forgive'
p2595
I1378
sS'half-trembling'
p2596
I4159
sS'pleasant'
p2597
I2451
sS'altar'
p2598
I3567
sS'qualify'
p2599
I2536
sS'base'
p2600
I1229
sS'members'
p2601
I3939
sS'impeached'
p2602
I2838
sS'put'
p2603
I900
sS'heads'
p2604
I3661
sS'teach'
p2605
I1577
sS'reproach'
p2606
I2757
sS"know'st"
p2607
I1418
sS'temperature'
p2608
I3411
sS'thrown'
p2609
I3792
sS'beast'
p2610
I1581
sS'owners'
p2611
I2335
sS'service'
p2612
I3136
sS'deer'
p2613
I4155
sS"woman's"
p2614
I817
sS'noted'
p2615
I2064
sS'sicken'
p2616
I2705
sS'unaware'
p2617
I4191
sS'pure'
p2618
I1971
sS'twenty'
p2619
I3162
sS'corrupting'
p2620
I1274
sS'seemeth'
p2621
I3749
sS'feed'
p2622
I3097
sS'gazed'
p2623
I93
sS'seeming'
p2624
I421
sS'forwards'
p2625
I1781
sS'blush'
p2626
I1923
sS'feel'
p2627
I1546
sS'number'
p2628
I730
sS'fancy'
p2629
I4205
sS'antiquity'
p2630
I1823
sS'feet'
p2631
I3238
sS'elder'
p2632
I883
sS'enlarged'
p2633
I1977
sS'revolution'
p2634
I1771
sS'done'
p2635
I940
sS'defects'
p2636
I1553
sS'dreading'
p2637
I2400
sS'narcissus'
p2638
I3744
sS'slept'
p2639
I2185
sS'rents'
p2640
I3028
sS'moan'
p2641
I1124
sS'horse'
p2642
I1607
sS'inure'
p2643
I3551
sS'guest'
p2644
I1526
sS'become'
p2645
I2915
sS'rondure'
p2646
I867
sS'together'
p2647
I643
sS'joyous'
p2648
I4094
sS'threatening'
p2649
I3284
sS'slanderers'
p2650
I3007
sS'least'
p2651
I497
sS'hallowed'
p2652
I2530
sS'pricketh'
p2653
I3614
sS'wonderful'
p2654
I3686
sS'shamed'
p2655
I2003
sS'passed'
p2656
I1974
sS'essays'
p2657
I2558
sS'hundred'
p2658
I1765
sS'challenge'
p2659
I3665
sS'store'
p2660
I520
sS'lease'
p2661
I591
sS'youngly'
p2662
I505
sS'selling'
p2663
I3093
sS'imperfect'
p2664
I1441
sS'saint'
p2665
I3061
sS'thirst'
p2666
I4156
sS'longing'
p2667
I3100
sS'adonis'
p2668
I1645
sS'malice'
p2669
I3884
sS'part'
p2670
I898
sS'bower'
p2671
I2845
sS'believe'
p2672
I721
sS'recure'
p2673
I3552
sS'grace'
p2674
I945
sS'king'
p2675
I1837
sS'kind'
p2676
I494
sS'grew'
p2677
I2195
sS'mortality'
p2678
I1868
sS'vial'
p2679
I308
sS'double'
p2680
I2110
sS'anticipate'
p2681
I2712
sS'mortgaged'
p2682
I2935
sS'grey'
p2683
I2912
sS'shallowest'
p2684
I2143
sS'youth'
p2685
I357
sS'autumn'
p2686
I2386
sS'determined'
p2687
I1510
sS'contrary'
p2688
I1827
sS'supposed'
p2689
I1140
sS'garland'
p2690
I3514
sS'kindle'
p2691
I3311
sS'toward'
p2692
I464
sS'restful'
p2693
I1887
sS'afar'
p2694
I3050
sS'tongues'
p2695
I1947
sS'bless'
p2696
I4297
sS'wrongest'
p2697
I3275
sS'trifles'
p2698
I1539
sS'lodwick'
p2699
I3717
sS'pearls'
p2700
I3448
sS'ages'
p2701
I2438
sS'defect'
p2702
I1962
sS'livery'
p2703
I95
sS'new-fired'
p2704
I3179
sS'alike'
p2705
I2483
sS'showers'
p2706
I2039
sS'belay'
p2707
I3428
sS'travail'
p2708
I2121
sS'odors'
p2709
I4100
sS'fading'
p2710
I801
sS'sensual'
p2711
I1280
sS'sell'
p2712
I874
sS'mountain'
p2713
I1190
sS'nights'
p2714
I1443
sS'built'
p2715
I2736
sS'dancing'
p2716
I2868
sS'trance'
p2717
I3816
sS'self'
p2718
I49
sS'port'
p2719
I3407
sS'onset'
p2720
I2291
sS'also'
p2721
I3237
sS'lifts'
p2722
I344
sS'lip'
p2723
I2499
sS'build'
p2724
I3568
sS'frail'
p2725
I3247
sS'finding'
p2726
I2167
sS'anthems'
p2727
I3518
sS'drinks'
p2728
I2632
sS"angel's"
p2729
I3223
sS'chary'
p2730
I887
sS"art's"
p2731
I2843
sS"'had"
p2732
I1171
sS'towards'
p2733
I1617
sS'quoth'
p2734
I3657
sS'spectator'
p2735
I3981
sS'reckon'
p2736
I2765
sS'drowns'
p2737
I2814
sS'unswayed'
p2738
I3021
sS'unused'
p2739
I241
sS'most'
p2740
I477
sS'offences'
p2741
I2554
sS'remembreth'
p2742
I3414
sS'blunting'
p2743
I1623
sS'amazeth'
p2744
I837
sS'nothing'
p2745
I207
sS'seasons'
p2746
I796
sS"o'ercharged"
p2747
I912
sS'wastes'
p2748
I567
sS'measured'
p2749
I1579
sS'stands'
p2750
I1797
sS'chronicle'
p2751
I2492
sS'feasting'
p2752
I2050
sS'windows'
p2753
I189
sS'builded'
p2754
I2800
sS'clear'
p2755
I1439
sS'sometimes'
p2756
I1593
sS'cover'
p2757
I879
sS'naught'
p2758
I3315
sS'unbred'
p2759
I2479
sS'flits'
p2760
I3991
sS'dissolved'
p2761
I3673
sS'treasures'
p2762
I3442
sS'reeleth'
p2763
I369
sS'barren'
p2764
I551
sS'convertest'
p2765
I506
sS'eisel'
p2766
I2577
sS'diverse'
p2767
I3269
sS'lying'
p2768
I3186
sS'stones'
p2769
I1629
sS'self-substantial'
p2770
I35
sS'despise'
p2771
I3008
sS'gold'
p2772
I764
sS'gates'
p2773
I1880
sS"y'have"
p2774
I2744
sS'wailing'
p2775
I1413
sS'fond'
p2776
I174
sS'bending'
p2777
I2261
sS'rhymers'
p2778
I1348
sS'wasted'
p2779
I2491
sS'registers'
p2780
I2794
sS'indias'
p2781
I3443
sS'saphires'
p2782
I3445
sS'fine'
p2783
I924
sS'find'
p2784
I594
sS'viewest'
p2785
I149
sS'sportive'
p2786
I2760
sS'gilded'
p2787
I1671
sS'flattery'
p2788
I1428
sS'shouldst'
p2789
I325
sS'deserts'
p2790
I722
sS'justice'
p2791
I3405
sS'ruin'
p2792
I1862
sS'less'
p2793
I741
sS'waiting'
p2794
I1755
sS'vision'
p2795
I2612
sS'erect'
p2796
I4170
sS'unjustly'
p2797
I3917
sS'betray'
p2798
I2373
sS'beauteous'
p2799
I218
sS'fiend'
p2800
I3064
sS'hardened'
p2801
I3608
sS"painter's"
p2802
I933
sS'ordained'
p2803
I3913
sS'niggard'
p2804
I217
sS'gains'
p2805
I1926
sS'mercy'
p2806
I3072
sS'bend'
p2807
I3926
sS'compiled'
p2808
I2207
sS'express'
p2809
I2526
sS'impregnable'
p2810
I1876
sS'trees'
p2811
I552
sS'slime'
p2812
I3418
sS'famous'
p2813
I3664
sS'remedy'
p2814
I1817
sS'hid'
p2815
I1117
sS'breast'
p2816
I882
sS'closely'
p2817
I3471
sS'compass'
p2818
I2679
sS'swart-complexioned'
p2819
I1065
sS'sepulchres'
p2820
I1938
sS"send'st"
p2821
I1801
sS'banner'
p2822
I3291
sS'him'
p2823
I267
sS'merchandise'
p2824
I4294
sS'distraction'
p2825
I2735
sS'grievances'
p2826
I1126
sS"deriv'd"
p2827
I4220
sS'pleasures'
p2828
I2398
sS'diamond'
p2829
I3346
sS'cry'
p2830
I1886
sS'impanelled'
p2831
I1505
sS'remove'
p2832
I978
sS'wrecks'
p2833
I3609
sS'augurs'
p2834
I2510
sS'common'
p2835
I1961
sS'miseries'
p2836
I3758
sS'kill'
p2837
I1387
sS'mantle'
p2838
I3272
sS'poisoned'
p2839
I2639
sS'wrote'
p2840
I4225
sS'wrongfully'
p2841
I1902
sS'sew'
p2842
I3365
sS'bars'
p2843
I952
sS'set'
p2844
I1626
sS'art'
p2845
I56
sS'huntsman'
p2846
I4150
sS'declines'
p2847
I766
sS'jade'
p2848
I1612
sS'around'
p2849
I4099
sS"o'ersways"
p2850
I1867
sS'see'
p2851
I148
sS'bare'
p2852
I992
sS'are'
p2853
I212
sS'sea'
p2854
I1455
sS'laurel'
p2855
I3640
sS'presenteth'
p2856
I660
sS'close'
p2857
I3280
sS'bark'
p2858
I2138
sS'greece'
p2859
I3870
sS'outward'
p2860
I713
sS'feared'
p2861
I4048
sS'threats'
p2862
I3807
sS'spirits'
p2863
I2227
sS'horrid'
p2864
I4335
sS"enur'd"
p2865
I3431
sS'forlorn'
p2866
I1205
sS'firmest'
p2867
I3502
sS'please'
p2868
I1062
sS'drooping'
p2869
I1029
sS'unions'
p2870
I405
sS'won'
p2871
I1396
sS'gentlest'
p2872
I2613
sS'affairs'
p2873
I1732
sS'woe'
p2874
I1119
sS'guilt'
p2875
I1311
sS'rite'
p2876
I906
sS'tibey'
p2877
I2337
sS'thrive'
p2878
I642
sS'endure'
p2879
I3176
sS'knowing'
p2880
I2130
sS'milder'
p2881
I4158
sS'creating'
p2882
I2629
sS'spun'
p2883
I3584
sS'sold'
p2884
I2551
sS'sole'
p2885
I1305
sS'vanishing'
p2886
I1839
sS'death'
p2887
I327
sS'mirth'
p2888
I3989
sS'baleful'
p2889
I3593
sS'stoures'
p2890
I4026
sS'alters'
p2891
I2667
sS'beholder'
p2892
I3469
sS'oppress'
p2893
I4004
sS'both'
p2894
I1264
sS'feeling'
p2895
I2758
sS'last'
p2896
I1929
sS'grounded'
p2897
I1818
sS'desired'
p2898
I2268
sS'thou'
p2899
I33
sS'frieseth'
p2900
I3708
sS'panther'
p2901
I3974
sS'elizabeths'
p2902
I4223
sS'angelic'
p2903
I4314
sS'anon'
p2904
I1199
sS'self-pleasing'
p2905
I3296
sS'forgotten'
p2906
I2152
sS'poverty'
p2907
I1379
sS'possesseth'
p2908
I1814
sS'approve'
p2909
I1421
sS'finds'
p2910
I2300
sS'usest'
p2911
I1370
sS'flies'
p2912
I1965
sS'consume'
p2913
I3343
sS'majesty'
p2914
I348
sS'point'
p2915
I1622
sS'reasons'
p2916
I1565
sS'sweet'
p2917
I50
sS'loan'
p2918
I312
sS'manners'
p2919
I1354
sS'harbour'
p2920
I4238
sS'except'
p2921
I3110
sS'liker'
p2922
I708
sS'beats'
p2923
I4008
sS'worthless'
p2924
I2146
sS'devil'
p2925
I3060
sS'unworthiness'
p2926
I3146
sS'raise'
p2927
I3523
sS"'scaped"
p2928
I2280
sS'arrest'
p2929
I2024
sS'stamp'
p2930
I2171
sS'hind'
p2931
I4261
sS'devouring'
p2932
I783
sS'acceptance'
p2933
I2954
sS'satire'
p2934
I2425
sS'due'
p2935
I80
sS'guilefull'
p2936
I3903
sS'adulterate'
p2937
I2759
sS'whom'
p2938
I521
sS'secret'
p2939
I665
sS"wood's"
p2940
I2865
sS'pining'
p2941
I3753
sS'visnomy'
p2942
I3890
sS'clogged'
p2943
I4201
sS'rock'
p2944
I4013
sS'wait'
p2945
I1756
sS'disconsolate'
p2946
I4366
sS'delights'
p2947
I390
sS'rosy'
p2948
I2678
sS'firm'
p2949
I1856
sS'lived'
p2950
I1931
sS'partly'
p2951
I2604
sS'gay'
p2952
I1939
sS"'twixt"
p2953
I2044
sS'fire'
p2954
I1470
sS"dial's"
p2955
I2083
sS'overthrow'
p2956
I2286
sS'convert'
p2957
I645
sS'else'
p2958
I74
sS'lives'
p2959
I244
sS'bidding'
p2960
I3258
sS'receive'
p2961
I2782
sS'ways'
p2962
I4064
sS'untrained'
p2963
I3948
sS'mournful'
p2964
I2453
sS'hardness'
p2965
I3949
sS'plants'
p2966
I667
sS'highest'
p2967
I4043
sS'utmost'
p2968
I1554
sS'look'
p2969
I153
sS'frozen'
p2970
I3675
sS'straight'
p2971
I1493
sS'smile'
p2972
I3555
sS'admire'
p2973
I2788
sS'pace'
p2974
I1606
sS'while'
p2975
I1134
sS'ought'
p2976
I3295
sS'rigour'
p2977
I2932
sS"intermixed'"
p2978
I2436
sS'kissing'
p2979
I1192
sS'eclipses'
p2980
I1265
sS"thought's"
p2981
I3252
sS'guide'
p2982
I3484
sS'all-oblivious'
p2983
I1690
sS'mote'
p2984
I3465
sS'odour'
p2985
I1656
sS"is't"
p2986
I1355
sS'confound'
p2987
I1789
sS'gall'
p2988
I3857
sS'vow'
p2989
I2274
sS'unperfect'
p2990
I897
sS'owes'
p2991
I2128
sS'seen'
p2992
I1184
sS'ready'
p2993
I3267
sS'rid'
p2994
I2994
sS'seest'
p2995
I2013
sS'anguish'
p2996
I3920
sS'fairer'
p2997
I493
sS'chase'
p2998
I3043
sS'deprive'
p2999
I4095
sS'twofold'
p3000
I1407
sS'grant'
p3001
I475
sS'lengths'
p3002
I1461
sS'bristly'
p3003
I562
sS'belong'
p3004
I1751
sS'dishonor'
p3005
I3281
sS'engrossed'
p3006
I2923
sS'wherein'
p3007
I931
sS'rules'
p3008
I3940
sS'discourse'
p3009
I3113
sS'cruelty'
p3010
I3607
sS'esteemed'
p3011
I2368
sS'ruth'
p3012
I2910
sS'composition'
p3013
I1484
sS'higher'
p3014
I4287
sS'covetous'
p3015
I2937
sS'used'
p3016
I245
sS'tower'
p3017
I4130
sS'lie'
p3018
I1150
sS'mow'
p3019
I1796
sS'shinedst'
p3020
I3809
sS'mantleth'
p3021
I4206
sS'nipples'
p3022
I4118
sS'lurkest'
p3023
I3232
sS'moment'
p3024
I654
sS'flown'
p3025
I3075
sS'moving'
p3026
I997
sS'purpose'
p3027
I851
sS'wretchcd'
p3028
I2309
sS'mavis'
p3029
I4322
sS'early'
p3030
I1211
sS'lower'
p3031
I3899
sS'task'
p3032
I1998
sS'older'
p3033
I2560
sS'accumulate'
p3034
I2692
sS'knowen'
p3035
I3958
sS'cheek'
p3036
I1649
sS'loathsome'
p3037
I1268
sS"frown'st"
p3038
I3133
sS'grind'
p3039
I2559
sS'morrow'
p3040
I2283
sS'cheer'
p3041
I2399
sS'edge'
p3042
I1700
sS'unspotted'
p3043
I4370
sS'starved'
p3044
I2051
sS'toil'
p3045
I1012
sS'stelled'
p3046
I926
sS'homeward'
p3047
I3955
sS'spend'
p3048
I199
sS'melting'
p3049
I3811
sS'plagues'
p3050
I625
sS'abstain'
p3051
I3856
sS'presume'
p3052
I894
sS'priefe'
p3053
I3937
sS'misintended'
p3054
I3477
sS'named'
p3055
I3838
sS'salve'
p3056
I1238
sS'shape'
p3057
I450
sS'bedecked'
p3058
I4196
sS'aright'
p3059
I3117
sS'injuries'
p3060
I2262
sS'unto'
p3061
I1518
sS'gems'
p3062
I858
sS'tables'
p3063
I2770
sS'cut'
p3064
I1842
sS'reflex'
p3065
I4149
sS'cup'
p3066
I2636
sS'hated'
p3067
I2881
sS'decayed'
p3068
I2118
sS'danger'
p3069
I3691
sS'hues'
p3070
I834
sS'labour'
p3071
I3589
sS'crying'
p3072
I3052
sS'tormented'
p3073
I3351
sS'firbloom'
p3074
I3617
sS"either's"
p3075
I1054
sS"tongue's"
p3076
I3013
sS'march'
p3077
I1178
sS'lacking'
p3078
I1141
sS'big'
p3079
I2385
sS'bid'
p3080
I1729
sS'advocate'
p3081
I1281
sS'displace'
p3082
I3545
sS'judgement'
p3083
I614
sS'redeem'
p3084
I2417
sS'quest'
p3085
I1509
sS'messengers'
p3086
I1488
sS'dearly'
p3087
I1411
sS'necessary'
p3088
I2532
sS'bit'
p3089
I3824
sS'sharpened'
p3090
I1705
sS'wings'
p3091
I3265
sS"garments'"
p3092
I2304
sS'outright'
p3093
I2995
sS'inviting'
p3094
I2808
sS'baseness'
p3095
I3246
sS'hardy'
p3096
I3430
sS'follows'
p3097
I1394
sS"hate'"
p3098
I3067
sS'strife'
p3099
I2041
sS'shapes'
p3100
I2618
sS'eek'
p3101
I4230
sS'translated'
p3102
I2371
sS'tribes'
p3103
I2519
sS'foolish'
p3104
I3018
sS'twixt'
p3105
I4243
sS'smit'
p3106
I3709
sS'canst'
p3107
I225
sS'wrack'
p3108
I3788
sS"janus'"
p3109
I3257
sS'often'
p3110
I765
sS'wombs'
p3111
I2391
sS'spring'
p3112
I57
sS'creation'
p3113
I2326
sS'some'
p3114
I162
sS'play'
p3115
I259
sS'saints'
p3116
I4070
sS'sighs'
p3117
I1521
sS'lips'
p3118
I2677
sS'added'
p3119
I2109
sS'mighty'
p3120
I3322
sS'sight'
p3121
I345
sS'mirror'
p3122
I3320
sS'curious'
p3123
I1351
sS'pale'
p3124
I1195
sS'sauces'
p3125
I2707
sS'senseless'
p3126
I3683
sS'delivered'
p3127
I2090
sS'acquaintance'
p3128
I2093
sS'amongst'
p3129
I3573
sS'twinkle'
p3130
I3475
sS'fairing'
p3131
I2844
sS'affects'
p3132
I3316
sS'shall'
p3133
I84
sS'oblivion'
p3134
I2776
sS'balmy'
p3135
I2516
sS'modest'
p3136
I4312
sS'kind-hearted'
p3137
I496
sS'barrenly'
p3138
I523
sS'lark'
p3139
I1100
sS'worship'
p3140
I3137
sS'temple'
p3141
I3562
sS'be'
p3142
I71
sS'run'
p3143
I1616
sS'remembered'
p3144
I194
sS'odor'
p3145
I4120
sS'clay'
p3146
I1993
sS"shadow's"
p3147
I1437
sS"'this"
p3148
I129
sS'rue'
p3149
I4298
sS'aloft'
p3150
I2104
sS'rent'
p3151
I2824
sS'fee'
p3152
I2754
sS'concealed'
p3153
I2259
sS'hostages'
p3154
I3367
sS'universe'
p3155
I2547
sS'eglantine'
p3156
I3615
sS'by'
p3157
I16
sS'shine'
p3158
I1209
sS'faith'
p3159
I1895
sS'goods'
p3160
I4015
sS'deserved'
p3161
I122
sS'constraint'
p3162
I4124
sS'therewith'
p3163
I3663
sS'wrinkles'
p3164
I192
sS'deserves'
p3165
I2122
sS'ambush'
p3166
I1973
sS'pains'
p3167
I3954
sS'licentious'
p3168
I3353
sS'charm'
p3169
I3908
sS'hatred'
p3170
I2320
sS'tenants'
p3171
I1508
sS'youthful'
p3172
I676
sS'misplaced'
p3173
I1897
sS'repair'
p3174
I159
sS'conquest'
p3175
I333
sS'within'
p3176
I65
sS'glooming'
p3177
I4086
sS'warmed'
p3178
I3194
sS'debateth'
p3179
I687
sS'services'
p3180
I1723
sS'because'
p3181
I1419
sS'piteous'
p3182
I3837
sS'remembrance'
p3183
I288
sS'lesson'
p3184
I2720
sS"sharp'st"
p3185
I2651
sS'odorous'
p3186
I4119
sS'story'
p3187
I2201
sS'featureless'
p3188
I525
sS'spending'
p3189
I2072
sS'question'
p3190
I565
sS'chide'
p3191
I406
sS'rend'
p3192
I3586
sS'whereto'
p3193
I2686
sS'slandering'
p3194
I2851
sS'suit'
p3195
I2918
sS'wearing'
p3196
I3643
sS'translate'
p3197
I2377
sS'warried'
p3198
I3875
sS'himself'
p3199
I469
sS'arise'
p3200
I1693
sS'elsewhere'
p3201
I1811
sS'governs'
p3202
I2603
sS'graciously'
p3203
I1002
sS'healthful'
p3204
I2716
sS'frost'
p3205
I273
sS'vowing'
p3206
I3159
sS'authority'
p3207
I1906
sS'newer'
p3208
I2563
sS'filed'
p3209
I2210
sS'hopes'
p3210
I2728
sS"prince's"
p3211
I4144
sS'line'
p3212
I1990
sS'warlike'
p3213
I3960
sS'dull'
p3214
I1445
sS'usury'
p3215
I310
sS'directed'
p3216
I1433
sS'bevel'
p3217
I2767
sS'immured'
p3218
I2193
sS'helicon'
p3219
I3222
sS"lover's"
p3220
I1843
sS'goodwill'
p3221
I4161
sS'sullied'
p3222
I689
sS'us'
p3223
I1357
sS'lords'
p3224
I2336
sS'maturity'
p3225
I1786
sS'slander'
p3226
I1967
sS"adders'"
p3227
I4327
sS'hied'
p3228
I3184
sS'covet'
p3229
I3787
sS'wicked'
p3230
I3392
sS'called'
p3231
I1558
sS'vassalage'
p3232
I979
sS'bell'
p3233
I1983
sS'sort'
p3234
I1317
sS'archers'
p3235
I3472
sS'constant'
p3236
I641
sS'bind'
p3237
I2940
sS'goodly'
p3238
I2148
sS'likewise'
p3239
I3561
sS'allayed'
p3240
I1701
sS'influence'
p3241
I664
sS"physicians'"
p3242
I3944
sS'merry'
p3243
I3510
sS'rarities'
p3244
I1794
sS'single'
p3245
I198
sS'mightier'
p3246
I691
sS'doest'
p3247
I4227
sS'tuneless'
p3248
I3880
sS'assailed'
p3249
I1397
sS'surmise'
p3250
I2693
sS'rainy'
p3251
I2284
sS'sullen'
p3252
I1103
sS'intreat'
p3253
I3601
sS'sunken'
p3254
I113
sS'impediments'
p3255
I2664
sS'peace'
p3256
I2042
sS'fears'
p3257
I1864
sS'dimmed'
p3258
I762
sS'afford'
p3259
I2126
sS'dead-doing'
p3260
I3206
sS'becomes'
p3261
I2755
sS'hove'
p3262
I4368
sS'nay'
p3263
I1991
sS'mock'
p3264
I1800
sS'perusal'
p3265
I1342
sS'draw'
p3266
I808
sS'elements'
p3267
I1467
sS'clean'
p3268
I2052
sS'castles'
p3269
I3427
sS'besiege'
p3270
I83
sS'breasts'
p3271
I2890
sS'prepared'
p3272
I4345
sS'assayed'
p3273
I3950
sS'rise'
p3274
I2422
sS'weigh'
p3275
I2746
sS'makeless'
p3276
I439
sS'hair'
p3277
I3773
sS'wrinkle'
p3278
I2424
sS'desert'
p3279
I1567
sS'paps'
p3280
I4242
sS'land'
p3281
I1454
sS'happier'
p3282
I320
sS"excuse'"
p3283
I133
sS"spend'st"
p3284
I2415
sS'vice'
p3285
I1969
sS'blend'
p3286
I4087
sS'age'
p3287
I188
sS'wards'
p3288
I1536
sS'admiring'
p3289
I1773
sS'implied'
p3290
I3279
sS'heats'
p3291
I3204
sS'came'
p3292
I2946
sS'enrolled'
p3293
I4171
sS'fresh'
p3294
I53
sS'marvel'
p3295
I3124
sS'having'
p3296
I231
sS'once'
p3297
I969
sS'pervert'
p3298
I3851
sS'wilfulness'
p3299
I2691
sS'discontent'
p3300
I2805
sS'melts'
p3301
I3682
sS'highmost'
p3302
I367
sS'tombs'
p3303
I2521
sS"deformed'st"
p3304
I2616
sS'soften'
p3305
I3504
sS'alien'
p3306
I2100
sS'windy'
p3307
I2285
sS'special-blest'
p3308
I1634
sS'go'
p3309
I566
sS'ruminate'
p3310
I1860
sS'renowned'
p3311
I3873
sS'seemed'
p3312
I2393
sS'graves'
p3313
I2079
sS'tincture'
p3314
I1659
sS'uphold'
p3315
I602
sS'reckoned'
p3316
I2961
sS'young'
p3317
I815
sS'send'
p3318
I987
sS'does'
p3319
I4292
sS'obstinate'
p3320
I4009
sS'blaze'
p3321
I3667
sS'letters'
p3322
I3865
sS'debarred'
p3323
I1048
sS'pleasing'
p3324
I420
sS'sent'
p3325
I3895
sS'virtuous'
p3326
I705
sS'over-partial'
p3327
I2964
sS'queen'
p3328
I2365
sS'wished'
p3329
I1718
sS'tread'
p3330
I3530
sS'torture'
p3331
I1056
sS'bale'
p3332
I3227
sS"'now"
p3333
I2659
sS"'not"
p3334
I3078
sS'confounding'
p3335
I1841
sS'rhyme'
p3336
I696
sS'languished'
p3337
I3070
sS'firmly'
p3338
I4160
sS'rebuked'
p3339
I2737
sS'scanted'
p3340
I2683
sS'accuse'
p3341
I2684
sS'telling'
p3342
I2073
sS'kindled'
p3343
I3245
sS'timely'
p3344
I3266
sS'entire'
p3345
I3312
sS'false-speaking'
p3346
I2981
sS'augment'
p3347
I3759
sS'iniquity'
p3348
I1828
sS'bonds'
p3349
I2245
sS'colors'
p3350
I4182
sS'trusting'
p3351
I4040
sS'bondage'
p3352
I4123
sS'try'
p3353
I2561
sS"eve's"
p3354
I2330
sS'race'
p3355
I1609
sS'verdict'
p3356
I1511
sS'betwixt'
p3357
I1517
sS'rack'
p3358
I1201
sS'deformed'
p3359
I3889
sS"alt'ring"
p3360
I2653
sS'pledge'
p3361
I3847
sS'thereunto'
p3362
I4266
sS'crow'
p3363
I1966
sS"work's"
p3364
I1020
sS'thinly'
p3365
I1628
sS'mishap'
p3366
I4299
sS'waking'
p3367
I2255
sS'jump'
p3368
I1456
sS'issueless'
p3369
I436
sS'plead'
p3370
I918
sS'decrees'
p3371
I2647
sS'languor'
p3372
I3964
sS'pity-wanting'
p3373
I2997
sS'victor'
p3374
I1976
sS'precept'
p3375
I3526
sS'heavens'
p3376
I3898
sS'giving'
p3377
I2232
sS'saw'
p3378
I2182
sS'expressed'
p3379
I919
sS"man's"
p3380
I1089
sS'henceforth'
p3381
I3783
sS"t'increase"
p3382
I3835
sS'rotten'
p3383
I1231
sS'surcease'
p3384
I3383
sS'graceth'
p3385
I3406
sS'attire'
p3386
I3632
sS'contrained'
p3387
I3919
sS'bird'
p3388
I2609
sS'body'
p3389
I932
sS'rich-laden'
p3390
I4293
sS'melancholy'
p3391
I1480
sS'led'
p3392
I3956
sS'chose'
p3393
I2356
sS'desires'
p3394
I3334
sS'standeth'
p3395
I4044
sS'gathered'
p3396
I2798
sS'sins'
p3397
I1275
sS'nimble'
p3398
I1457
sS'scythe'
p3399
I576
sS'objects'
p3400
I2610
sS'let'
p3401
I305
sS'separation'
p3402
I1358
sS'others'
p3403
I463
sS'dissuade'
p3404
I3019
sS'sing'
p3405
I418
sS'miser'
p3406
I2043
sS'extreme'
p3407
I2874
sS'great'
p3408
I228
sS'likened'
p3409
I4000
sS'burthens'
p3410
I2455
sS'conceit'
p3411
I683
sS'metre'
p3412
I747
sS'leaving'
p3413
I330
sS'trusty'
p3414
I3725
sS'survey'
p3415
I1620
sS'defeat'
p3416
I1809
sS'requite'
p3417
I3923
sS'climb'
p3418
I3415
sS'proof'
p3419
I2562
sS'makes'
p3420
I1042
sS'writes'
p3421
I2200
sS'composed'
p3422
I1769
sS'thralled'
p3423
I2806
sS'chaste'
p3424
I3189
sS'apple'
p3425
I2329
sS'sire'
p3426
I417
sS'forbid'
p3427
I805
sS'win'
p3428
I1854
sS"whoe'er"
p3429
I2930
sS'innocence'
p3430
I3289
sS'private'
p3431
I448
sS'uprear'
p3432
I1568
sS'instinct'
p3433
I1586
sS'ran'
p3434
I3810
sS'wit'
p3435
I923
sS'decrease'
p3436
I674
sS'lodging'
p3437
I4215
sS'doubtfully'
p3438
I3605
sS'scandal'
p3439
I2587
sS'choked'
p3440
I3859
sS'cloud'
p3441
I1217
sS'desiring'
p3442
I1090
sS"lovers'"
p3443
I1695
sS'use'
p3444
I121
sS'cheered'
p3445
I673
sS'from'
p3446
I6
sS'valorous'
p3447
I4173
sS'remains'
p3448
I2036
sS'hammered'
p3449
I2741
sS'next'
p3450
I2564
sS'few'
p3451
I2004
sS'doubt'
p3452
I3066
sS'contentment'
p3453
I3743
sS'finishing'
p3454
I3714
sS'themselves'
p3455
I570
sS'hiding'
p3456
I1233
sS"sun's"
p3457
I958
sS'defendant'
p3458
I1502
sS'cheeks'
p3459
I2181
sS'possession'
p3460
I773
sS'pencil'
p3461
I712
sS'babe'
p3462
I891
sS'pretty'
p3463
I1390
sS'misuse'
p3464
I3163
sS'famoused'
p3465
I965
sS'inclined'
p3466
I3559
sS'heir'
p3467
I25
sS"need'st"
p3468
I2991
sS'infection'
p3469
I1913
sS'charming'
p3470
I3492
sS'sore'
p3471
I4020
sS'insufficiency'
p3472
I3139
sS'train'
p3473
I3389
sS'sharply'
p3474
I4025
sS'tattered'
p3475
I103
sS'gladly'
p3476
I393
sS'harvest'
p3477
I2862
sS'annoy'
p3478
I396
sS"none'"
p3479
I425
sS'account'
p3480
I1130
sS'meek'
p3481
I3243
sS'salving'
p3482
I1273
sS'this'
p3483
I73
sS'meed'
p3484
I4344
sS'ride'
p3485
I1196
sS'pour'
p3486
I3528
sS'crossed'
p3487
I2926
sS'praise'
p3488
I115
sS'executor'
p3489
I242
sS'meet'
p3490
I291
sS'drops'
p3491
I2517
sS'befits'
p3492
I1392
sS'vaunt'
p3493
I677
sS'control'
p3494
I1736
sS'dregs'
p3495
I2031
sS'unswept'
p3496
I1678
sS'exceeding'
p3497
I3674
sS"grow'st"
p3498
I500
sS'ushers'
p3499
I2913
sS'process'
p3500
I2473
sS'rapt'
p3501
I3814
sS'high'
p3502
I723
sS'sought'
p3503
I1110
sS'his'
p3504
I23
sS'something'
p3505
I2223
sS'bones'
p3506
I1159
sS'purposed'
p3507
I2287
sS'paws'
p3508
I780
sS'trumpet'
p3509
I3513
sS'darkening'
p3510
I2416
sS'counterfeit'
p3511
I706
sS'lamb'
p3512
I2378
sS'comes'
p3513
I2253
sS'counting'
p3514
I2048
sS'compounded'
p3515
I1994
sS'falls'
p3516
I2801
sS'sit'
p3517
I1326
sS"sickle's"
p3518
I2680
sS'holds'
p3519
I657
sS'thrall'
p3520
I3201
sS'moods'
p3521
I2324
sS'boldly'
p3522
I4247
sS'pleasance'
p3523
I3493
sS'swear'
p3524
I2903
sS'dangerous'
p3525
I4090
sS'beams'
p3526
I2631
sS'mightst'
p3527
I1402
sS'forsaken'
p3528
I2925
sS'sin'
p3529
I1815
sS'stock'
p3530
I3861
sS'watery'
p3531
I1853
sS'entrapped'
p3532
I3784
sS'attend'
p3533
I1465
sS'watch'
p3534
I1725
sS'await'
p3535
I4192
sS'meede'
p3536
I3611
sS'canker'
p3537
I1267
sS'bellamores'
p3538
I4105
sS"adorn'd"
p3539
I4177
sS'weighed'
p3540
I4200
sS'abuse'
p3541
I216
sS'ease'
p3542
I3234
sS'fits'
p3543
I2751
sS'yielded'
p3544
I3540
sS"worth's"
p3545
I2676
sS'tomb'
p3546
I173
sS'physic'
p3547
I1243
sS'bankrupt'
p3548
I1920
sS'hinders'
p3549
I3420
sS"blam'd"
p3550
I3801
sS'untrimmed'
p3551
I767
sS'light'
p3552
I335
sS'lame'
p3553
I1323
sS'lines'
p3554
I709
sS'feels'
p3555
I4126
sS'trembling'
p3556
I3211
sS'chief'
p3557
I487
sS'writ'
p3558
I920
sS'allow'
p3559
I809
sS'tenure'
p3560
I1807
sS'favourites'
p3561
I956
sS'dispraise'
p3562
I2351
sS'boldened'
p3563
I3290
sS'untimely'
p3564
I4274
sS'neglect'
p3565
I2432
sS'beauties'
p3566
I571
sS'stamped'
p3567
I2586
sS'transfix'
p3568
I1791
sS'attain'
p3569
I4317
sS'move'
p3570
I1530
sS'damsel'
p3571
I3478
sS'sightless'
p3572
I1035
sS"o'erlook"
p3573
I2161
sS'vainly'
p3574
I2980
sS'whilst'
p3575
I954
sS'beguile'
p3576
I164
sS'dearest'
p3577
I1321
sS'enclose'
p3578
I2349
sS'looks'
p3579
I350
sS'tyrant'
p3580
I693
sS'congealed'
p3581
I3684
sS'flattering'
p3582
I3906
sS'allurement'
p3583
I3694
sS'thyself'
p3584
I885
sS'faileth'
p3585
I4041
sS'badges'
p3586
I1469
sS'bunch'
p3587
I4113
sS'perfect'
p3588
I908
sS'refusest'
p3589
I1374
sS'frailties'
p3590
I2544
sS'brood'
p3591
I784
sS'whereon'
p3592
I666
sS'unstained'
p3593
I1970
sS'decay'
p3594
I511
sS'lo'
p3595
I338
sS'brook'
p3596
I3218
sS'whereof'
p3597
I1641
sS'banquet'
p3598
I1525
sS'themes'
p3599
I2490
sS'willing'
p3600
I313
sS'restrain'
p3601
I3853
sS'choose'
p3602
I1863
sS'endurence'
p3603
I4045
sS'tickled'
p3604
I2866
sS'greater'
p3605
I1380
sS'bolder'
p3606
I4198
sS'peerless'
p3607
I4175
sS'anchored'
p3608
I2967
sS'spell'
p3609
I3867
sS"th'author"
p3610
I3564
sS'ship'
p3611
I3723
sS'sweets'
p3612
I392
sS'stout'
p3613
I1875
sS'hands'
p3614
I1057
sS'front'
p3615
I2446
sS"owner's"
p3616
I2444
sS'kindness'
p3617
I1314
sS'affections'
p3618
I2553
sS'day'
p3619
I368
sS'damasked'
p3620
I2894
sS'strive'
p3621
I2589
sS'empress'
p3622
I3712
sS'comedy'
p3623
I3988
sS'footstool'
p3624
I3930
sS'profound'
p3625
I2594
sS'immoral'
p3626
I4305
sS'eased'
p3627
I1049
sS'feast'
p3628
I1522
sS'mouthed'
p3629
I2080
sS'trimmed'
p3630
I1891
sS'slide'
p3631
I1473
sS'treading'
p3632
I3417
sS'truth'
p3633
I644
sS'beasts'
p3634
I3688
sS'accounts'
p3635
I3656
sS'gazing'
p3636
I2829
sS'medicines'
p3637
I3936
sS'legions'
p3638
I3195
sS'treads'
p3639
I2897
sS'pitying'
p3640
I2908
sS'female'
p3641
I3058
sS'pitty'
p3642
I3799
sS'doing'
p3643
I2265
sS"princes'"
p3644
I957
sS'ills'
p3645
I2715
sS'alteration'
p3646
I2666
sS'society'
p3647
I1916
sS'decays'
p3648
I1878
sS'exceeded'
p3649
I1166
sS'our'
p3650
I1298
sS'bay'
p3651
I2966
sS'tenth'
p3652
I1346
sS'wander'
p3653
I3728
sS'beweep'
p3654
I1078
sS'out'
p3655
I678
sS'respects'
p3656
I1556
sS"children's"
p3657
I452
sS'mew'
p3658
I4285
sS'plods'
p3659
I1584
sS'confess'
p3660
I1295
sS'sufficed'
p3661
I1331
sS'bad'
p3662
I1928
sS'mate'
p3663
I4140
sS'messenger'
p3664
I3508
sS'frowns'
p3665
I2323
sS'impart'
p3666
I2000
sS'cause'
p3667
I1571
sS'red'
p3668
I2887
sS"one's"
p3669
I4211
sS'monuments'
p3670
I1670
sS'stare'
p3671
I3781
sS'perish'
p3672
I522
sS'frank'
p3673
I215
sS'embrew'
p3674
I3695
sS'greedy'
p3675
I3741
sS'darkly'
p3676
I1435
sS'embassy'
p3677
I1478
sS'attending'
p3678
I363
sS'hew'
p3679
I3250
sS'tresses'
p3680
I1936
sS'tempt'
p3681
I3907
sS'thrust'
p3682
I1533
sS'yore'
p3683
I1944
sS'sdeigne'
p3684
I3282
sS'cured'
p3685
I2718
sS'her'
p3686
I182
sS'spill'
p3687
I3486
sS'rearward'
p3688
I2282
sS'could'
p3689
I328
sS'keep'
p3690
I445
sS'counterpart'
p3691
I2203
sS'keen'
p3692
I791
sS'length'
p3693
I1073
sS'cures'
p3694
I1239
sS'mortal'
p3695
I361
sS'hence'
p3696
I578
sS'ears'
p3697
I3006
sS'designed'
p3698
I4218
sS'degree'
p3699
I4076
sS'rudely'
p3700
I1900
sS'finest'
p3701
I3452
sS'new-appearing'
p3702
I346
sS'fragrant'
p3703
I2346
sS'pitied'
p3704
I3034
sS'possessing'
p3705
I2054
sS'juncats'
p3706
I4248
sS'powerful'
p3707
I1673
sS'loveliness'
p3708
I201
sS'feasts'
p3709
I1625
sS"learned's"
p3710
I2107
sS'mocks'
p3711
I3994
sS'such'
p3712
I468
sS'unworthy'
p3713
I3278
sS'reigned'
p3714
I2542
sS'quality'
p3715
I622
sS'moiety'
p3716
I1513
sS'uneared'
p3717
I167
sS"love'"
p3718
I1181
sS'sadly'
p3719
I385
sS'humbless'
p3720
I3242
sS'ordering'
p3721
I413
sS'dove'
p3722
I2619
sS'vulgar'
p3723
I1339
sS'seat'
p3724
I1401
sS'their'
p3725
I298
sS'fray'
p3726
I3975
sS'intelligence'
p3727
I2236
sS'prouder'
p3728
I2305
sS'felly'
p3729
I4005
sS'travelled'
p3730
I1836
sS'badness'
p3731
I2769
sS'fairest'
p3732
I5
sS'painful'
p3733
I967
sS'low'
p3734
I377
sS'malady'
p3735
I3933
sS'never-resting'
p3736
I265
sS"were't"
p3737
I2817
sS'dreary'
p3738
I3968
sS'perforce'
p3739
I2933
sS'meeds'
p3740
I3658
sS'prefiguring'
p3741
I2501
sS'gladness'
p3742
I3812
sS'spites'
p3743
I1386
sS'commence'
p3744
I1284
sS'soundless'
p3745
I2144
sS'steel'
p3746
I1879
sS'loved'
p3747
I1154
sS'unlooked'
p3748
I384
sS'aught'
p3749
I1340
sS"o'er"
p3750
I547
sS'fruitless'
p3751
I3590
sS'riches'
p3752
I2248
sS'richer'
p3753
I2306
sS'bed'
p3754
I1010
sS'bee'
p3755
I4188
sS'jollity'
p3756
I1890
sS'lviii'
p3757
I4028
sS'transgression'
p3758
I2740
sS"body's"
p3759
I1021
sS'loves'
p3760
I1296
sS'lover'
p3761
I1161
sS'dumb'
p3762
I916
sS"lily's"
p3763
I2410
sS'steep'
p3764
I3172
sS'devotion'
p3765
I3560
sS'descriptions'
p3766
I2494
sS'drunk'
p3767
I2725
sS'accusing'
p3768
I1747
sS'enforced'
p3769
I2169
sS'beggared'
p3770
I1924
sS'false'
p3771
I825
sS"forget'st"
p3772
I2413
sS'beggar'
p3773
I1889
sS'labouring'
p3774
I1761
sS'gently'
p3775
I2856
sS'refigured'
p3776
I323
sS'gentle'
p3777
I250
sS'thereto'
p3778
I3494
sS'buy'
p3779
I3095
sS'torment'
p3780
I1360
sS'have'
p3781
I617
sS're-survey'
p3782
I1160
sS'need'
p3783
I1601
sS'mischief'
p3784
I4343
sS'turn'
p3785
I2343
sS'sings'
p3786
I429
sS'bastard'
p3787
I1933
sS'afraid'
p3788
I3424
sS'thessalian'
p3789
I3648
sS'skillful'
p3790
I4216
sS'bough'
p3791
I2454
sS'wits'
p3792
I1772
sS'able'
p3793
I2217
sS'gravity'
p3794
I1563
sS"fram'd"
p3795
I4217
sS'adjunct'
p3796
I2298
sS'which'
p3797
I246
sS'deprave'
p3798
I3653
sS'divert'
p3799
I2655
sS'lily'
p3800
I3205
sS'abhor'
p3801
I3144
sS'adieu'
p3802
I1727
sS'unless'
p3803
I382
sS'storm'
p3804
I3335
sS'centre'
p3805
I3081
sS'senses'
p3806
I3017
sS'who'
p3807
I176
sS'privilage'
p3808
I1750
sS"beds'"
p3809
I3030
sS"time's"
p3810
I577
sS'harmful'
p3811
I2565
sS'offend'
p3812
I403
sS'lust'
p3813
I2872
sS'vengeance'
p3814
I3361
sS'but'
p3815
I21
sS'darts'
p3816
I3264
sS'durefull'
p3817
I3306
sS'prisoner'
p3818
I283
sS'expired'
p3819
I1019
sS'why'
p3820
I200
sS"husband's"
p3821
I451
sS'afresh'
p3822
I1121
sS'deny'
p3823
I472
sS'weene'
p3824
I3449
sS'wherewith'
p3825
I1785
sS'bred'
p3826
I2535
sS'stronger'
p3827
I1072
sS'disease'
p3828
I3101
sS"widow's"
p3829
I430
sS'pipe'
p3830
I2449
sS'captivity'
p3831
I4125
sS'wounded'
p3832
I2753
sS'constrain'
p3833
I4319
sS'painting'
p3834
I1830
sS'outlive'
p3835
I1350
sS'deface'
p3836
I301
sS'impression'
p3837
I2585
sS'afloat'
p3838
I2142
sS"th'utmost"
p3839
I3928
sS'wilful'
p3840
I1376
sS'couldst'
p3841
I131
sS"th'image"
p3842
I3340
sS'burden'
p3843
I2388
sS'poesy'
p3844
I2102
sS'portliness'
p3845
I3288
sS'bring'
p3846
I1278
sS"many's"
p3847
I2322
sS'changeful'
p3848
I4038
sS'utter'
p3849
I3921
sS'rough'
p3850
I757
sS'obsequious'
p3851
I1144
sS'filthy'
p3852
I4309
sS'debate'
p3853
I2273
sS'spurring'
p3854
I1596
sS'envy'
p3855
I1978
sS'succour'
p3856
I3235
sS'knowledge'
p3857
I638
sS'chiding'
p3858
I3073
sS'philomel'
p3859
I2447
sS'mute'
p3860
I2191
sS'woo'
p3861
I3033
sS'world-without-end'
p3862
I1724
sS'should'
p3863
I17
sS'baser'
p3864
I3301
sS'bases'
p3865
I2820
sS'preposterously'
p3866
I2546
sS'fuel'
p3867
I34
sS'marriage'
p3868
I2663
sS'inhabit'
p3869
I1934
sS'hope'
p3870
I993
sS'meant'
p3871
I533
sS'accessary'
p3872
I1289
sS'doubting'
p3873
I2047
sS'insight'
p3874
I4239
sS'handle'
p3875
I3209
sS'means'
p3876
I698
sS'beat'
p3877
I3602
sS'familiar'
p3878
I2234
sS"the'accomplishment"
p3879
I3718
sS'lucky'
p3880
I4295
sS'bear'
p3881
I24
sS'six'
p3882
I4275
sS'beam'
p3883
I4073
sS'perfection'
p3884
I656
sS'words'
p3885
I990
sS'durst'
p3886
I1935
sS"maker's"
p3887
I3592
sS'leases'
p3888
I2811
sS'spur'
p3889
I1590
sS"offence's"
p3890
I1251
sS'endless'
p3891
I2513
sS'heretic'
p3892
I2809
sS'evident'
p3893
I476
sS'brain'
p3894
I2089
sS'gust'
p3895
I2635
sS'imperious'
p3896
I3925
sS'married'
p3897
I404
sS'summon'
p3898
I1109
sS'she'
p3899
I168
sS'contain'
p3900
I2086
sS'cruelness'
p3901
I3538
sS'supposeth'
p3902
I4032
sS'fixed'
p3903
I871
sS'view'
p3904
I1034
sS'spotted'
p3905
I3973
sS'strengthened'
p3906
I2440
sS'sluttish'
p3907
I1675
sS'untrue'
p3908
I2002
sS'outbraves'
p3909
I2341
sS'farthest'
p3910
I1453
sS'miscalled'
p3911
I1910
sS'frame'
p3912
I247
sS'shake'
p3913
I755
sS'accord'
p3914
I3697
sS'freeze'
p3915
I3998
sS'legacy'
p3916
I203
sS'merits'
p3917
I3024
sS'changes'
p3918
I2590
sS'enfeebled'
p3919
I2240
sS'violet'
p3920
I544
sS'sleeping'
p3921
I3198
sS'heares'
p3922
I4290
sS'despoiled'
p3923
I3961
sS'allured'
p3924
I3795
sS'battery'
p3925
I3434
sS'forgo'
p3926
I3834
sS'tripping'
p3927
I3192
sS'error'
p3928
I2682
sS'closet'
p3929
I1501
sS'record'
p3930
I1688
sS"master's"
p3931
I3918
sS'pattern'
p3932
I812
sS'vows'
p3933
I2648
sS'unseeing'
p3934
I1440
sS'tend'
p3935
I1642
sS'favor'
p3936
I4051
sS'state'
p3937
I679
sS'smelled'
p3938
I4098
sS'boughs'
p3939
I2006
sS'progress'
p3940
I2085
sS'neither'
p3941
I715
sS'besmeared'
p3942
I1676
sS'complement'
p3943
I3591
sS'wiry'
p3944
I2858
sS'down-rased'
p3945
I1848
sS'attention'
p3946
I4283
sS'jot'
p3947
I4021
sS'sorely'
p3948
I3901
sS'dateless'
p3949
I1116
sS'dressings'
p3950
I2787
sS'joy'
p3951
I389
sS'sorrow'
p3952
I1248
sS'eschew'
p3953
I4082
sS'revived'
p3954
I3813
sS'hooks'
p3955
I2968
sS'key'
p3956
I1618
sS'precious'
p3957
I1118
sS'weary'
p3958
I365
sS'swift'
p3959
I1475
sS'haughty'
p3960
I3432
sS'hits'
p3961
I2747
sS'figured'
p3962
I2524
sS'instant'
p3963
I1635
sS'limits'
p3964
I1450
sS'trump'
p3965
I3668
sS'invited'
p3966
I3016
sS'thence'
p3967
I1549
sS'equal'
p3968
I2196
sS'minds'
p3969
I2654
sS'preyed'
p3970
I4037
sS'fulfilled'
p3971
I4056
sS'april'
p3972
I183
sS'admit'
p3973
I2665
sS'devour'
p3974
I785
sS'streams'
p3975
I1194
sS'lordeth'
p3976
I3354
sS"store's"
p3977
I2963
sS'runneth'
p3978
I3496
sS'behaviour'
p3979
I2125
sS'canopy'
p3980
I555
sS'lofty'
p3981
I553
sS'kinds'
p3982
I2543
sS'glorious'
p3983
I1186
sS'aye'
p3984
I2534
sS'comment'
p3985
I663
sS'fester'
p3986
I2344
sS'torn'
p3987
I3156
sS'statues'
p3988
I1680
sS'unfolding'
p3989
I1638
sS'shewed'
p3990
I3761
sS"thund'ring"
p3991
I3806
sS'walk'
p3992
I2871
sS'commend'
p3993
I1948
sS'beguiled'
p3994
I1757
sS'laugh'
p3995
I3364
sS'table'
p3996
I929
sS'accursed'
p3997
I4336
sS'unclean'
p3998
I3627
sS'blinded'
p3999
I3332
sS'renewest'
p4000
I157
sS'second'
p4001
I1762
sS'addition'
p4002
I850
sS'wills'
p4003
I2764
sS'endite'
p4004
I3256
sS'devise'
p4005
I1999
sS"whate'er"
p4006
I800
sS'slowly'
p4007
I4346
sS'certain'
p4008
I2661
sS'poet'
p4009
I732
sS'waste'
p4010
I68
sS'define'
p4011
I1819
sS'divinely'
p4012
I4068
sS'tyranny'
p4013
I2656
sS'describe'
p4014
I1646
sS'general'
p4015
I2302
sS'proudest'
p4016
I2135
sS'league'
p4017
I1516
sS'painted'
p4018
I707
sS'moved'
p4019
I3371
sS'cypress'
p4020
I3620
sS'releasing'
p4021
I2243
sS'queene'
p4022
I4288
sS'cockatrices'
p4023
I3929
sS"hear'st"
p4024
I387
sS'lets'
p4025
I601
sS'pageants'
p4026
I3982
sS'unmoved'
p4027
I2332
sS'overturn'
p4028
I1679
sS'painter'
p4029
I927
sS'debtor'
p4030
I2945
sS'novel'
p4031
I2786
sS'sourly'
p4032
I1291
sS'surety-like'
p4033
I2938
sS'wilt'
p4034
I427
sS'plain'
p4035
I2178
sS'appearance'
p4036
I1503
sS'as'
p4037
I20
sS'three-fold'
p4038
I2927
sS'will'
p4039
I104
sS'riper'
p4040
I18
sS"hate's"
p4041
I1383
sS'damsels'
p4042
I4102
sS'at'
p4043
I498
sS'sith'
p4044
I3628
sS'dight'
p4045
I3262
sS'ripe'
p4046
I2226
sS'physicians'
p4047
I3000
sS'almost'
p4048
I1094
sS'up-locked'
p4049
I1619
sS'thus'
p4050
I1043
sS'entice'
p4051
I4256
sS'lascivious'
p4052
I1384
sS'pleasauns'
p4053
I4369
sS'askew'
p4054
I3325
sS'sting'
p4055
I4326
sS'lambs'
p4056
I2376
sS'sits'
p4057
I461
sS'halt'
p4058
I2266
sS'ransom'
p4059
I1257
sS'all-eating'
p4060
I118
sS'scorneth'
p4061
I4031
sS'shiny'
p4062
I3595
sS'perhaps'
p4063
I1995
sS'began'
p4064
I4061
sS'cross'
p4065
I1250
sS'proceeds'
p4066
I2907
sS'largess'
p4067
I221
sS'adverse'
p4068
I1283
sS'parts'
p4069
I408
sS'duteous'
p4070
I373
sS'merciful'
p4071
I3932
sS'freezings'
p4072
I2382
sS'snaky'
p4073
I4332
sS'party'
p4074
I1282
sS'love-pined'
p4075
I3226
sS'well-contented'
p4076
I1156
sS'blooms'
p4077
I1658
sS'slave'
p4078
I1721
sS'flesh'
p4079
I1444
sS'shames'
p4080
I1805
sS'lasting'
p4081
I2771
sS'drink'
p4082
I2575
sS'upon'
p4083
I204
sS'effect'
p4084
I286
sS'outcast'
p4085
I1077
sS'nightly'
p4086
I1075
sS"december's"
p4087
I2384
sS'dust'
p4088
I1158
sS'judgment'
p4089
I1694
sS'steals'
p4090
I840
sS'audit'
p4091
I236
sS'scarcely'
p4092
I1562
sS'argue'
p4093
I4272
sS'off'
p4094
I1060
sS'likest'
p4095
I3348
sS'mention'
p4096
I3636
sS'i'
p4097
I489
sS'whole'
p4098
I2948
sS'colour'
p4099
I2434
sS'overcast'
p4100
I3730
sS'well'
p4101
I447
sS'thought'
p4102
I490
sS'amends'
p4103
I2429
sS'oft'
p4104
I636
sS'sets'
p4105
I686
sS'fail'
p4106
I3439
sS'arising'
p4107
I1098
sS'twire'
p4108
I1068
sS'lest'
p4109
I1313
sS'restore'
p4110
I2936
sS'feathered'
p4111
I3041
sS'stores'
p4112
I1927
sS'kiss'
p4113
I2860
sS'heavily'
p4114
I1128
sS"o'erpressed"
p4115
I2992
sS'oak'
p4116
I3305
sS"circle's"
p4117
I4058
sS'gulls'
p4118
I2237
sS'love-god'
p4119
I3187
sS'cries'
p4120
I1079
sS'interim'
p4121
I1714
sS'books'
p4122
I3556
sS"lookers'"
p4123
I3547
sS'briar'
p4124
I3612
sS'skill'
p4125
I717
sS'thither'
p4126
I3185
sS'dost'
p4127
I165
sS'afflicted'
p4128
I3241
sS'web'
p4129
I3577
sS'reckoning'
p4130
I2646
sS'field'
p4131
I88
sS"spider's"
p4132
I3588
sS'onward'
p4133
I1598
sS'sky'
p4134
I670
sS'fled'
p4135
I1985
sS'simple'
p4136
I1911
sS'add'
p4137
I1959
sS'other'
p4138
I589
sS'wet'
p4139
I431
sS'destroy'
p4140
I4017
sS"infant's"
p4141
I3047
sS'smart'
p4142
I3233
sS'raven'
p4143
I2847
sS'long-lacked'
p4144
I3224
sS'wooed'
p4145
I1968
sS'increased'
p4146
I4148
sS'fate'
p4147
I1083
sS'worlds'
p4148
I3971
sS'testy'
p4149
I2999
sS'devised'
p4150
I2173
sS'famine'
p4151
I44
sS"who's"
p4152
I1344
sS'rind'
p4153
I3619
sS'crushed'
p4154
I1832
sS'smother'
p4155
I1520
sS'royalty'
p4156
I4249
sS'five'
p4157
I1766
sS'know'
p4158
I608
sS'unseen'
p4159
I1207
sS'press'
p4160
I2996
sS'incessant'
p4161
I3435
sS'fools'
p4162
I2815
sS'loss'
p4163
I1244
sS'flys'
p4164
I4212
sS'showing'
p4165
I2067
sS'like'
p4166
I371
sS'lost'
p4167
I2032
sS'redound'
p4168
I3498
sS'starry'
p4169
I3213
sS'perpetual'
p4170
I1711
sS'rich-proud'
p4171
I1847
sS'admitted'
p4172
I2957
sS'beseechers'
p4173
I2956
sS'heed'
p4174
I2360
sS'lose'
p4175
I774
sS'bane'
p4176
I3844
sS'nerves'
p4177
I2742
sS'works'
p4178
I2112
sS'soft'
p4179
I3208
sS'page'
p4180
I2533
sS'lends'
p4181
I214
sS'therein'
p4182
I943
sS'decease'
p4183
I14
sS'exceed'
p4184
I2183
sS'inconstant'
p4185
I682
sS'workings'
p4186
I2327
sS'portly'
p4187
I3276
sS'sparks'
p4188
I4339
sS'peer'
p4189
I4143
sS'thief'
p4190
I1292
sS'alive'
p4191
I749
sS'immortal'
p4192
I2153
sS'hush'
p4193
I2452
sS'shew'
p4194
I3886
sS'growth'
p4195
I2448
sS'home'
p4196
I1803
sS'transport'
p4197
I2690
sS"heaven's"
p4198
I869
sS'leaf'
p4199
I3639
sS'lead'
p4200
I1406
sS'broad'
p4201
I2141
sS'lean'
p4202
I2199
sS'eternize'
p4203
I4232
sS'leap'
p4204
I1463
sS'sustain'
p4205
I3236
sS'passion'
p4206
I818
sS'masked'
p4207
I1216
sS"o'ertake"
p4208
I1228
sS'ensample'
p4209
I3329
sS'poets'
p4210
I1179
sS'noise'
p4211
I3517
sS'obey'
p4212
I3897
sS'slight'
p4213
I1352
sS"death's"
p4214
I334
sS'how'
p4215
I125
sS'expire'
p4216
I2019
sS'although'
p4217
I1299
sS'worthy'
p4218
I1008
sS'posterity'
p4219
I177
sS'imaginary'
p4220
I1033
sS'insults'
p4221
I2520
sS'worths'
p4222
I1821
sS'stage'
p4223
I661
sS'gained'
p4224
I3762
sS'waving'
p4225
I4291
sS'about'
p4226
I2602
sS"murd'rous"
p4227
I467
sS'rare'
p4228
I862
sS'dun'
p4229
I2889
sS'linger'
p4230
I2288
sS'freedom'
p4231
I1498
sS'harder'
p4232
I2924
sS'blessings'
p4233
I2205
sS'sweat'
p4234
I3677
sS'gainer'
p4235
I2260
sS'hairs'
p4236
I2893
sS'tongue'
p4237
I740
sS'beshrew'
p4238
I2920
sS'outstripped'
p4239
I1164
sS'gladsome'
p4240
I4085
sS'own'
p4241
I29
sS'polished'
p4242
I2220
sS'portrait'
p4243
I3480
sS'owe'
p4244
I1980
sS'attaint'
p4245
I2162
sS'cleared'
p4246
I3833
sS'guard'
p4247
I1569
sS'weather'
p4248
I4050
sS'promise'
p4249
I1224
sS'esteem'
p4250
I2420
sS"ne'er-cloying"
p4251
I2706
sS'lawful'
p4252
I1286
sS'prefixed'
p4253
I3892
sS'quickly'
p4254
I3173
sS'gazeth'
p4255
I829
sS'suborned'
p4256
I2837
sS'fired'
p4257
I3327
sS'victors'
p4258
I2238
sS'veil'
p4259
I2358
sS'trenches'
p4260
I89
sS'watchman'
p4261
I1810
sS'spread'
p4262
I955
sS'dropping'
p4263
I3503
sS'inner'
p4264
I3230
sS'heresy'
p4265
I3915
sS"lov'd"
p4266
I4077
sS"grief's"
p4267
I1074
sS'function'
p4268
I2605
sS'ivory'
p4269
I3450
sS'prophetic'
p4270
I2504
sS'hoisted'
p4271
I2689
sS'surpassing'
p4272
I4139
sS'brand'
p4273
I2570
sS'close-bleeding'
p4274
I3217
sS'invocate'
p4275
I1347
sS'fountains'
p4276
I1260
sS'gait'
p4277
I2870
sS'prophecies'
p4278
I2500
sS'plague'
p4279
I2622
sS'gain'
p4280
I1423
sS'captives'
p4281
I3212
sS'delivers'
p4282
I2607
sS'ear'
p4283
I402
sS'eat'
p4284
I81
sS'bud'
p4285
I64
sS'he'
p4286
I175
sS'count'
p4287
I137
sS'mightiest'
p4288
I3924
sS'made'
p4289
I141
sS'wise'
p4290
I1996
sS'princes'
p4291
I633
sS'glory'
p4292
I962
sS'whether'
p4293
I1325
sS'wish'
p4294
I704
sS'grieve'
p4295
I1127
sS'triumphant'
p4296
I1213
sS"eyes'"
p4297
I2970
sS'placed'
p4298
I1627
sS'cruel'
p4299
I47
sS'converted'
p4300
I372
sS'limit'
p4301
I2166
sS'conceive'
p4302
I3308
sS'monument'
p4303
I2156
sS'minutes'
p4304
I626
sS'pensiveness'
p4305
I3739
sS'bearing'
p4306
I888
sS'furies'
p4307
I4330
sS'rightly'
p4308
I2334
sS'deaths'
p4309
I1668
sS"friend'"
p4310
I1578
sS'mask'
p4311
I3990
sS'measure'
p4312
I1953
sS'dearth'
p4313
I3085
sS'denote'
p4314
I3120
sS'tempered'
p4315
I3542
sS'liberties'
p4316
I4122
sS'dumpish'
p4317
I3259
sS'goodness'
p4318
I2719
sS'ink'
p4319
I1885
sS'fleeting'
p4320
I2380
sS'self-killed'
p4321
I309
sS'naming'
p4322
I2353
sS'endeared'
p4323
I1138
sS'nursed'
p4324
I2091
sS'mutual'
p4325
I414
sS'compared'
p4326
I2293
sS'didst'
p4327
I1225
sS'dressed'
p4328
I2402
sS'boot'
p4329
I2952
sS'forests'
p4330
I2470
sS'slumbers'
p4331
I1799
sS'book'
p4332
I973
sS'witness'
p4333
I988
sS'sick'
p4334
I2119
sS'unlettered'
p4335
I2215
sS'behold'
p4336
I545
sS"what's"
p4337
I2316
sS'dresses'
p4338
I3769
sS'thrivers'
p4339
I2830
sS'semblance'
p4340
I590
sS'star'
p4341
I999
sS'secretly'
p4342
I3863
sS'oppression'
p4343
I1050
sS'variation'
p4344
I2058
sS'stay'
p4345
I681
sS'methinks'
p4346
I618
sS'chance'
p4347
I770
sS'earthly'
p4348
I734
sS'amend'
p4349
I4081
sS'pacify'
p4350
I3379
sS'gloriously'
p4351
I4181
sS'astronomy'
p4352
I616
sS'friends'
p4353
I1086
sS'tan'
p4354
I2652
sS'ghost'
p4355
I2233
sS'stirred'
p4356
I855
sS'permanent'
p4357
I4270
sS'misdeem'
p4358
I4047
sS'self-example'
p4359
I3037
sS'ranks'
p4360
I1177
sS"he's"
p4361
I1838
sS'love-kindling'
p4362
I3174
sS'jewel'
p4363
I1040
sS'pictured'
p4364
I935
sS'entreat'
p4365
I3244
sS'lift'
p4366
I3832
sS'pupil'
p4367
I711
sS"sway'st"
p4368
I2855
sS'vassal'
p4369
I1739
sS'determination'
p4370
I593
sS'accidents'
p4371
I2644
sS'gardens'
p4372
I702
sS'augmented'
p4373
I3679
s.