(dp0
S'PRP$'
p1
(lp2
I23
aI23
aI135
aI135
aI23
aI23
aI182
aI298
aI298
aI23
aI23
aI23
aI23
aI23
aI23
aI23
aI182
aI23
aI135
aI182
aI582
aI582
aI582
aI582
aI582
aI582
aI582
aI135
aI582
aI135
aI23
aI135
aI298
aI298
aI135
aI582
aI582
aI582
aI135
aI582
aI135
aI582
aI582
aI582
aI582
aI135
aI582
aI582
aI582
aI582
aI582
aI298
aI135
aI582
aI135
aI23
aI23
aI182
aI182
aI182
aI135
aI135
aI135
aI135
aI23
aI135
aI298
aI23
aI23
aI135
aI135
aI135
aI135
aI135
aI182
aI23
aI23
aI23
aI135
aI135
aI135
aI135
aI23
aI582
aI135
aI23
aI135
aI298
aI298
aI298
aI298
aI298
aI135
aI135
aI135
aI135
aI135
aI135
aI135
aI135
aI135
aI135
aI135
aI135
aI135
aI182
aI135
aI135
aI135
aI135
aI135
aI135
aI135
aI135
aI135
aI135
aI135
aI135
aI135
aI298
aI298
aI135
aI135
aI298
aI135
aI135
aI23
aI23
aI23
aI298
aI23
aI23
aI135
aI135
aI135
aI135
aI135
aI298
aI135
aI135
aI135
aI135
aI135
aI1298
aI1298
aI1298
aI135
aI23
aI135
aI135
aI135
aI135
aI135
aI1298
aI135
aI135
aI135
aI135
aI135
aI135
aI135
aI182
aI135
aI298
aI182
aI135
aI182
aI182
aI135
aI182
aI182
aI135
aI182
aI135
aI135
aI135
aI135
aI135
aI182
aI135
aI135
aI135
aI135
aI135
aI135
aI135
aI135
aI135
aI135
aI135
aI135
aI298
aI135
aI135
aI135
aI135
aI135
aI23
aI135
aI135
aI135
aI135
aI135
aI135
aI135
aI135
aI135
aI135
aI23
aI135
aI135
aI135
aI135
aI23
aI23
aI23
aI135
aI135
aI135
aI135
aI135
aI135
aI135
aI23
aI135
aI23
aI135
aI23
aI582
aI582
aI582
aI298
aI298
aI298
aI298
aI582
aI135
aI23
aI582
aI582
aI582
aI23
aI582
aI582
aI135
aI582
aI135
aI582
aI582
aI582
aI582
aI582
aI582
aI582
aI582
aI582
aI582
aI582
aI582
aI582
aI582
aI1298
aI582
aI582
aI298
aI1298
aI23
aI23
aI23
aI135
aI23
aI135
aI135
aI135
aI135
aI135
aI135
aI135
aI135
aI135
aI135
aI135
aI135
aI135
aI135
aI135
aI135
aI23
aI23
aI23
aI23
aI135
aI135
aI23
aI135
aI298
aI23
aI23
aI135
aI135
aI23
aI23
aI23
aI23
aI23
aI23
aI23
aI23
aI23
aI298
aI298
aI582
aI135
aI135
aI582
aI582
aI135
aI582
aI135
aI135
aI23
aI135
aI23
aI135
aI135
aI135
aI23
aI23
aI135
aI582
aI135
aI135
aI298
aI135
aI135
aI135
aI135
aI135
aI135
aI298
aI135
aI135
aI135
aI135
aI135
aI582
aI23
aI582
aI582
aI23
aI135
aI582
aI582
aI582
aI135
aI135
aI582
aI582
aI582
aI135
aI582
aI582
aI135
aI135
aI298
aI135
aI298
aI582
aI582
aI582
aI135
aI135
aI582
aI582
aI582
aI23
aI23
aI23
aI23
aI582
aI582
aI182
aI135
aI582
aI298
aI135
aI23
aI135
aI23
aI135
aI135
aI298
aI23
aI23
aI135
aI135
aI23
aI582
aI135
aI135
aI135
aI135
aI135
aI135
aI135
aI135
aI135
aI135
aI135
aI135
aI135
aI1298
aI135
aI135
aI135
aI298
aI298
aI298
aI298
aI298
aI298
aI298
aI298
aI23
aI135
aI135
aI135
aI298
aI298
aI23
aI298
aI298
aI23
aI23
aI135
aI298
aI23
aI23
aI298
aI582
aI135
aI135
aI23
aI135
aI23
aI135
aI1298
aI135
aI182
aI182
aI298
aI135
aI182
aI135
aI135
aI182
aI135
aI582
aI135
aI135
aI135
aI582
aI582
aI135
aI582
aI582
aI582
aI23
aI582
aI135
aI135
aI135
aI135
aI135
aI135
aI135
aI298
aI298
aI1298
aI582
aI135
aI182
aI298
aI135
aI135
aI135
aI23
aI135
aI135
aI135
aI135
aI135
aI135
aI135
aI135
aI135
aI135
aI135
aI135
aI135
aI135
aI135
aI135
aI135
aI135
aI135
aI582
aI582
aI135
aI135
aI135
aI135
aI582
aI135
aI135
aI135
aI135
aI135
aI135
aI23
aI23
aI23
aI582
aI135
aI135
aI582
aI582
aI23
aI135
aI135
aI23
aI23
aI135
aI135
aI23
aI23
aI23
aI582
aI582
aI582
aI582
aI135
aI582
aI582
aI135
aI582
aI1298
aI1298
aI1298
aI582
aI135
aI135
aI135
aI298
aI135
aI135
aI135
aI135
aI582
aI1298
aI135
aI582
aI1298
aI135
aI135
aI298
aI298
aI135
aI135
aI298
aI298
aI135
aI23
aI1298
aI1298
aI135
aI1298
aI135
aI298
aI135
aI135
aI182
aI298
aI135
aI135
aI298
aI135
aI182
aI182
aI182
aI182
aI135
aI182
aI135
aI135
aI135
aI135
aI135
aI135
aI135
aI135
aI135
aI135
aI135
aI135
aI135
aI135
aI135
aI23
aI135
aI135
aI135
aI135
aI135
aI135
aI135
aI182
aI135
aI135
aI23
aI135
aI135
aI135
aI135
aI135
aI135
aI135
aI135
aI135
aI182
aI135
aI182
aI182
aI1298
aI135
aI135
aI135
aI135
aI182
aI135
aI135
aI298
aI135
aI135
aI135
aI298
aI298
aI135
aI135
aI135
aI135
aI135
aI135
aI135
aI135
aI298
aI298
aI182
aI182
aI182
aI182
aI182
aI182
aI182
aI135
aI135
aI135
aI135
aI135
aI182
aI23
aI135
aI135
aI135
aI182
aI135
aI182
aI135
aI135
aI135
aI135
aI135
aI135
aI23
aI135
aI135
aI135
aI135
aI135
aI135
aI135
aI135
aI135
aI135
aI135
aI135
aI135
aI135
aI135
aI135
aI135
aI135
aI135
aI135
aI135
aI135
aI23
aI182
aI135
aI135
aI23
aI23
aI135
aI135
aI135
aI135
aI23
aI23
aI182
aI135
aI298
aI135
aI135
aI135
aI135
aI182
aI135
aI135
aI135
aI182
aI135
aI182
aI135
aI182
aI182
aI182
aI135
aI182
aI135
aI135
aI135
aI23
aI23
aI23
aI182
aI135
aI182
aI182
aI182
aI182
aI182
aI182
aI182
aI182
aI23
aI135
aI582
aI135
aI135
aI582
aI135
aI582
aI582
aI582
aI23
aI135
aI135
aI135
aI582
aI582
aI582
aI135
aI298
aI182
aI182
aI182
aI182
aI182
aI182
aI182
aI135
aI135
aI135
aI182
aI135
aI135
aI182
aI182
aI182
aI182
aI298
aI582
aI182
aI182
aI182
aI182
aI182
aI135
aI182
aI182
aI182
aI582
aI298
aI182
aI135
aI182
aI182
aI182
aI182
aI182
aI182
aI182
aI135
aI135
aI182
aI182
aI298
aI135
aI23
aI182
aI23
aI182
aI23
aI23
aI182
aI135
aI135
aI135
aI23
aI298
aI298
aI298
aI298
aI182
aI23
aI23
aI182
aI182
aI182
aI135
aI182
aI135
aI23
aI23
aI182
aI182
aI182
aI182
aI298
aI182
aI135
aI182
aI182
aI182
aI135
aI135
aI182
aI182
aI135
aI135
aI182
aI182
aI135
aI182
aI182
aI135
aI135
aI182
aI135
aI182
aI298
aI298
aI135
aI135
aI182
aI582
aI582
aI582
aI23
aI23
aI23
aI23
aI23
aI182
aI182
aI582
aI582
aI298
aI182
aI23
aI582
aI135
aI182
aI182
aI298
aI298
aI182
aI182
aI135
aI182
aI182
aI182
aI135
aI182
aI135
aI182
aI135
aI182
aI135
aI298
aI298
aI135
aI182
aI182
aI23
aI182
aI182
aI135
aI182
aI182
aI135
aI182
aI182
aI135
aI182
aI182
aI182
aI182
aI135
aI135
aI135
aI135
aI298
aI298
aI298
aI298
aI135
aI182
aI298
aI135
aI582
aI23
aI182
aI298
aI182
aI23
aI135
aI182
aI182
aI182
aI182
aI135
aI135
aI182
aI135
aI23
aI23
aI298
aI298
aI135
aI182
aI182
aI182
aI182
aI182
aI182
aI182
aI182
aI135
aI135
aI135
aI135
aI182
aI135
aI182
aI182
aI182
aI23
aI182
aI135
aI182
aI135
aI135
aI135
aI135
aI135
aI182
aI182
aI298
aI23
aI135
aI135
aI135
aI298
aI582
aI582
aI135
aI582
aI135
aI582
aI582
aI582
aI582
aI135
aI135
aI135
aI182
aI182
aI135
aI135
aI582
aI582
aI298
aI298
aI298
aI182
aI182
aI182
aI182
aI298
aI182
aI23
aI23
aI182
aI23
aI182
aI182
aI582
aI582
aI582
aI582
aI582
aI582
aI582
aI135
aI135
aI135
aI135
aI135
aI582
aI135
aI298
aI182
aI23
aI182
aI182
aI135
aI135
aI182
aI182
aI135
aI135
aI135
aI135
aI182
aI135
aI182
aI23
aI23
aI23
aI135
aI182
aI182
aI298
aI135
aI135
aI135
aI135
aI135
aI135
aI182
aI182
aI182
aI182
aI182
aI182
aI182
aI182
aI182
aI582
aI135
aI135
aI135
aI582
aI135
aI182
aI182
aI182
aI182
aI23
aI182
aI182
aI23
aI182
aI23
aI23
aI135
aI135
aI182
aI135
aI135
aI135
aI135
aI298
aI182
aI182
aI23
aI23
aI1298
aI23
aI23
aI582
aI135
aI182
aI298
aI182
aI182
aI182
aI182
aI182
aI182
aI298
aI182
aI182
aI182
aI582
aI182
aI182
aI182
aI582
aI582
aI135
aI582
aI135
aI298
aI182
aI182
aI182
aI182
aI298
aI135
aI182
aI135
aI135
aI182
aI182
aI182
aI23
aI182
aI582
aI182
aI23
aI582
aI582
aI182
aI135
aI182
aI182
aI135
aI182
aI135
aI582
aI23
aI23
aI582
aI135
aI582
aI23
aI582
aI582
aI582
aI582
aI135
aI135
aI135
aI135
aI135
aI182
aI182
aI23
aI135
aI135
aI582
aI135
aI582
aI582
aI135
aI182
aI298
aI582
aI23
aI182
aI135
aI135
aI182
aI182
aI182
aI182
aI182
aI182
aI298
aI135
aI135
aI135
aI135
aI135
aI182
aI182
aI135
aI182
aI182
aI182
aI182
aI298
aI182
aI182
aI135
aI135
aI582
aI582
aI582
aI582
aI135
aI298
aI298
aI298
aI182
aI182
aI182
aI182
aI182
aI182
aI582
aI182
aI23
aI182
aI182
aI135
aI182
aI182
aI135
aI182
aI298
aI135
aI135
aI135
aI298
aI135
aI23
aI135
aI298
aI135
aI135
aI135
aI135
aI182
aI182
aI23
aI135
aI135
aI182
aI182
aI182
aI135
aI135
asS'VBG'
p3
(lp4
I46
aI66
aI108
aI140
aI108
aI231
aI330
aI351
aI231
aI359
aI363
aI413
aI359
aI418
aI420
aI421
aI108
aI486
aI587
aI632
aI754
aI769
aI783
aI811
aI826
aI827
aI832
aI833
aI852
aI46
aI890
aI914
aI936
aI947
aI991
aI997
aI1004
aI1029
aI1032
aI1069
aI1085
aI1090
aI1093
aI1098
aI1141
aI1004
aI1004
aI1168
aI1192
aI832
aI1208
aI1271
aI1273
aI1274
aI1276
aI108
aI418
aI1366
aI1404
aI1409
aI108
aI1413
aI1004
aI1422
aI1425
aI1440
aI1032
aI1468
aI1471
aI108
aI1490
aI108
aI1596
aI1602
aI108
aI1615
aI587
aI1638
aI108
aI108
aI1692
aI1702
aI108
aI108
aI108
aI108
aI1747
aI1755
aI1761
aI1773
aI769
aI108
aI1366
aI1839
aI1208
aI1841
aI1857
aI1905
aI833
aI363
aI421
aI46
aI1943
aI1949
aI1952
aI108
aI108
aI1986
aI1992
aI2017
aI108
aI2046
aI2047
aI2050
aI2053
aI2054
aI2057
aI2067
aI2069
aI2073
aI2078
aI418
aI2106
aI2078
aI2130
aI914
aI108
aI108
aI2167
aI108
aI914
aI108
aI108
aI46
aI46
aI108
aI914
aI46
aI2232
aI2054
aI2243
aI2246
aI2247
aI991
aI2249
aI2130
aI2251
aI1168
aI46
aI2255
aI108
aI1425
aI1004
aI2265
aI46
aI2130
aI231
aI2317
aI997
aI46
aI2353
aI108
aI2387
aI418
aI2400
aI2416
aI418
aI421
aI2441
aI418
aI231
aI2265
aI2459
aI2460
aI2488
aI2489
aI46
aI2501
aI2502
aI418
aI2505
aI2167
aI1004
aI1952
aI108
aI2629
aI1952
aI2634
aI2646
aI2653
aI2657
aI2047
aI2662
aI2673
aI108
aI1702
aI2710
aI2729
aI1425
aI2734
aI108
aI1952
aI2758
aI2771
aI2795
aI2803
aI2808
aI2818
aI2822
aI2825
aI2827
aI2829
aI2844
aI2851
aI2852
aI2868
aI46
aI231
aI420
aI2901
aI1992
aI2908
aI2130
aI1004
aI1032
aI2916
aI2916
aI108
aI46
aI108
aI1952
aI1992
aI421
aI947
aI2758
aI351
aI1004
aI3023
aI3048
aI3052
aI3063
aI108
aI3073
aI2232
aI3079
aI231
aI3093
aI3098
aI1702
aI3121
aI947
aI2852
aI3153
aI1004
aI3155
aI3159
aI3178
aI3186
aI3192
aI3198
aI1168
aI3211
aI3215
aI3098
aI108
aI1032
aI1032
aI3260
aI2167
aI3284
aI3307
aI3317
aI3328
aI3345
aI3356
aI3398
aI3403
aI1032
aI3417
aI3098
aI3464
aI3467
aI3474
aI3211
aI3492
aI827
aI3499
aI3503
aI587
aI3098
aI3606
aI3641
aI3643
aI3356
aI418
aI3674
aI3678
aI3714
aI1004
aI231
aI231
aI1141
aI231
aI3750
aI3753
aI3756
aI3764
aI108
aI108
aI2265
aI3800
aI2488
aI3806
aI3811
aI1943
aI359
aI2758
aI1029
aI108
aI420
aI1085
aI3852
aI3858
aI2803
aI3906
aI108
aI3098
aI3098
aI2232
aI3934
aI231
aI231
aI2130
aI3986
aI2167
aI4011
aI1952
aI3764
aI783
aI4040
aI4011
aI4052
aI4065
aI108
aI231
aI4086
aI587
aI1425
aI4139
aI1952
aI4153
aI1992
aI231
aI108
aI4166
aI947
aI359
aI108
aI3398
aI418
aI4215
aI108
aI4215
aI4241
aI3674
aI1141
aI108
aI418
aI4291
aI1004
aI4306
aI4307
aI231
aI231
aI1141
aI1952
aI3750
aI4326
aI4340
aI4347
aI2916
aI3852
asS'VBD'
p5
(lp6
I10
aI120
aI120
aI248
aI120
aI120
aI287
aI120
aI120
aI527
aI248
aI120
aI120
aI612
aI120
aI120
aI846
aI1019
aI248
aI1164
aI1166
aI612
aI1180
aI248
aI287
aI527
aI120
aI287
aI1412
aI120
aI248
aI1515
aI1515
aI287
aI287
aI248
aI1605
aI1614
aI612
aI10
aI1412
aI287
aI527
aI120
aI846
aI10
aI612
aI1180
aI1931
aI120
aI120
aI287
aI120
aI287
aI1931
aI287
aI846
aI287
aI1515
aI612
aI248
aI2099
aI2109
aI248
aI612
aI2147
aI287
aI287
aI248
aI248
aI248
aI2195
aI287
aI248
aI2195
aI287
aI287
aI612
aI2280
aI248
aI10
aI2099
aI287
aI2393
aI2404
aI2195
aI248
aI10
aI120
aI2393
aI248
aI287
aI287
aI248
aI2109
aI120
aI287
aI120
aI2471
aI287
aI120
aI1931
aI2503
aI612
aI287
aI2393
aI2538
aI10
aI2503
aI527
aI248
aI120
aI2586
aI2597
aI1412
aI287
aI248
aI248
aI287
aI2195
aI120
aI120
aI248
aI120
aI120
aI2745
aI2753
aI287
aI120
aI120
aI287
aI1931
aI287
aI120
aI612
aI612
aI2946
aI287
aI120
aI3036
aI2471
aI248
aI1412
aI248
aI287
aI3074
aI248
aI527
aI846
aI248
aI2195
aI2099
aI2946
aI1515
aI612
aI287
aI1515
aI2946
aI2597
aI287
aI248
aI846
aI248
aI3392
aI248
aI287
aI287
aI120
aI248
aI248
aI248
aI612
aI612
aI2280
aI287
aI3511
aI3519
aI248
aI287
aI120
aI287
aI248
aI248
aI248
aI3392
aI248
aI120
aI10
aI2099
aI612
aI248
aI248
aI527
aI248
aI120
aI248
aI3784
aI120
aI287
aI248
aI287
aI120
aI120
aI287
aI248
aI2393
aI287
aI287
aI120
aI248
aI248
aI120
aI120
aI248
aI248
aI3922
aI2946
aI2753
aI287
aI287
aI287
aI120
aI2099
aI1605
aI4061
aI2393
aI248
aI4074
aI248
aI287
aI2393
aI248
aI248
aI248
aI527
aI248
aI612
aI4151
aI612
aI248
aI1515
aI2393
aI120
aI287
aI527
aI287
aI248
aI4225
aI2946
aI4225
aI2946
aI1412
aI4229
aI287
aI248
aI2393
aI248
aI248
aI287
aI248
aI287
aI248
aI2946
aI248
aI287
aI248
aI10
aI287
aI612
aI248
aI846
aI248
aI3392
aI248
aI2393
aI287
asS'VBN'
p7
(lp8
I32
aI93
aI103
aI107
aI122
aI141
aI194
aI220
aI233
aI245
aI233
aI294
aI303
aI294
aI323
aI349
aI372
aI474
aI480
aI492
aI515
aI141
aI528
aI535
aI548
aI559
aI673
aI689
aI697
aI707
aI724
aI735
aI742
aI744
aI748
aI762
aI707
aI821
aI841
aI849
aI707
aI855
aI871
aI912
aI919
aI926
aI935
aI939
aI940
aI960
aI965
aI968
aI972
aI974
aI474
aI977
aI986
aI103
aI1013
aI1048
aI1049
aI1052
aI480
aI1087
aI1091
aI194
aI1120
aI1135
aI1138
aI1140
aI960
aI977
aI960
aI233
aI1154
aI1162
aI1184
aI940
aI1258
aI1312
aI141
aI1327
aI1328
aI1329
aI1330
aI1331
aI1356
aI1373
aI1382
aI1397
aI1399
aI1408
aI1154
aI1433
aI141
aI697
aI977
aI233
aI233
aI141
aI1052
aI1483
aI1487
aI1489
aI1500
aI1505
aI1510
aI1519
aI707
aI1545
aI1557
aI1558
aI372
aI1564
aI1579
aI1013
aI141
aI1154
aI1604
aI141
aI697
aI1627
aI1637
aI697
aI1640
aI141
aI1647
aI707
aI697
aI1660
aI141
aI1671
aI1676
aI1705
aI32
aI1718
aI141
aI1637
aI1757
aI1759
aI1765
aI940
aI1769
aI1770
aI220
aI1776
aI1327
aI1818
aI1824
aI1826
aI1832
aI724
aI1833
aI1836
aI1184
aI1844
aI1184
aI960
aI1184
aI1184
aI1859
aI1013
aI1891
aI1897
aI1671
aI1899
aI1901
aI141
aI1910
aI233
aI1013
aI1924
aI141
aI1184
aI1327
aI1951
aI1373
aI1974
aI1975
aI1397
aI1977
aI1985
aI1994
aI233
aI1162
aI960
aI2003
aI2011
aI2021
aI2022
aI1091
aI2032
aI194
aI2049
aI2051
aI2064
aI2080
aI2090
aI2091
aI2107
aI220
aI2114
aI233
aI841
aI2164
aI2169
aI2173
aI2175
aI2176
aI245
aI2180
aI2193
aI141
aI2204
aI2207
aI2210
aI2219
aI2221
aI2231
aI724
aI2240
aI1640
aI2256
aI821
aI2258
aI2259
aI2268
aI474
aI2281
aI2287
aI940
aI2293
aI2308
aI1489
aI2318
aI2319
aI2320
aI1154
aI2366
aI2368
aI1184
aI2370
aI2371
aI1759
aI1184
aI977
aI1759
aI2402
aI2405
aI1330
aI2433
aI871
aI1671
aI2221
aI2440
aI2442
aI1184
aI2474
aI2477
aI2318
aI1558
aI474
aI2485
aI2491
aI919
aI2485
aI1140
aI2507
aI1489
aI2524
aI2530
aI2535
aI2540
aI2542
aI2545
aI233
aI141
aI2551
aI2552
aI141
aI2557
aI940
aI2485
aI2572
aI2574
aI2591
aI2535
aI1327
aI2639
aI2645
aI349
aI2674
aI2557
aI1154
aI2683
aI1759
aI220
aI2689
aI2695
aI2711
aI1489
aI2718
aI294
aI2730
aI2308
aI697
aI2731
aI1759
aI141
aI2011
aI2737
aI2741
aI1974
aI2674
aI194
aI2750
aI2368
aI2370
aI2032
aI1951
aI2772
aI972
aI2777
aI141
aI2798
aI2800
aI2806
aI1184
aI2837
aI2838
aI2839
aI2841
aI2842
aI2846
aI2850
aI697
aI2866
aI2873
aI1330
aI2877
aI2878
aI2880
aI2881
aI2557
aI2886
aI1184
aI2898
aI2674
aI2923
aI2926
aI2934
aI2935
aI2939
aI2032
aI2957
aI2961
aI2967
aI2969
aI2971
aI2974
aI2975
aI141
aI2984
aI2988
aI2992
aI1759
aI3005
aI2898
aI3016
aI1818
aI2846
aI3027
aI3034
aI3041
aI3044
aI3056
aI3069
aI3070
aI245
aI2319
aI3080
aI919
aI1985
aI3138
aI3145
aI474
aI1091
aI2873
aI2032
aI141
aI2873
aI2842
aI2268
aI3183
aI3184
aI3194
aI3196
aI3202
aI986
aI349
aI3221
aI697
aI2535
aI3241
aI2221
aI3245
aI3145
aI3248
aI3249
aI3255
aI1974
aI3268
aI3277
aI3279
aI3290
aI3294
aI3304
aI3319
aI3321
aI3324
aI3327
aI2268
aI2204
aI3245
aI2839
aI3332
aI3337
aI3341
aI3351
aI3360
aI3371
aI3196
aI1408
aI3457
aI3461
aI3477
aI1759
aI940
aI3481
aI141
aI2939
aI919
aI1327
aI3515
aI2173
aI3360
aI3536
aI3540
aI3541
aI3542
aI1627
aI349
aI2173
aI3583
aI3294
aI3608
aI3542
aI3625
aI2842
aI1759
aI3540
aI3673
aI3679
aI3684
aI220
aI220
aI3698
aI3710
aI349
aI3722
aI762
aI724
aI3761
aI3762
aI3765
aI3766
aI3795
aI2221
aI3813
aI3255
aI1765
aI1985
aI673
aI3833
aI3360
aI2032
aI3722
aI3838
aI2003
aI3846
aI3873
aI3875
aI3889
aI762
aI3891
aI3294
aI2308
aI3913
aI3916
aI3919
aI3360
aI2204
aI141
aI2032
aI3956
aI3961
aI3963
aI3973
aI141
aI141
aI141
aI4000
aI4018
aI4022
aI1489
aI1489
aI1489
aI1489
aI1564
aI3795
aI4048
aI1489
aI4053
aI4056
aI2491
aI697
aI4078
aI3583
aI2507
aI3722
aI1052
aI4098
aI4106
aI4114
aI4117
aI349
aI4145
aI4147
aI4148
aI1757
aI1487
aI2971
aI1757
aI4162
aI4163
aI245
aI4171
aI1974
aI2806
aI3846
aI4196
aI4200
aI4201
aI4209
aI2268
aI4218
aI141
aI3145
aI2221
aI4163
aI141
aI349
aI3255
aI3956
aI1718
aI1627
aI2032
aI4262
aI4265
aI141
aI4280
aI1627
aI4300
aI2114
aI4301
aI4304
aI724
aI2535
aI3542
aI3069
aI4315
aI986
aI2639
aI4336
aI2535
aI1640
aI4362
asS'VBP'
p9
(lp10
I212
aI212
aI212
aI875
aI212
aI212
aI212
aI875
aI875
aI212
aI212
aI212
aI212
aI212
aI875
aI875
aI875
aI212
aI212
aI212
aI875
aI212
aI212
aI212
aI875
aI212
aI212
aI875
aI212
aI212
aI212
aI212
aI212
aI212
aI212
aI875
aI212
aI212
aI875
aI875
aI212
aI212
aI212
aI875
aI875
aI875
aI875
aI875
aI212
aI212
aI212
aI212
aI875
aI875
aI212
aI212
aI212
aI212
aI875
aI212
aI212
aI212
aI212
aI212
aI212
aI212
aI212
aI212
aI212
aI875
aI212
aI212
aI212
aI212
aI212
aI875
aI875
aI212
aI212
aI212
aI212
aI212
aI212
aI212
aI212
aI212
aI875
aI875
aI875
aI875
aI875
aI212
aI212
aI875
aI875
aI212
aI212
aI875
aI212
aI875
aI875
aI875
aI875
aI212
aI212
aI212
aI212
aI212
aI212
aI212
aI212
aI212
aI212
aI212
aI212
aI212
aI212
aI212
aI212
aI212
aI212
aI212
aI212
aI875
aI212
aI212
aI212
aI212
aI212
aI212
aI212
aI875
aI212
asS'WDT'
p11
(lp12
I246
aI246
aI246
aI246
aI246
aI246
aI246
aI246
aI246
aI246
aI246
aI246
aI246
aI246
aI246
aI246
aI246
aI246
aI246
aI246
aI246
aI246
aI246
aI246
aI246
aI246
aI246
aI246
aI246
aI246
aI246
aI246
aI246
aI246
aI246
aI246
aI246
aI246
aI246
aI246
aI246
aI246
aI246
aI246
aI246
aI246
aI246
aI246
aI246
aI246
aI246
aI246
aI246
aI246
aI246
aI246
aI246
aI246
aI246
aI246
aI246
aI246
aI246
aI246
aI246
aI246
aI246
aI246
aI246
aI246
aI246
aI246
aI246
aI246
aI246
aI246
aI246
aI246
aI246
aI246
aI246
aI246
aI246
aI246
aI246
aI246
aI246
aI246
aI246
aI246
aI246
aI246
aI246
aI246
aI246
aI246
aI246
aI246
aI246
aI246
aI246
aI246
aI246
aI246
aI246
aI246
aI246
aI246
aI246
aI246
aI246
aI246
aI246
aI246
aI246
aI246
aI246
aI246
aI246
aI246
aI246
aI246
aI246
aI246
aI246
aI246
aI246
aI246
aI246
aI246
aI246
aI246
aI246
aI246
aI246
aI246
aI246
aI246
aI246
aI246
aI246
aI246
aI246
aI246
aI246
aI246
aI246
aI246
aI246
aI246
aI246
aI246
aI246
aI246
aI246
aI246
aI246
aI246
aI246
aI246
aI246
aI246
aI246
aI246
aI246
aI246
aI246
aI246
aI246
aI246
aI246
aI246
aI246
aI246
aI246
aI246
aI246
aI246
aI246
aI246
aI246
aI246
aI246
aI246
aI246
aI246
aI246
aI246
aI246
aI246
aI246
aI246
aI246
aI246
aI246
aI246
aI246
aI246
aI246
aI246
aI246
aI246
aI246
aI246
aI246
aI246
aI246
aI246
aI246
aI246
aI246
aI246
asS'JJ'
p13
(lp14
I29
aI35
aI53
aI29
aI80
aI100
aI29
aI124
aI134
aI134
aI142
aI53
aI167
aI191
aI195
aI198
aI202
aI211
aI218
aI222
aI195
aI228
aI237
aI241
aI256
aI270
aI277
aI300
aI309
aI313
aI124
aI331
aI336
aI358
aI191
aI365
aI370
aI373
aI377
aI384
aI399
aI401
aI404
aI414
aI416
aI422
aI198
aI198
aI448
aI241
aI467
aI468
aI422
aI467
aI218
aI336
aI496
aI195
aI53
aI222
aI270
aI546
aI550
aI560
aI546
aI195
aI589
aI602
aI606
aI621
aI468
aI641
aI655
aI662
aI685
aI142
aI416
aI422
aI705
aI124
aI195
aI29
aI195
aI723
aI53
aI468
aI134
aI401
aI749
aI195
aI758
aI760
aI767
aI606
aI606
aI29
aI793
aI799
aI802
aI804
aI810
aI813
aI134
aI815
aI195
aI29
aI825
aI825
aI685
aI864
aI662
aI401
aI134
aI195
aI884
aI897
aI124
aI29
aI29
aI29
aI401
aI621
aI468
aI384
aI228
aI416
aI989
aI228
aI621
aI995
aI365
aI1025
aI802
aI1027
aI1033
aI142
aI134
aI218
aI1041
aI1044
aI416
aI589
aI1065
aI1071
aI685
aI468
aI422
aI142
aI134
aI241
aI1118
aI422
aI1129
aI142
aI1139
aI1144
aI422
aI1147
aI1139
aI195
aI422
aI80
aI1156
aI989
aI1186
aI422
aI1187
aI560
aI191
aI1207
aI218
aI468
aI1235
aI468
aI1247
aI358
aI685
aI1280
aI1286
aI1287
aI468
aI1289
aI1297
aI1304
aI468
aI621
aI1320
aI989
aI468
aI195
aI416
aI29
aI134
aI1350
aI606
aI1351
aI29
aI29
aI29
aI195
aI198
aI80
aI401
aI1378
aI813
aI1384
aI1187
aI218
aI825
aI589
aI1430
aI416
aI124
aI1439
aI1139
aI1442
aI1447
aI1457
aI1462
aI124
aI1442
aI589
aI589
aI1439
aI80
aI589
aI621
aI241
aI29
aI1568
aI1286
aI989
aI1442
aI365
aI1597
aI256
aI989
aI1611
aI1613
aI685
aI1619
aI1636
aI142
aI142
aI1652
aI589
aI1654
aI641
aI218
aI124
aI195
aI1187
aI468
aI1430
aI195
aI218
aI1673
aI1350
aI1678
aI1690
aI195
aI1704
aI1711
aI142
aI1071
aI1187
aI1118
aI1730
aI416
aI401
aI358
aI142
aI1704
aI1762
aI134
aI256
aI1704
aI1783
aI1790
aI1027
aI365
aI1442
aI1804
aI228
aI124
aI401
aI29
aI336
aI468
aI401
aI29
aI589
aI1827
aI29
aI1447
aI468
aI1041
aI560
aI195
aI1848
aI606
aI1783
aI468
aI1876
aI358
aI358
aI1041
aI1903
aI1907
aI621
aI195
aI825
aI1139
aI989
aI401
aI195
aI422
aI1928
aI1929
aI1139
aI191
aI1762
aI1762
aI195
aI1139
aI401
aI560
aI142
aI134
aI825
aI80
aI29
aI256
aI589
aI1961
aI621
aI1970
aI815
aI1139
aI989
aI124
aI705
aI29
aI825
aI401
aI2002
aI195
aI2004
aI468
aI1041
aI1762
aI468
aI2020
aI358
aI80
aI1139
aI2040
aI468
aI1187
aI142
aI256
aI142
aI134
aI134
aI142
aI1071
aI1118
aI142
aI124
aI468
aI723
aI1442
aI723
aI336
aI589
aI195
aI1907
aI802
aI2136
aI1783
aI2141
aI195
aI1961
aI2157
aI1139
aI468
aI195
aI404
aI401
aI2179
aI758
aI2188
aI685
aI2196
aI100
aI1439
aI468
aI218
aI1907
aI191
aI1118
aI621
aI589
aI621
aI2215
aI2217
aI401
aI228
aI1187
aI1118
aI1139
aI2234
aI2235
aI29
aI228
aI468
aI705
aI29
aI124
aI468
aI813
aI124
aI134
aI1929
aI589
aI589
aI2294
aI2302
aI723
aI416
aI416
aI416
aI825
aI401
aI195
aI142
aI589
aI195
aI825
aI2322
aI2332
aI195
aI1384
aI1462
aI2361
aI401
aI422
aI422
aI468
aI621
aI134
aI685
aI2385
aI2396
aI2403
aI1442
aI2408
aI546
aI1350
aI124
aI1247
aI685
aI142
aI1961
aI468
aI589
aI124
aI29
aI134
aI468
aI218
aI760
aI560
aI53
aI2479
aI1139
aI468
aI2484
aI641
aI401
aI589
aI401
aI2484
aI401
aI134
aI1139
aI468
aI2504
aI29
aI802
aI401
aI29
aI53
aI989
aI195
aI401
aI142
aI256
aI134
aI134
aI53
aI606
aI2532
aI1139
aI825
aI2537
aI621
aI802
aI401
aI29
aI142
aI134
aI401
aI2564
aI2567
aI313
aI358
aI621
aI1928
aI2588
aI749
aI813
aI1139
aI29
aI2620
aI2002
aI401
aI401
aI2627
aI468
aI1928
aI2630
aI228
aI1187
aI358
aI2661
aI1187
aI401
aI2670
aI2675
aI2678
aI228
aI2675
aI2688
aI29
aI1207
aI1187
aI401
aI401
aI401
aI358
aI401
aI2748
aI2136
aI825
aI621
aI1928
aI29
aI2302
aI1928
aI1187
aI1804
aI124
aI989
aI1704
aI134
aI2797
aI401
aI2396
aI2809
aI2810
aI2812
aI228
aI758
aI124
aI1144
aI211
aI989
aI2834
aI414
aI401
aI1041
aI134
aI1041
aI825
aI1041
aI468
aI825
aI1457
aI989
aI1139
aI416
aI1187
aI467
aI2887
aI2887
aI2888
aI546
aI1041
aI546
aI2887
aI468
aI825
aI2899
aI1118
aI621
aI825
aI1041
aI1041
aI1041
aI1187
aI1041
aI2564
aI989
aI589
aI211
aI2937
aI211
aI2948
aI2950
aI2953
aI1462
aI336
aI685
aI1462
aI1187
aI228
aI2962
aI2964
aI2973
aI1961
aI802
aI401
aI825
aI2977
aI825
aI2979
aI815
aI2986
aI134
aI813
aI2994
aI124
aI1907
aI1928
aI802
aI3010
aI3011
aI1280
aI3018
aI3021
aI29
aI825
aI1286
aI3045
aI989
aI195
aI621
aI1928
aI29
aI989
aI3086
aI758
aI1462
aI195
aI685
aI1139
aI3105
aI3108
aI3112
aI1041
aI401
aI825
aI401
aI401
aI3130
aI1673
aI401
aI468
aI815
aI2567
aI2179
aI989
aI142
aI142
aI142
aI3179
aI142
aI655
aI422
aI3193
aI401
aI422
aI760
aI2302
aI1711
aI416
aI3208
aI416
aI416
aI3224
aI589
aI3225
aI3226
aI195
aI662
aI2484
aI80
aI401
aI142
aI142
aI134
aI134
aI53
aI3267
aI53
aI142
aI3278
aI802
aI468
aI468
aI468
aI2332
aI3299
aI228
aI142
aI2748
aI3312
aI655
aI2484
aI1247
aI468
aI468
aI1187
aI1247
aI358
aI1673
aI2627
aI468
aI3350
aI3353
aI662
aI655
aI723
aI1041
aI2196
aI1071
aI365
aI100
aI3377
aI989
aI989
aI195
aI825
aI358
aI370
aI813
aI3402
aI377
aI2834
aI256
aI468
aI228
aI358
aI468
aI100
aI468
aI195
aI365
aI1118
aI2004
aI655
aI1186
aI1247
aI2484
aI422
aI422
aI2748
aI1804
aI2196
aI2834
aI468
aI468
aI3559
aI1186
aI256
aI256
aI468
aI422
aI758
aI2948
aI468
aI142
aI29
aI1929
aI1929
aI1929
aI1597
aI3618
aI2537
aI655
aI655
aI3627
aI655
aI124
aI422
aI228
aI3559
aI3648
aI3664
aI228
aI1186
aI3670
aI228
aI3672
aI124
aI3680
aI468
aI2748
aI589
aI589
aI989
aI468
aI468
aI1442
aI3208
aI2748
aI813
aI228
aI1139
aI3720
aI3721
aI802
aI3731
aI1929
aI1439
aI989
aI365
aI1071
aI655
aI422
aI191
aI191
aI3779
aI211
aI191
aI621
aI1673
aI3108
aI3821
aI3825
aI2141
aI1235
aI1804
aI1186
aI256
aI468
aI3837
aI1929
aI2797
aI989
aI3855
aI3862
aI3866
aI401
aI3872
aI191
aI3664
aI1287
aI2797
aI1247
aI53
aI401
aI270
aI313
aI723
aI191
aI3018
aI1247
aI195
aI1928
aI3837
aI195
aI621
aI3925
aI468
aI195
aI655
aI468
aI422
aI3664
aI3948
aI2748
aI2748
aI1442
aI3962
aI3968
aI3970
aI29
aI228
aI621
aI3984
aI641
aI723
aI723
aI370
aI2748
aI256
aI723
aI1247
aI195
aI195
aI655
aI1247
aI1247
aI29
aI4034
aI4036
aI358
aI685
aI29
aI416
aI4049
aI825
aI468
aI29
aI416
aI468
aI416
aI1439
aI758
aI758
aI1186
aI4069
aI468
aI365
aI142
aI1704
aI134
aI142
aI1439
aI1442
aI142
aI134
aI4090
aI416
aI4091
aI749
aI1929
aI416
aI4094
aI606
aI758
aI468
aI2887
aI815
aI4119
aI468
aI401
aI621
aI414
aI416
aI4135
aI723
aI4141
aI124
aI365
aI365
aI2564
aI29
aI29
aI1186
aI4094
aI195
aI256
aI3664
aI4173
aI228
aI4177
aI468
aI1186
aI416
aI1929
aI53
aI4094
aI3267
aI80
aI422
aI606
aI1704
aI1187
aI589
aI589
aI468
aI191
aI416
aI416
aI416
aI80
aI1762
aI1462
aI1929
aI4221
aI749
aI195
aI468
aI1762
aI195
aI1186
aI4233
aI195
aI4240
aI416
aI4250
aI4253
aI191
aI422
aI815
aI1929
aI53
aI1187
aI3731
aI401
aI468
aI1071
aI401
aI124
aI705
aI1186
aI4269
aI211
aI401
aI401
aI589
aI142
aI1762
aI80
aI358
aI377
aI191
aI4269
aI2887
aI1118
aI1187
aI4295
aI29
aI124
aI124
aI2196
aI191
aI1186
aI655
aI655
aI4305
aI723
aI989
aI1280
aI4312
aI4094
aI641
aI3312
aI191
aI4329
aI4337
aI401
aI29
aI29
aI468
aI4345
aI80
aI365
aI422
aI422
aI4349
aI1929
aI4094
aI4360
aI468
aI422
aI4094
aI29
aI4370
aI468
aI1139
asS'WP'
p15
(lp16
I176
aI238
aI238
aI238
aI176
aI176
aI238
aI176
aI521
aI521
aI176
aI176
aI176
aI176
aI176
aI238
aI238
aI238
aI176
aI521
aI521
aI238
aI176
aI238
aI1344
aI238
aI238
aI238
aI176
aI238
aI238
aI521
aI238
aI176
aI176
aI521
aI238
aI238
aI238
aI238
aI238
aI238
aI238
aI176
aI238
aI238
aI238
aI238
aI238
aI238
aI238
aI238
aI238
aI238
aI238
aI238
aI176
aI238
aI238
aI521
aI521
aI238
aI2316
aI176
aI238
aI238
aI238
aI238
aI238
aI238
aI238
aI2316
aI238
aI2316
aI238
aI238
aI521
aI238
aI176
aI238
aI238
aI238
aI238
aI238
aI238
aI238
aI238
aI176
aI176
aI521
aI238
aI238
aI238
aI238
aI238
aI238
aI176
aI176
aI521
aI238
aI176
aI176
aI238
aI238
aI238
aI176
aI521
aI238
aI238
aI176
aI238
aI238
aI176
aI521
aI521
aI521
aI238
aI238
aI238
aI176
aI238
aI238
aI238
aI238
aI176
aI521
aI238
aI521
aI238
aI238
aI238
aI238
aI238
aI521
aI521
aI238
aI521
aI521
aI521
aI238
aI238
aI521
aI238
aI176
aI521
aI238
aI521
aI238
aI521
aI521
aI521
aI238
aI521
asS'VBZ'
p17
(lp18
I156
aI156
aI156
aI208
aI156
aI156
aI156
aI156
aI579
aI156
aI657
aI579
aI156
aI733
aI156
aI208
aI156
aI156
aI156
aI156
aI156
aI156
aI156
aI156
aI156
aI156
aI1042
aI156
aI156
aI156
aI156
aI156
aI156
aI156
aI579
aI156
aI156
aI1394
aI156
aI156
aI156
aI1504
aI156
aI156
aI156
aI156
aI156
aI156
aI156
aI156
aI208
aI156
aI156
aI156
aI156
aI1042
aI156
aI156
aI156
aI1779
aI156
aI156
aI156
aI156
aI156
aI156
aI156
aI156
aI156
aI156
aI156
aI156
aI156
aI156
aI156
aI156
aI1042
aI156
aI156
aI156
aI156
aI156
aI156
aI156
aI156
aI156
aI156
aI156
aI156
aI156
aI156
aI156
aI1504
aI156
aI156
aI156
aI1042
aI657
aI156
aI657
aI208
aI156
aI156
aI156
aI2253
aI156
aI156
aI156
aI156
aI733
aI156
aI156
aI156
aI156
aI208
aI208
aI156
aI156
aI156
aI156
aI156
aI2457
aI2467
aI156
aI156
aI156
aI208
aI1042
aI156
aI156
aI156
aI156
aI2253
aI156
aI156
aI156
aI156
aI156
aI2467
aI657
aI156
aI156
aI156
aI156
aI156
aI156
aI1504
aI156
aI156
aI156
aI156
aI156
aI156
aI156
aI1504
aI156
aI156
aI156
aI156
aI156
aI156
aI156
aI1042
aI208
aI156
aI156
aI156
aI156
aI156
aI156
aI156
aI156
aI156
aI156
aI156
aI156
aI156
aI156
aI1504
aI156
aI156
aI156
aI156
aI1042
aI156
aI1042
aI657
aI156
aI156
aI156
aI156
aI156
aI156
aI156
aI156
aI156
aI156
aI156
aI156
aI156
aI156
aI156
aI156
aI156
aI156
aI156
aI156
aI156
aI156
aI156
aI156
aI156
aI156
aI156
aI156
aI1042
aI156
aI156
aI156
aI156
aI156
aI156
aI156
aI156
aI1042
aI156
aI2467
aI156
aI156
aI1504
aI1504
aI156
aI156
aI156
aI156
aI156
aI156
aI156
aI156
aI156
aI156
aI156
aI156
aI156
aI156
aI156
aI156
aI156
aI208
aI156
aI156
aI156
aI2253
aI156
aI2253
aI156
aI156
aI156
aI156
aI156
aI156
aI156
aI1042
aI156
aI156
aI156
aI156
aI156
aI156
aI2253
aI156
aI156
aI156
aI156
aI156
aI156
aI156
aI156
aI156
aI1042
aI156
aI156
aI156
aI156
aI156
aI156
aI156
aI156
aI156
aI156
aI156
aI156
aI156
aI156
aI156
aI156
aI156
aI156
aI156
aI156
aI156
aI156
aI156
aI2467
aI156
aI156
aI156
aI156
aI156
aI156
aI156
aI156
aI156
aI156
aI156
aI156
aI156
aI2457
aI4292
aI156
aI1042
aI4292
aI156
aI2467
aI2467
aI156
aI4372
asS'DT'
p19
(lp20
I19
aI45
aI19
aI19
aI73
aI19
aI19
aI19
aI45
aI106
aI19
aI106
aI119
aI73
aI19
aI154
aI19
aI162
aI19
aI19
aI19
aI19
aI73
aI213
aI19
aI45
aI213
aI254
aI19
aI19
aI19
aI254
aI45
aI289
aI162
aI162
aI19
aI213
aI154
aI317
aI19
aI19
aI340
aI19
aI19
aI19
aI154
aI45
aI19
aI19
aI154
aI340
aI340
aI106
aI73
aI45
aI45
aI19
aI19
aI289
aI254
aI19
aI119
aI19
aI119
aI19
aI19
aI289
aI470
aI154
aI73
aI19
aI106
aI19
aI213
aI19
aI19
aI19
aI19
aI106
aI19
aI106
aI19
aI19
aI289
aI73
aI162
aI289
aI45
aI19
aI45
aI19
aI340
aI73
aI254
aI45
aI73
aI19
aI19
aI73
aI19
aI106
aI45
aI73
aI19
aI19
aI73
aI715
aI45
aI19
aI106
aI73
aI19
aI45
aI119
aI162
aI45
aI19
aI45
aI106
aI19
aI254
aI73
aI73
aI19
aI19
aI19
aI19
aI19
aI106
aI19
aI289
aI45
aI19
aI45
aI119
aI19
aI106
aI45
aI45
aI45
aI254
aI45
aI106
aI73
aI470
aI213
aI106
aI19
aI19
aI119
aI162
aI19
aI19
aI19
aI19
aI19
aI19
aI73
aI19
aI213
aI19
aI19
aI45
aI19
aI45
aI19
aI19
aI106
aI73
aI162
aI106
aI19
aI45
aI45
aI19
aI45
aI289
aI19
aI1054
aI340
aI19
aI19
aI19
aI19
aI19
aI19
aI106
aI73
aI1095
aI19
aI19
aI45
aI19
aI119
aI45
aI19
aI19
aI106
aI106
aI106
aI213
aI106
aI45
aI19
aI19
aI19
aI106
aI106
aI19
aI106
aI106
aI1095
aI19
aI19
aI254
aI19
aI73
aI73
aI73
aI45
aI45
aI19
aI19
aI19
aI19
aI73
aI106
aI19
aI289
aI73
aI19
aI45
aI19
aI19
aI45
aI289
aI19
aI19
aI19
aI19
aI213
aI106
aI289
aI1264
aI73
aI106
aI45
aI119
aI213
aI45
aI45
aI106
aI106
aI106
aI1095
aI470
aI73
aI73
aI106
aI45
aI73
aI254
aI19
aI19
aI213
aI1095
aI19
aI19
aI19
aI106
aI73
aI73
aI45
aI19
aI106
aI106
aI289
aI73
aI106
aI106
aI45
aI106
aI213
aI45
aI45
aI106
aI45
aI1264
aI340
aI1264
aI73
aI1264
aI19
aI19
aI106
aI19
aI19
aI106
aI19
aI289
aI19
aI1264
aI19
aI1054
aI19
aI1264
aI19
aI19
aI1095
aI1095
aI213
aI289
aI73
aI45
aI19
aI19
aI45
aI19
aI73
aI19
aI106
aI45
aI19
aI19
aI45
aI19
aI340
aI45
aI19
aI154
aI45
aI1528
aI340
aI254
aI19
aI470
aI19
aI45
aI19
aI19
aI73
aI19
aI19
aI289
aI19
aI19
aI19
aI19
aI162
aI19
aI45
aI73
aI19
aI289
aI19
aI289
aI289
aI289
aI19
aI254
aI19
aI19
aI19
aI19
aI19
aI19
aI162
aI254
aI254
aI254
aI19
aI106
aI19
aI19
aI19
aI19
aI254
aI162
aI106
aI19
aI45
aI19
aI19
aI19
aI19
aI73
aI1095
aI19
aI19
aI106
aI19
aI19
aI73
aI19
aI73
aI45
aI19
aI19
aI73
aI19
aI19
aI19
aI19
aI106
aI289
aI19
aI19
aI19
aI45
aI213
aI45
aI289
aI470
aI340
aI45
aI19
aI45
aI19
aI162
aI19
aI73
aI19
aI19
aI19
aI19
aI340
aI106
aI19
aI19
aI19
aI19
aI19
aI19
aI289
aI19
aI106
aI106
aI254
aI106
aI106
aI289
aI73
aI289
aI289
aI289
aI106
aI106
aI213
aI106
aI19
aI45
aI1095
aI19
aI19
aI19
aI19
aI19
aI19
aI45
aI73
aI45
aI73
aI45
aI289
aI19
aI73
aI1095
aI106
aI45
aI1095
aI1095
aI106
aI289
aI1095
aI19
aI1095
aI45
aI19
aI19
aI19
aI45
aI154
aI213
aI106
aI1941
aI289
aI289
aI45
aI19
aI213
aI19
aI19
aI106
aI213
aI73
aI19
aI19
aI19
aI73
aI19
aI19
aI19
aI45
aI19
aI19
aI45
aI19
aI1528
aI73
aI162
aI289
aI19
aI19
aI73
aI73
aI19
aI73
aI19
aI19
aI162
aI73
aI289
aI19
aI213
aI19
aI19
aI19
aI106
aI19
aI19
aI19
aI73
aI106
aI162
aI73
aI73
aI19
aI19
aI19
aI19
aI19
aI45
aI19
aI19
aI73
aI73
aI19
aI19
aI45
aI119
aI19
aI19
aI106
aI45
aI289
aI106
aI106
aI19
aI19
aI106
aI45
aI254
aI106
aI19
aI1095
aI73
aI73
aI19
aI1095
aI213
aI45
aI1095
aI254
aI19
aI19
aI45
aI19
aI106
aI106
aI119
aI45
aI19
aI289
aI45
aI106
aI19
aI19
aI19
aI19
aI45
aI73
aI19
aI340
aI19
aI106
aI45
aI19
aI73
aI19
aI106
aI19
aI19
aI254
aI45
aI19
aI162
aI289
aI45
aI45
aI73
aI45
aI1264
aI73
aI19
aI162
aI45
aI254
aI45
aI19
aI106
aI254
aI19
aI19
aI19
aI106
aI19
aI19
aI45
aI715
aI289
aI470
aI19
aI106
aI73
aI19
aI45
aI289
aI45
aI19
aI45
aI45
aI73
aI106
aI19
aI106
aI162
aI289
aI45
aI289
aI19
aI19
aI119
aI73
aI45
aI19
aI45
aI45
aI45
aI19
aI19
aI162
aI162
aI162
aI162
aI162
aI162
aI162
aI254
aI19
aI45
aI1095
aI1095
aI106
aI106
aI73
aI73
aI106
aI289
aI19
aI19
aI45
aI45
aI289
aI45
aI289
aI19
aI19
aI19
aI19
aI19
aI19
aI19
aI19
aI45
aI19
aI19
aI45
aI119
aI213
aI45
aI254
aI106
aI73
aI19
aI162
aI162
aI162
aI1264
aI45
aI19
aI19
aI213
aI19
aI45
aI106
aI19
aI45
aI19
aI19
aI73
aI19
aI19
aI19
aI73
aI19
aI45
aI19
aI19
aI106
aI254
aI45
aI19
aI19
aI470
aI19
aI19
aI19
aI213
aI106
aI1095
aI106
aI162
aI19
aI1264
aI470
aI45
aI470
aI1264
aI289
aI289
aI289
aI45
aI19
aI254
aI19
aI19
aI19
aI19
aI254
aI45
aI106
aI19
aI289
aI45
aI19
aI289
aI19
aI19
aI45
aI289
aI73
aI119
aI106
aI45
aI106
aI73
aI19
aI19
aI19
aI45
aI106
aI106
aI73
aI1095
aI19
aI19
aI19
aI45
aI19
aI19
aI73
aI19
aI73
aI73
aI19
aI19
aI340
aI289
aI19
aI19
aI19
aI19
aI106
aI106
aI106
aI73
aI106
aI19
aI45
aI106
aI154
aI1095
aI289
aI106
aI119
aI45
aI19
aI19
aI45
aI19
aI45
aI289
aI19
aI106
aI106
aI19
aI106
aI19
aI289
aI289
aI19
aI19
aI19
aI19
aI19
aI19
aI19
aI73
aI19
aI73
aI45
aI254
aI19
aI19
aI19
aI213
aI213
aI289
aI19
aI19
aI19
aI19
aI45
aI19
aI19
aI119
aI289
aI254
aI19
aI19
aI73
aI289
aI106
aI106
aI19
aI106
aI1264
aI19
aI19
aI45
aI19
aI45
aI19
aI73
aI19
aI45
aI289
aI45
aI19
aI45
aI19
aI289
aI73
aI106
aI106
aI19
aI340
aI213
aI119
aI289
aI45
aI1264
aI19
aI19
aI73
aI73
aI19
aI289
aI19
aI106
aI19
aI73
aI19
aI19
aI106
aI289
aI289
aI45
aI19
aI45
aI340
aI19
aI289
aI289
aI289
aI45
aI254
aI19
aI213
aI19
aI19
aI213
aI73
aI45
aI289
aI289
aI45
aI19
aI45
aI45
aI45
aI45
aI19
aI73
aI106
aI73
aI19
aI19
aI289
aI162
aI19
aI45
aI45
aI19
aI470
aI213
aI19
aI162
aI19
aI45
aI1941
aI73
aI19
aI19
aI19
aI19
aI19
aI213
aI254
aI106
aI45
aI106
aI19
aI106
aI45
aI1264
aI19
aI289
aI106
aI19
aI289
aI289
aI106
aI19
aI45
aI19
aI45
aI19
aI19
aI106
aI19
aI19
aI45
aI19
aI73
aI73
aI45
aI73
aI162
aI19
aI19
aI1264
aI19
aI19
aI289
aI73
aI45
aI470
aI45
aI19
aI213
aI213
aI45
aI106
aI19
aI19
aI45
aI19
aI45
aI19
aI45
aI340
aI1264
aI1264
aI1941
aI73
aI213
aI19
aI119
aI45
aI19
aI1095
aI45
aI73
aI73
aI289
aI289
aI45
aI19
aI19
aI19
aI19
aI289
aI19
aI289
aI106
aI289
aI19
aI106
aI19
aI213
aI73
aI19
aI19
aI73
aI19
aI106
aI19
aI289
aI73
aI289
aI106
aI106
aI19
aI45
aI19
aI73
aI45
aI45
aI73
aI45
aI45
aI45
aI19
aI19
aI45
aI19
aI289
aI19
aI19
aI19
aI45
aI45
aI73
aI45
aI73
aI213
aI19
aI213
aI19
aI19
aI19
aI19
aI1264
aI162
aI19
aI19
aI289
aI1264
aI19
aI106
aI19
aI19
aI19
aI213
aI45
aI106
aI73
aI162
aI19
aI19
aI19
aI19
aI19
aI19
aI19
aI19
aI1264
aI19
aI19
aI19
aI19
aI19
aI19
aI106
aI289
aI19
aI19
aI19
aI19
aI213
aI19
aI19
aI19
aI19
aI19
aI19
aI19
aI106
aI73
aI19
aI1264
aI19
aI19
aI45
aI45
aI73
aI106
aI106
aI19
aI106
aI254
aI106
aI289
aI45
aI106
aI45
aI19
aI19
aI19
aI19
aI19
aI19
aI45
aI213
aI19
aI19
aI106
aI19
aI213
aI213
aI19
aI1264
aI73
aI106
aI1264
aI213
aI19
aI254
aI213
aI19
aI19
aI73
aI19
aI19
aI19
aI19
aI19
aI470
aI45
aI19
aI19
aI19
aI19
aI45
aI19
aI19
aI106
aI19
aI19
aI106
aI19
aI106
aI289
aI45
aI19
aI19
aI19
aI254
aI19
aI1528
aI45
aI19
aI19
aI1264
aI154
aI73
aI162
aI119
aI19
aI19
aI45
aI106
aI19
aI19
aI106
aI19
aI340
aI19
aI19
aI19
aI45
aI19
aI106
aI73
aI45
aI106
aI73
aI289
aI19
aI45
aI19
aI106
aI45
aI19
aI19
aI19
aI19
aI19
aI19
aI19
aI254
aI19
aI106
aI19
aI470
aI470
aI73
aI289
aI73
aI19
aI19
aI19
aI213
aI19
aI19
aI45
aI289
aI19
aI19
aI19
aI19
aI19
aI19
aI19
aI106
aI19
aI73
aI19
aI106
aI19
aI19
aI106
aI45
aI340
aI213
aI106
aI106
aI45
aI19
aI106
aI19
aI19
aI19
aI1095
aI19
aI19
aI1095
aI106
aI45
aI19
aI106
aI19
aI19
aI19
aI19
aI106
aI106
aI73
aI19
aI106
aI154
aI73
aI1264
aI45
aI154
aI19
aI45
aI162
aI45
aI73
aI19
aI19
aI289
aI19
aI19
aI19
aI289
aI73
aI106
aI106
aI1095
aI106
aI289
aI106
aI162
aI45
aI213
aI73
aI45
aI289
aI470
aI19
aI19
aI45
aI470
aI162
aI19
aI19
aI106
aI19
aI19
aI106
aI19
aI106
aI254
aI45
aI45
aI289
aI19
aI254
aI340
aI119
aI19
aI45
aI19
aI340
aI254
aI19
aI119
aI19
aI45
aI106
aI45
aI19
aI19
aI106
aI19
aI19
aI106
aI1264
aI73
aI106
aI715
aI45
aI213
aI19
aI73
aI19
aI289
aI19
aI19
aI19
aI254
aI19
aI19
aI19
aI19
aI73
aI106
aI106
aI1264
aI1264
aI19
aI213
aI19
aI19
aI19
aI19
aI19
aI106
aI19
aI19
aI19
aI19
aI45
aI19
aI19
aI106
aI19
aI19
aI162
aI19
aI1264
aI19
aI19
aI19
aI45
aI289
aI106
aI19
aI106
aI45
aI19
aI289
aI19
aI19
aI119
aI73
aI19
aI19
aI106
aI45
aI45
aI289
aI19
aI19
aI154
aI19
aI19
aI19
aI19
aI106
aI19
aI45
aI106
aI45
aI106
aI45
aI19
aI45
aI45
aI1264
aI73
aI289
aI45
aI1095
aI106
aI106
aI106
aI45
aI19
aI715
aI470
aI45
aI19
aI19
aI19
aI154
aI715
aI254
aI19
aI19
aI213
aI106
aI19
aI19
aI73
aI19
aI19
aI19
aI19
aI19
aI19
aI340
aI19
aI19
aI19
aI19
aI19
aI19
aI73
aI340
aI19
aI19
aI19
aI19
aI1095
aI106
aI19
aI106
aI45
aI19
aI106
aI73
aI106
aI106
aI45
aI45
aI45
aI106
aI19
aI19
aI19
aI470
aI289
aI19
aI19
aI340
aI213
aI106
aI73
aI45
aI45
aI45
aI19
aI162
aI19
aI106
aI19
aI19
aI19
aI45
aI73
aI73
aI19
aI106
aI154
aI19
aI19
aI19
aI19
aI19
aI19
aI73
aI106
aI19
aI19
aI19
aI106
aI19
aI19
aI254
aI19
aI19
aI19
aI45
aI106
aI106
aI19
aI19
aI19
aI19
aI45
aI106
aI19
aI19
aI19
aI19
aI106
aI19
aI19
aI45
aI19
aI45
aI73
aI289
aI19
aI19
aI106
aI19
aI19
aI19
aI19
aI19
aI19
aI45
aI45
aI106
aI19
aI45
aI213
aI213
aI19
aI19
aI45
aI340
aI19
aI19
aI19
aI19
aI106
aI106
aI106
aI45
aI213
aI45
aI19
aI119
aI19
aI19
aI19
aI19
aI19
aI45
aI19
aI19
aI19
aI19
aI73
aI19
aI19
aI19
aI73
aI106
aI119
aI19
aI289
aI19
aI19
aI19
aI289
aI73
aI106
aI106
aI213
aI19
aI1095
aI289
aI19
aI19
aI19
aI106
aI19
aI45
aI19
aI19
aI45
aI19
aI106
aI19
aI19
aI19
aI19
aI19
aI45
aI254
aI19
aI19
aI19
aI254
aI19
aI162
aI19
aI19
aI19
aI19
aI45
aI19
aI106
aI1264
asS'NN'
p21
(lp22
I1
aI2
aI5
aI7
aI11
aI14
aI15
aI18
aI22
aI24
aI25
aI26
aI28
aI30
aI33
aI34
aI37
aI38
aI39
aI40
aI42
aI44
aI47
aI49
aI50
aI39
aI51
aI39
aI49
aI39
aI52
aI54
aI56
aI33
aI57
aI58
aI59
aI62
aI39
aI63
aI64
aI30
aI68
aI69
aI70
aI26
aI72
aI76
aI77
aI78
aI79
aI54
aI81
aI82
aI39
aI83
aI86
aI88
aI11
aI39
aI90
aI91
aI95
aI96
aI97
aI39
aI98
aI99
aI102
aI105
aI39
aI111
aI39
aI112
aI113
aI90
aI30
aI115
aI116
aI117
aI118
aI121
aI11
aI39
aI115
aI126
aI127
aI128
aI130
aI131
aI33
aI133
aI137
aI138
aI30
aI139
aI105
aI56
aI33
aI143
aI145
aI33
aI146
aI147
aI39
aI149
aI33
aI150
aI151
aI152
aI39
aI153
aI155
aI150
aI15
aI157
aI33
aI159
aI161
aI163
aI76
aI164
aI165
aI33
aI166
aI128
aI170
aI39
aI171
aI173
aI174
aI177
aI178
aI179
aI78
aI152
aI180
aI39
aI56
aI33
aI181
aI183
aI187
aI188
aI30
aI33
aI15
aI39
aI33
aI78
aI197
aI30
aI7
aI199
aI33
aI165
aI201
aI203
aI11
aI39
aI49
aI39
aI205
aI206
aI207
aI209
aI210
aI215
aI216
aI33
aI165
aI78
aI221
aI121
aI33
aI165
aI223
aI224
aI225
aI138
aI49
aI39
aI230
aI232
aI165
aI49
aI50
aI39
aI49
aI39
aI33
aI78
aI234
aI33
aI225
aI236
aI78
aI239
aI105
aI39
aI242
aI243
aI247
aI249
aI250
aI252
aI206
aI253
aI255
aI259
aI260
aI206
aI262
aI263
aI15
aI265
aI269
aI111
aI273
aI275
aI276
aI105
aI278
aI279
aI280
aI152
aI282
aI283
aI284
aI285
aI105
aI286
aI11
aI288
aI291
aI269
aI50
aI297
aI299
aI301
aI302
aI304
aI33
aI263
aI39
aI78
aI307
aI33
aI112
aI308
aI50
aI112
aI11
aI310
aI311
aI121
aI312
aI314
aI78
aI316
aI49
aI39
aI320
aI56
aI33
aI320
aI49
aI39
aI78
aI30
aI324
aI325
aI33
aI327
aI177
aI329
aI78
aI128
aI56
aI33
aI25
aI30
aI333
aI334
aI335
aI337
aI338
aI253
aI341
aI342
aI345
aI346
aI347
aI206
aI348
aI352
aI354
aI355
aI188
aI356
aI357
aI105
aI360
aI361
aI362
aI364
aI366
aI367
aI368
aI369
aI188
aI374
aI375
aI153
aI376
aI378
aI39
aI379
aI49
aI39
aI33
aI380
aI33
aI383
aI386
aI33
aI387
aI388
aI386
aI389
aI389
aI391
aI394
aI33
aI33
aI395
aI396
aI30
aI397
aI394
aI400
aI402
aI30
aI403
aI78
aI406
aI24
aI325
aI33
aI409
aI410
aI50
aI411
aI412
aI161
aI127
aI417
aI419
aI423
aI424
aI425
aI426
aI427
aI78
aI253
aI430
aI431
aI432
aI433
aI49
aI39
aI434
aI33
aI7
aI435
aI187
aI436
aI33
aI437
aI438
aI439
aI78
aI440
aI76
aI441
aI442
aI39
aI76
aI278
aI444
aI78
aI155
aI33
aI442
aI449
aI450
aI451
aI199
aI206
aI76
aI453
aI153
aI76
aI307
aI456
aI76
aI457
aI68
aI11
aI459
aI460
aI462
aI465
aI117
aI465
aI471
aI33
aI472
aI117
aI473
aI56
aI49
aI39
aI56
aI33
aI427
aI33
aI475
aI476
aI395
aI478
aI33
aI479
aI56
aI33
aI481
aI482
aI33
aI49
aI39
aI484
aI485
aI2
aI487
aI39
aI159
aI449
aI488
aI489
aI490
aI39
aI488
aI491
aI465
aI250
aI493
aI479
aI494
aI495
aI39
aI426
aI49
aI39
aI465
aI49
aI78
aI78
aI30
aI105
aI500
aI33
aI501
aI502
aI187
aI33
aI501
aI503
aI33
aI30
aI504
aI33
aI147
aI506
aI357
aI33
aI30
aI507
aI508
aI33
aI1
aI105
aI509
aI510
aI511
aI143
aI188
aI514
aI76
aI518
aI519
aI520
aI457
aI234
aI522
aI524
aI525
aI526
aI78
aI153
aI530
aI531
aI325
aI33
aI532
aI533
aI534
aI78
aI7
aI536
aI537
aI325
aI33
aI15
aI539
aI137
aI489
aI540
aI541
aI368
aI542
aI181
aI543
aI544
aI545
aI489
aI547
aI489
aI553
aI554
aI555
aI556
aI280
aI561
aI563
aI564
aI565
aI489
aI105
aI39
aI15
aI33
aI569
aI573
aI501
aI7
aI574
aI576
aI577
aI207
aI578
aI78
aI542
aI316
aI465
aI49
aI491
aI49
aI585
aI586
aI456
aI590
aI50
aI591
aI592
aI105
aI593
aI14
aI595
aI49
aI24
aI155
aI50
aI598
aI50
aI511
aI599
aI600
aI128
aI603
aI170
aI368
aI304
aI605
aI143
aI334
aI607
aI465
aI609
aI478
aI491
aI380
aI611
aI613
aI614
aI489
aI616
aI489
aI619
aI620
aI151
aI622
aI151
aI627
aI628
aI489
aI629
aI630
aI631
aI634
aI489
aI635
aI636
aI637
aI489
aI638
aI30
aI56
aI639
aI489
aI642
aI105
aI644
aI645
aI646
aI33
aI520
aI49
aI39
aI647
aI489
aI78
aI648
aI649
aI11
aI650
aI456
aI39
aI652
aI489
aI654
aI656
aI659
aI660
aI661
aI663
aI664
aI665
aI666
aI1
aI669
aI489
aI670
aI671
aI674
aI675
aI275
aI676
aI677
aI22
aI679
aI542
aI680
aI681
aI682
aI683
aI345
aI357
aI511
aI687
aI15
aI688
aI540
aI357
aI368
aI488
aI465
aI15
aI391
aI690
aI489
aI375
aI691
aI692
aI15
aI693
aI694
aI391
aI511
aI49
aI695
aI696
aI699
aI700
aI701
aI703
aI329
aI24
aI704
aI706
aI708
aI159
aI433
aI433
aI711
aI712
aI577
aI128
aI713
aI99
aI714
aI49
aI49
aI49
aI717
aI50
aI718
aI15
aI720
aI173
aI634
aI726
aI433
aI105
aI728
aI489
aI730
aI732
aI188
aI736
aI188
aI740
aI644
aI607
aI743
aI423
aI746
aI747
aI15
aI127
aI696
aI368
aI280
aI78
aI751
aI489
aI752
aI56
aI33
aI755
aI757
aI648
aI457
aI591
aI280
aI634
aI253
aI763
aI764
aI128
aI128
aI768
aI210
aI770
aI771
aI263
aI39
aI772
aI33
aI128
aI773
aI775
aI33
aI777
aI327
aI500
aI33
aI15
aI778
aI78
aI433
aI781
aI33
aI782
aI15
aI784
aI50
aI785
aI786
aI787
aI788
aI789
aI791
aI613
aI147
aI792
aI794
aI795
aI33
aI797
aI798
aI15
aI427
aI33
aI800
aI801
aI76
aI803
aI78
aI805
aI489
aI82
aI128
aI806
aI39
aI807
aI491
aI746
aI30
aI808
aI768
aI39
aI812
aI11
aI39
aI15
aI39
aI720
aI465
aI302
aI210
aI150
aI817
aI818
aI819
aI820
aI33
aI444
aI822
aI250
aI817
aI823
aI488
aI28
aI253
aI830
aI831
aI835
aI836
aI33
aI843
aI844
aI845
aI78
aI847
aI234
aI848
aI78
aI850
aI207
aI851
aI652
aI397
aI78
aI112
aI121
aI806
aI39
aI465
aI39
aI126
aI854
aI720
aI105
aI121
aI206
aI52
aI49
aI634
aI856
aI206
aI128
aI128
aI751
aI96
aI857
aI859
aI786
aI860
aI861
aI862
aI865
aI867
aI868
aI869
aI728
aI465
aI491
aI128
aI465
aI28
aI127
aI180
aI868
aI869
aI764
aI873
aI874
aI851
aI115
aI489
aI489
aI876
aI152
aI648
aI33
aI357
aI545
aI489
aI577
aI78
aI878
aI327
aI489
aI153
aI78
aI879
aI206
aI105
aI822
aI880
aI881
aI30
aI206
aI882
aI39
aI56
aI33
aI883
aI489
aI885
aI465
aI491
aI78
aI49
aI489
aI887
aI489
aI822
aI39
aI888
aI889
aI891
aI892
aI26
aI893
aI126
aI822
aI39
aI894
aI30
aI895
aI33
aI661
aI896
aI898
aI899
aI900
aI432
aI607
aI901
aI652
aI789
aI822
aI42
aI903
aI904
aI905
aI432
aI489
aI906
aI806
aI907
aI908
aI511
aI909
aI910
aI806
aI126
aI806
aI126
aI911
aI913
aI491
aI882
aI916
aI917
aI153
aI465
aI918
aI457
aI740
aI920
aI457
aI465
aI921
aI639
aI922
aI491
aI923
aI924
aI806
aI388
aI457
aI927
aI457
aI253
aI126
aI822
aI929
aI155
aI11
aI39
aI98
aI931
aI247
aI932
aI56
aI933
aI934
aI717
aI927
aI197
aI937
aI938
aI30
aI457
aI30
aI450
aI39
aI718
aI126
aI861
aI942
aI882
aI78
aI943
aI255
aI944
aI56
aI945
aI946
aI822
aI808
aI948
aI949
aI96
aI603
aI951
aI953
aI628
aI489
aI954
aI603
aI489
aI389
aI955
aI128
aI253
aI958
aI959
aI961
aI7
aI962
aI963
aI964
aI966
aI967
aI971
aI603
aI973
aI975
aI976
aI465
aI489
aI489
aI979
aI465
aI980
aI981
aI983
aI457
aI984
aI39
aI985
aI987
aI489
aI78
aI923
aI299
aI983
aI988
aI126
aI923
aI983
aI299
aI992
aI909
aI30
aI683
aI993
aI489
aI994
aI490
aI996
aI39
aI999
aI1000
aI848
aI1001
aI128
aI1005
aI1007
aI50
aI39
aI1008
aI299
aI78
aI465
aI489
aI949
aI1009
aI489
aI426
aI508
aI33
aI341
aI299
aI848
aI1010
aI1011
aI489
aI1012
aI1014
aI609
aI341
aI1017
aI1020
aI1021
aI449
aI249
aI1022
aI489
aI78
aI362
aI1026
aI1030
aI1031
aI345
aI996
aI1034
aI1035
aI1036
aI39
aI540
aI1039
aI1040
aI150
aI540
aI449
aI540
aI368
aI338
aI49
aI78
aI1045
aI1046
aI489
aI976
aI1047
aI540
aI1050
aI1051
aI368
aI540
aI540
aI368
aI1053
aI1056
aI755
aI1058
aI1059
aI1012
aI78
aI1061
aI1012
aI489
aI28
aI56
aI33
aI1062
aI368
aI151
aI489
aI634
aI1063
aI945
aI165
aI540
aI489
aI1066
aI1067
aI33
aI1068
aI585
aI808
aI206
aI368
aI909
aI1073
aI1074
aI206
aI540
aI628
aI1076
aI679
aI1077
aI1078
aI489
aI1080
aI634
aI1081
aI1082
aI1083
aI1084
aI49
aI153
aI993
aI1088
aI1089
aI56
aI1089
aI1092
aI489
aI49
aI679
aI78
aI1096
aI489
aI1097
aI368
aI1099
aI1100
aI1101
aI869
aI1102
aI786
aI1103
aI1105
aI465
aI50
aI39
aI679
aI488
aI1107
aI489
aI490
aI921
aI50
aI543
aI288
aI1109
aI489
aI1110
aI489
aI652
aI1111
aI1112
aI489
aI68
aI577
aI609
aI440
aI1114
aI253
aI1115
aI489
aI540
aI1116
aI334
aI1117
aI1119
aI806
aI1121
aI441
aI345
aI1123
aI243
aI1124
aI1125
aI1127
aI489
aI547
aI151
aI1119
aI1119
aI1124
aI1130
aI1131
aI1132
aI314
aI489
aI1133
aI609
aI78
aI1096
aI489
aI456
aI462
aI39
aI489
aI806
aI465
aI490
aI489
aI1143
aI1145
aI253
aI126
aI1146
aI465
aI609
aI457
aI1149
aI1150
aI78
aI1151
aI206
aI465
aI79
aI56
aI33
aI1039
aI78
aI30
aI78
aI1034
aI489
aI489
aI444
aI33
aI368
aI1157
aI33
aI879
aI1158
aI327
aI70
aI1160
aI628
aI187
aI1161
aI39
aI524
aI15
aI1163
aI751
aI696
aI465
aI1165
aI320
aI675
aI490
aI1167
aI491
aI188
aI1169
aI854
aI1170
aI1172
aI465
aI1173
aI1174
aI1175
aI1178
aI426
aI1181
aI639
aI1182
aI1183
aI489
aI1185
aI253
aI1188
aI1190
aI1066
aI150
aI1193
aI1195
aI1196
aI1197
aI1198
aI1199
aI150
aI1200
aI1201
aI1203
aI1204
aI76
aI1205
aI1076
aI1206
aI1209
aI1210
aI861
aI82
aI1212
aI1213
aI126
aI1214
aI1215
aI457
aI1217
aI1218
aI1219
aI1220
aI465
aI1221
aI861
aI869
aI1222
aI76
aI368
aI1224
aI33
aI1225
aI1226
aI1227
aI1014
aI375
aI1228
aI1229
aI1230
aI1232
aI39
aI1233
aI1099
aI33
aI1217
aI150
aI630
aI1236
aI1237
aI1238
aI836
aI1076
aI1240
aI1242
aI1243
aI117
aI39
aI1244
aI489
aI1245
aI33
aI1246
aI1248
aI1249
aI243
aI1250
aI1251
aI465
aI39
aI1254
aI437
aI889
aI1257
aI444
aI33
aI1259
aI1261
aI861
aI860
aI1222
aI64
aI1266
aI1267
aI1268
aI489
aI751
aI1270
aI39
aI1272
aI39
aI49
aI39
aI39
aI1277
aI1278
aI489
aI1279
aI39
aI1281
aI39
aI1282
aI1283
aI39
aI1284
aI1285
aI49
aI479
aI465
aI391
aI489
aI1290
aI1292
aI50
aI1293
aI1295
aI1300
aI564
aI1302
aI39
aI1007
aI1303
aI286
aI1305
aI806
aI1306
aI1307
aI806
aI50
aI1308
aI206
aI78
aI1309
aI1310
aI489
aI117
aI78
aI1311
aI603
aI1314
aI951
aI33
aI1315
aI39
aI603
aI33
aI1317
aI78
aI465
aI489
aI1318
aI39
aI126
aI126
aI33
aI1307
aI611
aI1319
aI357
aI127
aI1303
aI1321
aI1322
aI1323
aI489
aI644
aI99
aI39
aI1324
aI923
aI1105
aI1173
aI105
aI1326
aI39
aI520
aI465
aI489
aI1323
aI489
aI297
aI206
aI1036
aI954
aI42
aI39
aI489
aI962
aI39
aI898
aI78
aI704
aI489
aI153
aI489
aI704
aI1332
aI1333
aI946
aI854
aI720
aI1335
aI778
aI165
aI33
aI1336
aI1337
aI50
aI30
aI856
aI1338
aI1339
aI1340
aI49
aI39
aI491
aI345
aI39
aI700
aI1342
aI1008
aI78
aI728
aI916
aI335
aI1345
aI165
aI49
aI39
aI33
aI99
aI854
aI1346
aI33
aI1347
aI1227
aI1278
aI78
aI648
aI1062
aI854
aI1352
aI115
aI30
aI126
aI1353
aI489
aI99
aI39
aI491
aI898
aI56
aI33
aI1278
aI49
aI126
aI115
aI126
aI78
aI115
aI489
aI126
aI1355
aI1315
aI465
aI609
aI489
aI1358
aI1359
aI33
aI78
aI426
aI33
aI646
aI1360
aI1361
aI491
aI50
aI1362
aI1363
aI39
aI465
aI15
aI1364
aI232
aI206
aI15
aI1293
aI1365
aI33
aI1300
aI578
aI206
aI1367
aI465
aI1368
aI33
aI33
aI444
aI507
aI465
aI508
aI33
aI465
aI465
aI1368
aI33
aI30
aI126
aI1369
aI465
aI33
aI465
aI1370
aI33
aI465
aI78
aI1371
aI489
aI1372
aI49
aI39
aI33
aI1374
aI49
aI39
aI1375
aI1376
aI1292
aI250
aI1377
aI39
aI489
aI1379
aI78
aI1308
aI33
aI1242
aI465
aI1381
aI1383
aI24
aI889
aI945
aI1387
aI1388
aI822
aI39
aI1391
aI489
aI39
aI105
aI39
aI56
aI33
aI1395
aI1396
aI56
aI33
aI250
aI56
aI33
aI380
aI817
aI1398
aI844
aI848
aI1400
aI1401
aI1402
aI33
aI1403
aI357
aI39
aI105
aI39
aI406
aI1405
aI78
aI1406
aI644
aI1407
aI1099
aI56
aI33
aI78
aI105
aI39
aI105
aI39
aI30
aI1242
aI444
aI33
aI489
aI487
aI78
aI457
aI465
aI1244
aI1415
aI1416
aI489
aI465
aI489
aI1418
aI33
aI465
aI165
aI33
aI216
aI206
aI1420
aI1420
aI1133
aI1423
aI806
aI1244
aI78
aI489
aI1244
aI1424
aI457
aI1133
aI1293
aI489
aI1250
aI1426
aI1420
aI489
aI1133
aI389
aI1428
aI50
aI126
aI1429
aI489
aI1034
aI368
aI78
aI153
aI1432
aI489
aI1434
aI28
aI28
aI1435
aI28
aI206
aI1036
aI33
aI299
aI155
aI155
aI1437
aI39
aI335
aI1438
aI39
aI368
aI775
aI39
aI126
aI489
aI368
aI329
aI78
aI775
aI1441
aI128
aI39
aI540
aI681
aI206
aI1035
aI1432
aI78
aI489
aI848
aI78
aI299
aI28
aI490
aI1444
aI297
aI1445
aI375
aI178
aI1446
aI1172
aI489
aI1448
aI681
aI165
aI33
aI1449
aI700
aI1451
aI1452
aI78
aI786
aI1453
aI1454
aI1455
aI1456
aI490
aI307
aI1096
aI490
aI489
aI490
aI437
aI56
aI33
aI1463
aI847
aI1464
aI786
aI1124
aI1362
aI577
aI1465
aI489
aI659
aI1119
aI1470
aI868
aI1352
aI1022
aI489
aI1472
aI78
aI2
aI490
aI1473
aI1474
aI1475
aI1476
aI1477
aI78
aI465
aI1478
aI26
aI433
aI1480
aI327
aI1484
aI1485
aI78
aI1475
aI1491
aI128
aI39
aI798
aI585
aI389
aI489
aI1492
aI1131
aI573
aI1493
aI987
aI489
aI391
aI361
aI822
aI253
aI126
aI345
aI39
aI333
aI1494
aI1495
aI345
aI1496
aI39
aI822
aI253
aI126
aI1497
aI1498
aI253
aI126
aI822
aI1150
aI165
aI33
aI918
aI206
aI822
aI1499
aI1501
aI472
aI1285
aI206
aI1502
aI1503
aI128
aI39
aI1506
aI1507
aI822
aI1509
aI1511
aI898
aI1512
aI609
aI1513
aI1514
aI898
aI713
aI39
aI1514
aI126
aI822
aI465
aI714
aI39
aI1497
aI1512
aI1516
aI822
aI253
aI126
aI1517
aI1518
aI206
aI153
aI253
aI126
aI1520
aI206
aI465
aI822
aI1522
aI206
aI253
aI1523
aI806
aI822
aI1525
aI1526
aI1512
aI253
aI126
aI15
aI898
aI1527
aI206
aI465
aI465
aI1523
aI39
aI1529
aI56
aI49
aI39
aI1530
aI225
aI1061
aI33
aI78
aI489
aI345
aI1523
aI39
aI1432
aI1307
aI1514
aI1512
aI822
aI375
aI489
aI489
aI1532
aI1533
aI1534
aI1535
aI681
aI121
aI905
aI1537
aI1538
aI33
aI1242
aI1324
aI1008
aI1542
aI126
aI1321
aI33
aI1292
aI1339
aI1543
aI278
aI56
aI1544
aI489
aI78
aI56
aI33
aI1546
aI489
aI56
aI33
aI882
aI1547
aI250
aI898
aI508
aI33
aI397
aI1548
aI432
aI489
aI1146
aI427
aI33
aI1549
aI609
aI1550
aI1551
aI644
aI15
aI15
aI963
aI78
aI489
aI138
aI1554
aI1555
aI457
aI465
aI39
aI236
aI1559
aI187
aI33
aI15
aI253
aI30
aI861
aI1561
aI652
aI465
aI1563
aI1566
aI489
aI15
aI1567
aI126
aI638
aI49
aI302
aI898
aI39
aI1569
aI910
aI444
aI33
aI1571
aI1572
aI489
aI465
aI375
aI1017
aI489
aI456
aI1573
aI1574
aI489
aI1576
aI1577
aI206
aI1578
aI39
aI1119
aI1581
aI1582
aI24
aI1585
aI1586
aI78
aI1587
aI1588
aI1589
aI1590
aI694
aI1203
aI1592
aI1594
aI1507
aI449
aI900
aI206
aI1594
aI389
aI1598
aI1242
aI1599
aI1416
aI465
aI1587
aI489
aI78
aI1600
aI1445
aI1549
aI1011
aI489
aI56
aI33
aI1601
aI1046
aI489
aI848
aI1581
aI1416
aI491
aI909
aI1603
aI1475
aI629
aI1590
aI489
aI489
aI1474
aI1587
aI1606
aI2
aI1607
aI465
aI1608
aI2
aI1609
aI1610
aI1444
aI1445
aI1612
aI1416
aI465
aI465
aI78
aI1182
aI78
aI1618
aI489
aI112
aI50
aI1278
aI1620
aI1214
aI397
aI1621
aI1622
aI924
aI1623
aI862
aI1624
aI1626
aI518
aI1621
aI99
aI1630
aI1631
aI1544
aI15
aI1203
aI206
aI1632
aI1633
aI1634
aI1635
aI961
aI1088
aI1639
aI993
aI953
aI1641
aI297
aI1642
aI1643
aI775
aI457
aI205
aI1036
aI706
aI1645
aI1646
aI1626
aI105
aI56
aI1649
aI1650
aI518
aI1653
aI57
aI1237
aI299
aI105
aI1036
aI206
aI206
aI531
aI450
aI898
aI945
aI822
aI478
aI478
aI909
aI105
aI206
aI491
aI206
aI644
aI52
aI50
aI1655
aI493
aI128
aI206
aI1656
aI50
aI1657
aI90
aI1267
aI1659
aI259
aI1662
aI1664
aI280
aI299
aI1665
aI771
aI1666
aI50
aI7
aI1266
aI50
aI357
aI644
aI720
aI771
aI1672
aI696
aI28
aI1209
aI15
aI1675
aI1677
aI1679
aI391
aI688
aI1681
aI249
aI1682
aI794
aI1470
aI1684
aI1685
aI1686
aI22
aI1688
aI329
aI1689
aI327
aI1691
aI115
aI1227
aI1606
aI177
aI649
aI76
aI680
aI1693
aI49
aI1694
aI848
aI252
aI1696
aI39
aI1697
aI465
aI50
aI1698
aI1699
aI1700
aI39
aI1703
aI1706
aI1707
aI33
aI1703
aI33
aI465
aI1708
aI1429
aI848
aI1709
aI39
aI1387
aI1706
aI1710
aI465
aI1712
aI1713
aI1714
aI1131
aI1715
aI1034
aI1717
aI465
aI1046
aI1542
aI269
aI507
aI862
aI1719
aI1720
aI280
aI1642
aI489
aI1721
aI2
aI199
aI15
aI489
aI1722
aI848
aI1214
aI1724
aI406
aI489
aI1009
aI539
aI1725
aI1188
aI489
aI954
aI1363
aI1361
aI1726
aI1096
aI1727
aI1728
aI1729
aI490
aI565
aI489
aI1009
aI1731
aI659
aI1096
aI681
aI1721
aI1131
aI465
aI1733
aI889
aI652
aI1721
aI805
aI1735
aI397
aI1736
aI490
aI489
aI1737
aI1130
aI243
aI302
aI1362
aI681
aI1738
aI1739
aI1740
aI1741
aI491
aI1388
aI1361
aI243
aI1742
aI1743
aI1744
aI1745
aI1746
aI1381
aI1748
aI1749
aI15
aI1750
aI49
aI1751
aI206
aI803
aI1752
aI1753
aI49
aI1754
aI1756
aI489
aI889
aI397
aI1371
aI207
aI457
aI1760
aI24
aI1345
aI127
aI911
aI153
aI1763
aI1688
aI491
aI861
aI973
aI746
aI197
aI299
aI1767
aI449
aI76
aI489
aI247
aI1768
aI1771
aI489
aI1537
aI491
aI115
aI1715
aI456
aI1778
aI307
aI1780
aI1012
aI1782
aI335
aI1784
aI1785
aI1786
aI1787
aI964
aI962
aI1789
aI532
aI206
aI15
aI357
aI1626
aI1791
aI206
aI15
aI82
aI11
aI644
aI210
aI1796
aI576
aI207
aI700
aI720
aI993
aI302
aI47
aI99
aI39
aI197
aI39
aI39
aI540
aI1798
aI2
aI33
aI165
aI345
aI1800
aI78
aI78
aI1801
aI33
aI1712
aI39
aI1802
aI1803
aI1806
aI39
aI1807
aI1088
aI465
aI39
aI491
aI1808
aI253
aI126
aI465
aI1809
aI976
aI206
aI465
aI126
aI1420
aI39
aI1810
aI259
aI1812
aI165
aI33
aI954
aI489
aI1725
aI78
aI253
aI126
aI1814
aI179
aI1815
aI898
aI1816
aI1817
aI1815
aI822
aI714
aI126
aI150
aI1130
aI644
aI450
aI1819
aI99
aI126
aI49
aI1820
aI489
aI49
aI152
aI1823
aI1825
aI639
aI489
aI179
aI126
aI1828
aI1829
aI49
aI115
aI489
aI49
aI49
aI78
aI39
aI105
aI188
aI1830
aI489
aI465
aI1831
aI302
aI577
aI82
aI147
aI1210
aI676
aI540
aI1834
aI1835
aI457
aI1837
aI1641
aI345
aI57
aI112
aI695
aI489
aI15
aI1840
aI47
aI1835
aI22
aI1842
aI433
aI1843
aI105
aI806
aI50
aI105
aI302
aI577
aI489
aI188
aI1845
aI1846
aI1847
aI489
aI553
aI607
aI361
aI1721
aI1850
aI1423
aI1713
aI1709
aI489
aI1715
aI1851
aI1852
aI1853
aI1854
aI1855
aI1856
aI520
aI1244
aI1244
aI520
aI679
aI1858
aI489
aI511
aI49
aI679
aI1860
aI1861
aI457
aI1862
aI465
aI15
aI1863
aI327
aI490
aI441
aI1455
aI1865
aI786
aI1677
aI1850
aI1866
aI1868
aI1131
aI1285
aI592
aI105
aI607
aI1869
aI1870
aI592
aI1664
aI1871
aI280
aI491
aI1872
aI1873
aI1874
aI1875
aI15
aI1879
aI1215
aI1881
aI1882
aI491
aI1117
aI1150
aI1544
aI577
aI1040
aI577
aI1451
aI1475
aI592
aI302
aI805
aI105
aI1883
aI1884
aI478
aI491
aI28
aI1209
aI465
aI1885
aI1886
aI489
aI327
aI1887
aI1888
aI1889
aI1567
aI545
aI1890
aI207
aI1892
aI1893
aI1895
aI1896
aI603
aI1665
aI703
aI656
aI1497
aI1904
aI910
aI1906
aI56
aI717
aI1908
aI1909
aI644
aI1911
aI889
aI1631
aI1912
aI489
aI465
aI489
aI7
aI1913
aI692
aI437
aI1914
aI945
aI495
aI1915
aI1852
aI1815
aI1916
aI49
aI1917
aI1649
aI1918
aI1830
aI835
aI329
aI1308
aI1574
aI105
aI1036
aI1920
aI234
aI1923
aI147
aI1925
aI457
aI96
aI1105
aI299
aI491
aI1845
aI1930
aI1649
aI105
aI1888
aI128
aI1933
aI82
aI329
aI1934
aI1935
aI1937
aI1497
aI341
aI433
aI1939
aI1940
aI11
aI746
aI1145
aI49
aI52
aI263
aI105
aI1942
aI520
aI234
aI206
aI1930
aI1944
aI105
aI56
aI299
aI1034
aI206
aI253
aI54
aI78
aI1945
aI490
aI207
aI946
aI78
aI1946
aI1948
aI644
aI992
aI115
aI713
aI713
aI39
aI30
aI78
aI1789
aI115
aI457
aI253
aI1061
aI449
aI39
aI105
aI153
aI39
aI1953
aI1954
aI494
aI1957
aI1958
aI1869
aI128
aI39
aI299
aI39
aI1656
aI39
aI573
aI165
aI33
aI1855
aI1962
aI39
aI56
aI33
aI128
aI412
aI1963
aI1964
aI105
aI52
aI868
aI1266
aI869
aI1966
aI206
aI1967
aI33
aI15
aI1968
aI99
aI39
aI465
aI206
aI1266
aI1969
aI1267
aI181
aI1971
aI1972
aI33
aI1973
aI444
aI33
aI1976
aI115
aI39
aI115
aI39
aI1310
aI1978
aI1979
aI299
aI39
aI889
aI1964
aI1980
aI325
aI33
aI489
aI1982
aI585
aI1983
aI1103
aI388
aI489
aI76
aI252
aI1987
aI76
aI1988
aI1990
aI639
aI1991
aI465
aI489
aI920
aI302
aI975
aI50
aI489
aI1119
aI720
aI153
aI489
aI491
aI1993
aI489
aI856
aI1315
aI511
aI433
aI465
aI1124
aI153
aI76
aI1996
aI489
aI1800
aI1997
aI1998
aI76
aI491
aI465
aI984
aI904
aI465
aI609
aI327
aI426
aI1008
aI207
aI1150
aI1999
aI1567
aI126
aI489
aI115
aI1662
aI2000
aI644
aI909
aI465
aI491
aI1237
aI465
aI932
aI1315
aI117
aI1227
aI1278
aI489
aI489
aI99
aI207
aI465
aI545
aI508
aI33
aI518
aI15
aI1662
aI478
aI2005
aI143
aI755
aI2007
aI50
aI992
aI368
aI2012
aI2013
aI33
aI1206
aI2015
aI206
aI540
aI976
aI49
aI334
aI1470
aI2013
aI33
aI1150
aI206
aI357
aI2019
aI666
aI465
aI39
aI2023
aI33
aI33
aI465
aI2024
aI2025
aI2026
aI1149
aI1990
aI457
aI433
aI681
aI78
aI2027
aI2028
aI165
aI33
aI2029
aI33
aI78
aI2030
aI898
aI786
aI786
aI898
aI30
aI1712
aI433
aI2031
aI444
aI33
aI932
aI1543
aI1840
aI2033
aI333
aI2034
aI78
aI1229
aI99
aI78
aI433
aI2037
aI2038
aI2041
aI592
aI489
aI2042
aI1424
aI1105
aI2043
aI1199
aI2045
aI96
aI112
aI1308
aI188
aI2048
aI397
aI76
aI345
aI153
aI2052
aI1307
aI368
aI368
aI2055
aI2056
aI489
aI961
aI720
aI488
aI1684
aI2058
aI2060
aI489
aI15
aI1643
aI2063
aI489
aI728
aI102
aI1345
aI1315
aI151
aI206
aI2065
aI2066
aI1173
aI728
aI489
aI465
aI50
aI491
aI1337
aI465
aI2070
aI2072
aI861
aI1492
aI465
aI680
aI39
aI78
aI299
aI152
aI39
aI68
aI39
aI2074
aI39
aI24
aI2075
aI2076
aI39
aI2077
aI1375
aI33
aI508
aI973
aI299
aI152
aI39
aI22
aI78
aI508
aI2081
aI2082
aI2083
aI39
aI33
aI2084
aI2085
aI1551
aI577
aI2086
aI22
aI39
aI153
aI187
aI33
aI68
aI2088
aI2089
aI39
aI449
aI39
aI2093
aI153
aI427
aI33
aI636
aI973
aI39
aI2095
aI78
aI2096
aI854
aI78
aI489
aI636
aI720
aI2098
aI128
aI1424
aI121
aI457
aI2100
aI2101
aI2102
aI78
aI916
aI1861
aI30
aI2103
aI2105
aI348
aI945
aI2111
aI489
aI96
aI78
aI1888
aI30
aI664
aI1183
aI1945
aI165
aI33
aI50
aI39
aI2116
aI165
aI56
aI56
aI33
aI2105
aI524
aI2117
aI39
aI507
aI489
aI954
aI945
aI250
aI39
aI720
aI2118
aI307
aI206
aI854
aI2119
aI1337
aI39
aI465
aI50
aI475
aI489
aI2120
aI2121
aI1332
aI206
aI732
aI39
aI78
aI78
aI78
aI1290
aI2065
aI2124
aI1665
aI78
aI206
aI105
aI2125
aI39
aI2126
aI1649
aI39
aI1424
aI206
aI78
aI78
aI115
aI206
aI2127
aI314
aI165
aI49
aI39
aI33
aI78
aI2128
aI728
aI489
aI2129
aI489
aI491
aI1315
aI121
aI206
aI1712
aI2132
aI115
aI2133
aI1713
aI99
aI24
aI206
aI2134
aI2135
aI2137
aI2138
aI2139
aI206
aI2142
aI592
aI1302
aI2143
aI1196
aI206
aI90
aI2144
aI954
aI2145
aI2146
aI489
aI961
aI2149
aI2150
aI1555
aI489
aI642
aI511
aI465
aI2151
aI489
aI786
aI489
aI1157
aI327
aI22
aI578
aI898
aI433
aI2153
aI578
aI1315
aI7
aI76
aI489
aI79
aI2154
aI786
aI1150
aI2155
aI720
aI250
aI2156
aI856
aI76
aI457
aI1665
aI1664
aI854
aI843
aI33
aI475
aI489
aI2161
aI2162
aI508
aI121
aI973
aI2165
aI1333
aI128
aI835
aI638
aI128
aI56
aI33
aI115
aI543
aI2166
aI99
aI39
aI2168
aI1574
aI56
aI2170
aI2171
aI2172
aI465
aI205
aI2174
aI843
aI128
aI33
aI1133
aI2177
aI39
aI2178
aI1830
aI78
aI147
aI1601
aI2181
aI1601
aI1830
aI2182
aI489
aI1626
aI1830
aI128
aI2183
aI1424
aI489
aI490
aI1424
aI489
aI2184
aI743
aI26
aI1318
aI2185
aI489
aI299
aI2186
aI49
aI206
aI2187
aI573
aI206
aI99
aI99
aI2189
aI1815
aI2190
aI916
aI962
aI2191
aI105
aI2192
aI489
aI173
aI1278
aI433
aI128
aI433
aI1999
aI115
aI115
aI520
aI2194
aI2197
aI252
aI206
aI2198
aI2199
aI962
aI1333
aI151
aI2201
aI920
aI536
aI234
aI923
aI2133
aI2203
aI1183
aI1084
aI115
aI174
aI854
aI115
aI2187
aI1767
aI1165
aI2212
aI728
aI954
aI1096
aI489
aI1886
aI2214
aI1712
aI2218
aI155
aI489
aI2222
aI2223
aI115
aI465
aI490
aI1958
aI2224
aI1007
aI1664
aI286
aI916
aI720
aI2134
aI96
aI1550
aI1738
aI2225
aI2089
aI2226
aI931
aI166
aI173
aI728
aI1861
aI1712
aI2228
aI366
aI361
aI540
aI720
aI2117
aI2233
aI2236
aI949
aI2190
aI1549
aI432
aI2119
aI489
aI1990
aI2239
aI126
aI1452
aI489
aI609
aI56
aI33
aI2241
aI2242
aI39
aI1418
aI33
aI78
aI99
aI39
aI1748
aI2244
aI78
aI39
aI78
aI592
aI489
aI532
aI128
aI1571
aI2250
aI99
aI39
aI895
aI33
aI49
aI39
aI895
aI33
aI2252
aI532
aI39
aI614
aI1803
aI1066
aI206
aI2254
aI78
aI489
aI1452
aI1837
aI1432
aI335
aI1626
aI187
aI33
aI1107
aI253
aI984
aI307
aI964
aI1182
aI49
aI1507
aI39
aI1893
aI56
aI33
aI78
aI426
aI2257
aI126
aI2201
aI1626
aI489
aI898
aI39
aI489
aI931
aI962
aI1854
aI187
aI33
aI2260
aI489
aI78
aI2261
aI489
aI49
aI2263
aI2264
aI78
aI1751
aI489
aI78
aI465
aI24
aI49
aI1497
aI39
aI1279
aI569
aI1225
aI33
aI1599
aI663
aI489
aI2266
aI1493
aI489
aI2267
aI1237
aI574
aI39
aI889
aI726
aI1076
aI465
aI225
aI33
aI488
aI155
aI1626
aI39
aI1076
aI49
aI1182
aI1643
aI153
aI2269
aI2093
aI489
aI740
aI39
aI1391
aI252
aI1315
aI50
aI39
aI2271
aI2272
aI489
aI151
aI2093
aI1097
aI2273
aI2274
aI1182
aI49
aI78
aI479
aI165
aI33
aI465
aI736
aI489
aI427
aI33
aI479
aI1250
aI2275
aI76
aI2276
aI628
aI1303
aI2277
aI2278
aI2279
aI1248
aI457
aI822
aI437
aI1119
aI2282
aI2283
aI2284
aI540
aI2285
aI2286
aI2288
aI427
aI33
aI1303
aI2290
aI1375
aI489
aI2291
aI1322
aI1119
aI909
aI1119
aI909
aI78
aI1244
aI717
aI1173
aI962
aI1696
aI1021
aI1105
aI889
aI1607
aI2297
aI397
aI2298
aI457
aI2299
aI976
aI389
aI931
aI1953
aI489
aI1173
aI465
aI39
aI2305
aI1105
aI2306
aI2297
aI1307
aI949
aI489
aI961
aI78
aI508
aI33
aI2309
aI49
aI39
aI1308
aI39
aI126
aI56
aI33
aI433
aI2310
aI681
aI465
aI39
aI585
aI433
aI30
aI465
aI432
aI489
aI1601
aI456
aI457
aI433
aI679
aI489
aI2312
aI206
aI2299
aI39
aI449
aI682
aI2313
aI225
aI33
aI1150
aI206
aI2314
aI39
aI433
aI489
aI1506
aI491
aI7
aI465
aI39
aI1063
aI2315
aI489
aI508
aI33
aI56
aI33
aI489
aI150
aI806
aI410
aI465
aI909
aI307
aI822
aI39
aI39
aI253
aI30
aI488
aI39
aI489
aI2321
aI1512
aI1643
aI920
aI2325
aI2326
aI39
aI634
aI252
aI465
aI50
aI150
aI39
aI1512
aI39
aI39
aI800
aI151
aI2328
aI1549
aI207
aI39
aI573
aI105
aI39
aI206
aI2329
aI2330
aI299
aI39
aI130
aI1665
aI50
aI39
aI478
aI2331
aI1866
aI299
aI652
aI1677
aI1395
aI143
aI869
aI2333
aI1123
aI210
aI410
aI2337
aI2338
aI50
aI263
aI1869
aI280
aI7
aI49
aI291
aI1913
aI1229
aI1869
aI2340
aI102
aI1197
aI2342
aI2343
aI1266
aI1957
aI2344
aI117
aI33
aI165
aI50
aI2346
aI1267
aI1315
aI2347
aI39
aI105
aI2348
aI206
aI39
aI33
aI165
aI491
aI39
aI2201
aI740
aI2350
aI39
aI115
aI494
aI2351
aI1318
aI889
aI1315
aI39
aI2355
aI491
aI78
aI2356
aI2357
aI1063
aI879
aI206
aI2358
aI11
aI128
aI2359
aI822
aI609
aI2360
aI1700
aI206
aI1840
aI2362
aI2363
aI357
aI1279
aI39
aI2350
aI250
aI357
aI945
aI39
aI945
aI2364
aI78
aI69
aI33
aI2365
aI2367
aI1040
aI1197
aI78
aI2373
aI2374
aI2375
aI2377
aI2378
aI1406
aI33
aI1402
aI679
aI39
aI910
aI121
aI646
aI33
aI1317
aI78
aI465
aI489
aI1318
aI39
aI126
aI126
aI33
aI1361
aI457
aI269
aI518
aI2380
aI397
aI78
aI1434
aI2381
aI489
aI276
aI2384
aI15
aI280
aI15
aI1
aI2386
aI181
aI2388
aI2389
aI888
aI14
aI2392
aI598
aI2394
aI2395
aI993
aI78
aI1756
aI263
aI2191
aI33
aI2399
aI1445
aI304
aI1195
aI153
aI57
aI1391
aI489
aI2401
aI183
aI652
aI357
aI1712
aI900
aI457
aI2406
aI1957
aI50
aI835
aI1656
aI151
aI2201
aI280
aI613
aI2409
aI96
aI1768
aI489
aI2411
aI90
aI115
aI1307
aI50
aI812
aI718
aI269
aI259
aI489
aI1036
aI2413
aI33
aI854
aI33
aI56
aI39
aI78
aI1237
aI423
aI2146
aI2414
aI39
aI33
aI2415
aI335
aI1229
aI205
aI1866
aI39
aI2417
aI1493
aI854
aI2418
aI1046
aI2070
aI15
aI250
aI2420
aI39
aI206
aI402
aI1337
aI717
aI39
aI1620
aI150
aI50
aI806
aI854
aI2421
aI2422
aI2423
aI2424
aI15
aI511
aI2425
aI577
aI433
aI15
aI2427
aI2133
aI465
aI1840
aI576
aI2428
aI33
aI39
aI854
aI2430
aI491
aI2431
aI105
aI644
aI2432
aI39
aI465
aI105
aI644
aI943
aI33
aI165
aI1097
aI33
aI427
aI854
aI130
aI2434
aI2434
aI2435
aI1426
aI644
aI11
aI712
aI105
aI2436
aI916
aI33
aI427
aI115
aI78
aI2437
aI2190
aI1416
aI173
aI78
aI1577
aI489
aI854
aI2439
aI39
aI578
aI909
aI465
aI299
aI465
aI489
aI465
aI2443
aI206
aI740
aI2444
aI57
aI465
aI1561
aI2445
aI489
aI206
aI2446
aI280
aI2447
aI18
aI2448
aI2449
aI2451
aI263
aI540
aI2452
aI1102
aI2453
aI2454
aI386
aI2456
aI1307
aI609
aI1169
aI740
aI592
aI489
aI423
aI1445
aI489
aI1227
aI854
aI1379
aI1215
aI961
aI299
aI1088
aI99
aI992
aI1337
aI899
aI115
aI457
aI728
aI489
aI1371
aI491
aI150
aI152
aI153
aI1345
aI782
aI1076
aI1945
aI2461
aI1333
aI2462
aI1642
aI1559
aI151
aI1326
aI720
aI153
aI152
aI1133
aI128
aI2465
aI489
aI253
aI143
aI105
aI961
aI2469
aI2386
aI2005
aI489
aI2473
aI183
aI2182
aI489
aI302
aI2074
aI105
aI206
aI437
aI1606
aI2478
aI1308
aI700
aI206
aI835
aI50
aI253
aI126
aI1474
aI457
aI188
aI33
aI388
aI432
aI263
aI11
aI1888
aI2480
aI465
aI299
aI2481
aI494
aI1706
aI1703
aI465
aI494
aI2338
aI2486
aI720
aI2487
aI652
aI1337
aI494
aI128
aI494
aI128
aI2070
aI1345
aI488
aI1088
aI494
aI128
aI1401
aI460
aI848
aI15
aI2492
aI5
aI489
aI696
aI2495
aI105
aI115
aI11
aI50
aI2498
aI82
aI253
aI2499
aI1451
aI302
aI746
aI489
aI820
aI105
aI15
aI99
aI717
aI1529
aI545
aI115
aI1111
aI1768
aI1816
aI126
aI76
aI1736
aI465
aI591
aI649
aI2506
aI2508
aI457
aI860
aI361
aI2509
aI1800
aI1131
aI2511
aI188
aI2513
aI2042
aI15
aI2516
aI327
aI465
aI696
aI1182
aI1303
aI424
aI1445
aI547
aI2156
aI39
aI187
aI33
aI2070
aI1850
aI1767
aI1885
aI2089
aI1712
aI78
aI457
aI2525
aI1237
aI984
aI609
aI39
aI465
aI2526
aI2527
aI2529
aI50
aI207
aI547
aI368
aI489
aI30
aI489
aI126
aI33
aI652
aI2048
aI1315
aI128
aI39
aI489
aI1576
aI806
aI465
aI188
aI1381
aI1158
aI307
aI2533
aI2534
aI1823
aI465
aI683
aI299
aI155
aI713
aI15
aI822
aI489
aI491
aI37
aI1361
aI324
aI49
aI489
aI1150
aI206
aI882
aI39
aI1816
aI489
aI465
aI1803
aI1046
aI489
aI15
aI15
aI1222
aI1464
aI1278
aI49
aI234
aI147
aI83
aI138
aI39
aI207
aI507
aI489
aI2547
aI207
aI56
aI33
aI33
aI489
aI1034
aI2549
aI49
aI609
aI2550
aI126
aI644
aI489
aI2555
aI357
aI822
aI465
aI78
aI456
aI2559
aI489
aI1698
aI126
aI1133
aI2561
aI2562
aI2563
aI489
aI465
aI1735
aI634
aI1720
aI882
aI1971
aI39
aI406
aI628
aI1420
aI491
aI2565
aI2566
aI2568
aI433
aI951
aI951
aI2570
aI1315
aI1549
aI234
aI1549
aI302
aI2573
aI489
aI704
aI77
aI2575
aI489
aI2576
aI954
aI1913
aI2577
aI1096
aI2579
aI489
aI1726
aI2580
aI2581
aI2582
aI1415
aI2583
aI489
aI1133
aI609
aI77
aI2584
aI77
aI1707
aI2585
aI243
aI206
aI77
aI465
aI82
aI2587
aI1339
aI889
aI489
aI1542
aI2589
aI489
aI76
aI740
aI478
aI489
aI478
aI1497
aI1277
aI1542
aI2592
aI489
aI2593
aI2594
aI1277
aI2595
aI2598
aI2599
aI2600
aI489
aI2432
aI412
aI851
aI76
aI449
aI253
aI126
aI278
aI489
aI1030
aI2605
aI898
aI206
aI822
aI155
aI2608
aI206
aI450
aI1869
aI2609
aI898
aI449
aI457
aI1684
aI2611
aI206
aI2612
aI345
aI2613
aI2614
aI2615
aI2616
aI948
aI50
aI540
aI368
aI1455
aI1190
aI2617
aI2619
aI1966
aI901
aI126
aI449
aI449
aI206
aI1428
aI2622
aI2623
aI2575
aI2624
aI253
aI126
aI489
aI1193
aI1861
aI465
aI2625
aI49
aI50
aI908
aI501
aI1428
aI491
aI449
aI2635
aI253
aI126
aI2636
aI586
aI206
aI2637
aI1815
aI2638
aI2640
aI206
aI253
aI126
aI1150
aI920
aI489
aI1174
aI465
aI489
aI2641
aI1694
aI1438
aI794
aI37
aI15
aI488
aI2649
aI2651
aI782
aI105
aI2652
aI768
aI2655
aI2656
aI577
aI465
aI489
aI489
aI2660
aI547
aI489
aI976
aI1529
aI489
aI891
aI465
aI573
aI206
aI2448
aI2663
aI465
aI465
aI2665
aI2666
aI2668
aI412
aI491
aI2138
aI999
aI675
aI2676
aI2181
aI1733
aI577
aI806
aI2679
aI2680
aI2261
aI627
aI465
aI649
aI1700
aI2682
aI836
aI920
aI489
aI489
aI2684
aI2685
aI489
aI931
aI507
aI465
aI1321
aI975
aI368
aI368
aI1979
aI2686
aI2687
aI489
aI1497
aI15
aI2134
aI489
aI345
aI1453
aI2690
aI2691
aI973
aI2692
aI2693
aI2562
aI963
aI2694
aI1278
aI479
aI2696
aI426
aI2589
aI489
aI2697
aI465
aI1665
aI2486
aI791
aI1698
aI2698
aI2637
aI2699
aI2701
aI2702
aI2703
aI2704
aI2705
aI2328
aI2706
aI247
aI489
aI2579
aI2708
aI494
aI1424
aI2709
aI2119
aI2712
aI2713
aI465
aI2714
aI679
aI2716
aI2717
aI1172
aI889
aI2719
aI1958
aI2720
aI922
aI489
aI1549
aI2119
aI2721
aI2722
aI2725
aI489
aI1754
aI2726
aI1854
aI49
aI2182
aI489
aI822
aI457
aI49
aI490
aI457
aI954
aI126
aI2733
aI2735
aI489
aI889
aI1047
aI491
aI620
aI2168
aI2736
aI465
aI493
aI62
aI1046
aI489
aI2070
aI489
aI1719
aI1423
aI2739
aI1546
aI489
aI1248
aI2276
aI2740
aI489
aI1879
aI1850
aI2743
aI15
aI1754
aI2744
aI489
aI1362
aI693
aI489
aI803
aI489
aI2746
aI1119
aI540
aI491
aI1248
aI1277
aI2749
aI1238
aI2754
aI1270
aI1257
aI126
aI1988
aI1988
aI2757
aI397
aI2759
aI147
aI2760
aI2761
aI2763
aI1096
aI489
aI137
aI2694
aI489
aI489
aI2765
aI2767
aI1493
aI489
aI1958
aI2768
aI620
aI1053
aI2769
aI2089
aI39
aI532
aI39
aI22
aI1300
aI1958
aI2084
aI648
aI822
aI2089
aI2774
aI234
aI2775
aI898
aI2154
aI2776
aI848
aI1688
aI39
aI78
aI592
aI2778
aI2779
aI465
aI609
aI39
aI489
aI1601
aI2781
aI489
aI78
aI2782
aI905
aI78
aI2298
aI2783
aI2784
aI488
aI489
aI949
aI187
aI33
aI15
aI2563
aI2736
aI39
aI1643
aI207
aI2786
aI207
aI345
aI2788
aI627
aI2790
aI165
aI33
aI2
aI1888
aI1492
aI2792
aI1096
aI2793
aI489
aI78
aI39
aI543
aI1529
aI1150
aI206
aI39
aI1011
aI39
aI2274
aI489
aI78
aI576
aI39
aI489
aI679
aI127
aI465
aI609
aI1933
aI1322
aI479
aI577
aI465
aI577
aI1333
aI2799
aI2802
aI2805
aI2807
aI823
aI15
aI243
aI2686
aI2714
aI556
aI15
aI507
aI988
aI489
aI803
aI2719
aI7
aI555
aI2816
aI489
aI1340
aI2817
aI713
aI2819
aI2084
aI2821
aI68
aI948
aI155
aI489
aI2824
aI2826
aI1911
aI50
aI2828
aI2070
aI2831
aI822
aI39
aI2832
aI33
aI56
aI78
aI2835
aI1816
aI2836
aI33
aI578
aI1736
aI39
aI128
aI188
aI1315
aI11
aI2816
aI25
aI2840
aI11
aI117
aI1933
aI105
aI1866
aI210
aI900
aI457
aI302
aI150
aI2843
aI2726
aI2845
aI1145
aI1315
aI457
aI105
aI50
aI1076
aI2847
aI2848
aI909
aI1111
aI105
aI128
aI1888
aI2420
aI2326
aI1119
aI1982
aI153
aI105
aI740
aI2853
aI386
aI386
aI33
aI636
aI1474
aI2854
aI2855
aI33
aI50
aI39
aI402
aI126
aI400
aI2858
aI1463
aI1978
aI489
aI302
aI39
aI714
aI26
aI2860
aI2861
aI2862
aI954
aI700
aI2863
aI78
aI2864
aI2865
aI679
aI488
aI2869
aI2870
aI250
aI2871
aI39
aI547
aI329
aI1717
aI2854
aI2139
aI2860
aI39
aI39
aI117
aI68
aI1712
aI1123
aI243
aI2872
aI1870
aI848
aI1870
aI2872
aI1371
aI694
aI905
aI47
aI524
aI2874
aI2875
aI1493
aI2876
aI2876
aI2641
aI543
aI2879
aI2641
aI543
aI2882
aI2883
aI2821
aI851
aI773
aI2884
aI2882
aI2874
aI1509
aI1119
aI2562
aI2885
aI2254
aI389
aI478
aI76
aI1754
aI634
aI2704
aI861
aI207
aI2848
aI2889
aI2891
aI341
aI573
aI489
aI2181
aI489
aI1307
aI2895
aI819
aI1664
aI489
aI1237
aI388
aI465
aI489
aI2896
aI457
aI386
aI2566
aI2182
aI489
aI475
aI489
aI2038
aI819
aI862
aI465
aI1096
aI489
aI634
aI751
aI56
aI33
aI56
aI33
aI47
aI822
aI609
aI1418
aI33
aI1040
aI5
aI56
aI33
aI545
aI78
aI1895
aI1594
aI465
aI1866
aI457
aI150
aI39
aI2781
aI1009
aI489
aI2902
aI49
aI2903
aI489
aI2903
aI489
aI1537
aI150
aI39
aI971
aI24
aI988
aI2905
aI307
aI2906
aI5
aI39
aI39
aI33
aI56
aI207
aI1096
aI489
aI1967
aI1549
aI465
aI489
aI30
aI2909
aI1360
aI822
aI39
aI900
aI1353
aI2910
aI634
aI861
aI1185
aI2911
aI2181
aI2912
aI999
aI1206
aI2914
aI962
aI726
aI206
aI150
aI39
aI2915
aI822
aI39
aI2917
aI491
aI945
aI78
aI206
aI1982
aI898
aI77
aI39
aI2918
aI2919
aI105
aI2903
aI489
aI1111
aI763
aI39
aI2726
aI1594
aI822
aI822
aI2920
aI1133
aI1240
aI90
aI1056
aI1355
aI1133
aI2921
aI2922
aI1721
aI457
aI253
aI47
aI39
aI49
aI444
aI2924
aI33
aI49
aI2925
aI489
aI78
aI49
aI2927
aI1719
aI1360
aI2928
aI938
aI1879
aI39
aI822
aI2929
aI2026
aI822
aI822
aI1170
aI1569
aI822
aI2930
aI2931
aI2932
aI121
aI225
aI33
aI78
aI282
aI489
aI427
aI33
aI30
aI2933
aI30
aI489
aI39
aI49
aI489
aI126
aI2506
aI1182
aI49
aI1324
aI2936
aI427
aI33
aI427
aI33
aI494
aI56
aI33
aI728
aI2938
aI2940
aI206
aI2941
aI2942
aI427
aI33
aI105
aI39
aI2943
aI121
aI1227
aI2944
aI223
aI33
aI1420
aI2945
aI1133
aI2947
aI216
aI2739
aI489
aI444
aI33
aI489
aI489
aI39
aI444
aI33
aI704
aI457
aI2949
aI2952
aI78
aI2313
aI489
aI850
aI50
aI39
aI33
aI427
aI30
aI1203
aI1167
aI1497
aI909
aI1209
aI2954
aI128
aI630
aI1464
aI1455
aI520
aI42
aI39
aI33
aI39
aI126
aI1387
aI128
aI2739
aI1096
aI489
aI78
aI1742
aI1816
aI39
aI39
aI489
aI1816
aI1030
aI39
aI2903
aI1816
aI39
aI2958
aI50
aI2959
aI465
aI465
aI39
aI112
aI2958
aI1707
aI1403
aI426
aI1576
aI2960
aI478
aI730
aI1559
aI730
aI489
aI1130
aI2963
aI39
aI592
aI78
aI1062
aI592
aI207
aI78
aI50
aI2223
aI207
aI465
aI465
aI39
aI1315
aI1315
aI395
aI33
aI126
aI33
aI165
aI465
aI1733
aI1030
aI33
aI545
aI105
aI2965
aI1196
aI2966
aI33
aI444
aI1538
aI822
aI1694
aI2686
aI2972
aI1096
aI822
aI307
aI54
aI822
aI126
aI150
aI2726
aI644
aI128
aI900
aI822
aI1497
aI2622
aI644
aI465
aI489
aI489
aI357
aI1096
aI54
aI543
aI740
aI2981
aI2982
aI489
aI644
aI1911
aI692
aI489
aI489
aI692
aI905
aI2987
aI806
aI491
aI1492
aI465
aI188
aI1150
aI489
aI2989
aI507
aI491
aI822
aI2743
aI39
aI740
aI39
aI253
aI30
aI1240
aI56
aI2990
aI1866
aI1866
aI121
aI345
aI395
aI33
aI151
aI253
aI30
aI2060
aI1400
aI822
aI609
aI39
aI1240
aI33
aI2991
aI1743
aI574
aI465
aI437
aI78
aI1416
aI126
aI150
aI2993
aI893
aI489
aI1353
aI2995
aI1387
aI2996
aI47
aI56
aI33
aI1996
aI2909
aI1746
aI2526
aI205
aI1248
aI1353
aI2997
aI2998
aI923
aI78
aI1577
aI489
aI151
aI465
aI465
aI2119
aI2999
aI1491
aI3001
aI2882
aI573
aI489
aI3002
aI489
aI78
aI889
aI1237
aI3003
aI1169
aI76
aI3004
aI2882
aI2882
aI33
aI489
aI822
aI96
aI39
aI1493
aI30
aI24
aI126
aI78
aI465
aI489
aI1895
aI419
aI971
aI78
aI3008
aI822
aI3009
aI1034
aI3012
aI3013
aI39
aI126
aI3015
aI1229
aI26
aI2
aI1957
aI1375
aI78
aI1522
aI78
aI822
aI3019
aI836
aI3020
aI1585
aI1739
aI1721
aI1512
aI96
aI39
aI1423
aI137
aI489
aI2622
aI1353
aI1815
aI479
aI1665
aI609
aI39
aI1815
aI465
aI2461
aI1815
aI479
aI679
aI30
aI33
aI751
aI126
aI491
aI187
aI33
aI30
aI3026
aI126
aI636
aI465
aI3031
aI395
aI33
aI78
aI465
aI489
aI78
aI3032
aI126
aI3033
aI30
aI822
aI39
aI77
aI1682
aI3035
aI77
aI39
aI1203
aI165
aI33
aI1574
aI165
aI33
aI33
aI508
aI3037
aI2611
aI3039
aI1532
aI338
aI3040
aI3042
aI1475
aI891
aI681
aI652
aI2884
aI3043
aI127
aI954
aI2275
aI1542
aI2611
aI150
aI2805
aI3047
aI78
aI33
aI3049
aI3050
aI78
aI3043
aI891
aI39
aI489
aI954
aI2343
aI993
aI39
aI2611
aI33
aI494
aI2860
aI898
aI180
aI259
aI39
aI508
aI33
aI3051
aI489
aI3053
aI2343
aI33
aI3002
aI1324
aI489
aI3054
aI128
aI1497
aI836
aI3055
aI889
aI844
aI1712
aI3057
aI620
aI3058
aI1754
aI1854
aI1507
aI3055
aI3060
aI3061
aI2965
aI961
aI2726
aI3062
aI3064
aI3055
aI151
aI489
aI1964
aI1133
aI1754
aI3055
aI1954
aI489
aI3066
aI736
aI489
aI1470
aI3055
aI848
aI302
aI806
aI3067
aI2896
aI1227
aI1420
aI679
aI3071
aI2182
aI3072
aI822
aI1493
aI50
aI740
aI649
aI250
aI1561
aI2168
aI1861
aI456
aI3067
aI368
aI250
aI3064
aI540
aI206
aI3075
aI1754
aI634
aI3076
aI479
aI3067
aI433
aI786
aI2461
aI3081
aI1816
aI3082
aI3084
aI786
aI2461
aI3085
aI1741
aI2056
aI33
aI165
aI1939
aI713
aI39
aI1830
aI591
aI1846
aI199
aI2355
aI801
aI39
aI33
aI165
aI3087
aI456
aI1021
aI39
aI3089
aI39
aI81
aI1244
aI3090
aI39
aI33
aI1816
aI520
aI39
aI3091
aI2056
aI3092
aI2527
aI3096
aI327
aI3097
aI33
aI327
aI3100
aI2733
aI465
aI3101
aI585
aI889
aI3103
aI206
aI1062
aI1698
aI3104
aI243
aI465
aI3106
aI2641
aI460
aI3109
aI489
aI278
aI457
aI1243
aI327
aI2
aI1542
aI543
aI2641
aI489
aI2584
aI543
aI3111
aI1310
aI2882
aI3113
aI644
aI3114
aI28
aI78
aI490
aI128
aI78
aI3115
aI489
aI540
aI1434
aI1754
aI56
aI341
aI900
aI465
aI457
aI491
aI345
aI3116
aI1694
aI3117
aI3009
aI666
aI128
aI76
aI3120
aI206
aI465
aI253
aI806
aI253
aI806
aI491
aI3122
aI1034
aI3123
aI489
aI3124
aI634
aI848
aI49
aI861
aI1030
aI3127
aI33
aI465
aI491
aI2726
aI39
aI3128
aI78
aI465
aI489
aI47
aI491
aI33
aI225
aI3129
aI78
aI49
aI489
aI975
aI489
aI78
aI1096
aI489
aI1420
aI39
aI49
aI1133
aI507
aI489
aI78
aI3131
aI3132
aI489
aI33
aI3133
aI199
aI489
aI3134
aI33
aI1991
aI1124
aI1529
aI49
aI3135
aI1007
aI49
aI489
aI984
aI3008
aI3136
aI39
aI96
aI1962
aI39
aI3137
aI206
aI30
aI1474
aI449
aI39
aI489
aI479
aI465
aI1030
aI489
aI395
aI33
aI33
aI444
aI1866
aI491
aI1904
aI822
aI3139
aI345
aI1150
aI368
aI945
aI206
aI3140
aI2903
aI889
aI33
aI444
aI1548
aI39
aI3141
aI717
aI3142
aI910
aI39
aI449
aI78
aI465
aI78
aI1861
aI479
aI1571
aI388
aI489
aI3144
aI465
aI489
aI491
aI679
aI3144
aI325
aI33
aI465
aI3146
aI39
aI78
aI489
aI1008
aI3147
aI465
aI465
aI1888
aI3147
aI1272
aI2698
aI3148
aI250
aI426
aI49
aI50
aI39
aI2373
aI489
aI3149
aI33
aI3150
aI1021
aI898
aI3151
aI932
aI151
aI206
aI1816
aI2641
aI1061
aI1444
aI465
aI953
aI78
aI1622
aI206
aI1315
aI39
aI961
aI96
aI1550
aI1213
aI3154
aI39
aI1507
aI39
aI599
aI39
aI700
aI507
aI489
aI592
aI3147
aI946
aI599
aI2422
aI489
aI465
aI609
aI465
aI1893
aI489
aI1418
aI33
aI78
aI465
aI1893
aI56
aI33
aI3156
aI1895
aI3040
aI3157
aI39
aI3158
aI888
aI465
aI479
aI78
aI2684
aI489
aI3160
aI489
aI3162
aI1099
aI489
aI78
aI3163
aI78
aI1895
aI3165
aI1314
aI90
aI39
aI90
aI3115
aI489
aI2486
aI39
aI644
aI39
aI465
aI39
aI3166
aI78
aI652
aI2903
aI489
aI128
aI78
aI3115
aI489
aI2726
aI644
aI2903
aI3168
aI2570
aI2821
aI3169
aI1424
aI1852
aI3170
aI3171
aI3172
aI1470
aI3174
aI2038
aI3175
aI143
aI465
aI1470
aI1145
aI3176
aI556
aI1116
aI426
aI3177
aI2584
aI1188
aI1643
aI2570
aI806
aI253
aI2848
aI882
aI3180
aI3181
aI2529
aI3177
aI1302
aI3182
aI2119
aI489
aI1526
aI1131
aI3185
aI1302
aI3177
aI2584
aI1424
aI2848
aI1470
aI3169
aI3168
aI3187
aI2570
aI3188
aI1507
aI2821
aI433
aI3189
aI3190
aI3191
aI954
aI302
aI703
aI1470
aI5
aI2
aI302
aI3197
aI3199
aI2570
aI556
aI1470
aI806
aI1817
aI2716
aI3177
aI3201
aI2848
aI489
aI426
aI489
aI2584
aI465
aI1464
aI1464
aI1470
aI806
aI1415
aI3206
aI433
aI592
aI806
aI592
aI3209
aI345
aI3210
aI335
aI3213
aI153
aI3214
aI3216
aI639
aI973
aI3217
aI1512
aI3218
aI3219
aI1548
aI3222
aI153
aI3223
aI545
aI1415
aI2885
aI869
aI2037
aI996
aI1062
aI1574
aI478
aI1542
aI489
aI1062
aI1415
aI489
aI490
aI822
aI3227
aI714
aI243
aI3096
aI56
aI3229
aI33
aI166
aI848
aI898
aI3230
aI1073
aI1227
aI1099
aI784
aI3231
aI33
aI3233
aI3234
aI3235
aI1574
aI2037
aI49
aI39
aI3236
aI96
aI5
aI495
aI599
aI770
aI33
aI3240
aI3242
aI3243
aI3244
aI945
aI78
aI1753
aI530
aI465
aI475
aI522
aI78
aI489
aI7
aI2788
aI489
aI105
aI1188
aI33
aI1008
aI76
aI988
aI1470
aI457
aI1641
aI335
aI3246
aI1712
aI3247
aI3140
aI1034
aI3176
aI489
aI1229
aI700
aI489
aI3250
aI1200
aI345
aI1237
aI740
aI3251
aI3252
aI728
aI3253
aI3254
aI728
aI1237
aI489
aI822
aI3256
aI923
aI1768
aI1101
aI3257
aI1227
aI518
aI1307
aI993
aI1224
aI909
aI206
aI648
aI1727
aI243
aI3258
aI3216
aI3259
aI7
aI540
aI304
aI1131
aI1227
aI2845
aI3261
aI2185
aI457
aI465
aI3262
aI1808
aI1866
aI2389
aI1214
aI57
aI111
aI2782
aI1227
aI1869
aI3269
aI786
aI3271
aI3272
aI128
aI2919
aI3273
aI630
aI206
aI357
aI1869
aI128
aI1364
aI465
aI586
aI2
aI1512
aI609
aI33
aI961
aI1279
aI2788
aI489
aI652
aI76
aI553
aI3281
aI2726
aI3282
aI1229
aI1107
aI255
aI3283
aI153
aI1009
aI3285
aI3287
aI3288
aI115
aI961
aI3289
aI3291
aI2239
aI128
aI3292
aI1008
aI76
aI961
aI3296
aI3297
aI449
aI3298
aI961
aI3300
aI206
aI494
aI3301
aI465
aI1022
aI3303
aI1396
aI2924
aI275
aI3305
aI3306
aI1470
aI3308
aI1494
aI206
aI794
aI206
aI3309
aI634
aI556
aI2
aI3176
aI882
aI250
aI1240
aI90
aI3314
aI327
aI3315
aI3189
aI1353
aI1096
aI1300
aI3318
aI981
aI822
aI3320
aI128
aI1665
aI2993
aI1227
aI327
aI433
aI1034
aI3322
aI831
aI3250
aI153
aI1415
aI465
aI433
aI1816
aI3325
aI153
aI3326
aI1415
aI7
aI489
aI327
aI433
aI153
aI28
aI882
aI1470
aI329
aI335
aI3287
aI433
aI3329
aI1131
aI327
aI1470
aI329
aI128
aI3330
aI1518
aI481
aI609
aI3315
aI76
aI1526
aI206
aI28
aI1240
aI1229
aI2696
aI976
aI3247
aI1406
aI1738
aI105
aI3189
aI823
aI247
aI1237
aI822
aI1577
aI740
aI178
aI2640
aI818
aI3335
aI3336
aI1665
aI1571
aI335
aI76
aI1434
aI545
aI1888
aI751
aI489
aI1110
aI489
aI3338
aI3216
aI1434
aI3339
aI1009
aI489
aI786
aI659
aI489
aI335
aI3340
aI540
aI1209
aI861
aI860
aI345
aI3342
aI3343
aI1470
aI3344
aI26
aI3346
aI3314
aI659
aI1499
aI1518
aI403
aI3347
aI3246
aI152
aI1518
aI49
aI3330
aI3339
aI206
aI335
aI3349
aI465
aI980
aI33
aI2885
aI3354
aI78
aI3357
aI389
aI206
aI3358
aI78
aI1518
aI3361
aI3322
aI508
aI33
aI755
aI33
aI822
aI96
aI3362
aI206
aI153
aI3301
aI2276
aI961
aI54
aI3363
aI973
aI39
aI1317
aI3364
aI489
aI2350
aI1353
aI3364
aI206
aI2042
aI3365
aI1574
aI489
aI644
aI3366
aI3368
aI2919
aI206
aI966
aI47
aI3369
aI391
aI3370
aI2910
aI2641
aI1012
aI3372
aI3373
aI475
aI3374
aI3375
aI1883
aI433
aI3378
aI433
aI3379
aI3380
aI2154
aI489
aI3381
aI1360
aI3382
aI7
aI1696
aI2042
aI457
aI391
aI456
aI457
aI1353
aI3383
aI3384
aI3385
aI126
aI3386
aI1110
aI489
aI368
aI1364
aI3387
aI3388
aI3389
aI3390
aI3391
aI1110
aI1300
aI489
aI1151
aI1426
aI1973
aI3393
aI3394
aI3395
aI3396
aI3397
aI1227
aI1549
aI3399
aI3400
aI489
aI2154
aI1493
aI47
aI460
aI1059
aI489
aI3404
aI1423
aI489
aI3405
aI3407
aI96
aI670
aI150
aI128
aI2038
aI3410
aI1415
aI3411
aI348
aI3412
aI3242
aI3413
aI1888
aI1548
aI786
aI1868
aI3414
aI449
aI1046
aI786
aI5
aI1107
aI2239
aI553
aI3415
aI634
aI1096
aI652
aI1229
aI1205
aI3416
aI786
aI3418
aI3419
aI153
aI1167
aI553
aI3421
aI3298
aI1046
aI3423
aI1873
aI1518
aI3424
aI117
aI335
aI3425
aI2042
aI128
aI3428
aI2445
aI1415
aI964
aI3430
aI3431
aI3432
aI3433
aI1518
aI2154
aI2909
aI1415
aI1278
aI822
aI3434
aI3435
aI1426
aI3436
aI1248
aI2910
aI645
aI465
aI2135
aI7
aI599
aI3439
aI360
aI329
aI1012
aI3441
aI1415
aI1423
aI1574
aI1883
aI3443
aI3444
aI1574
aI2086
aI49
aI206
aI465
aI338
aI1424
aI54
aI2178
aI338
aI2896
aI338
aI3447
aI1971
aI3449
aI3450
aI3451
aI3450
aI2038
aI764
aI764
aI3454
aI1261
aI128
aI1261
aI545
aI5
aI3455
aI449
aI255
aI489
aI368
aI335
aI2153
aI806
aI128
aI3459
aI3460
aI822
aI1307
aI3462
aI3463
aI50
aI345
aI669
aI3465
aI489
aI2103
aI28
aI1610
aI3468
aI3469
aI3283
aI3470
aI489
aI822
aI3473
aI253
aI3475
aI2993
aI3040
aI3478
aI893
aI489
aI1537
aI1353
aI489
aI150
aI3223
aI3480
aI717
aI3459
aI3482
aI962
aI2146
aI54
aI1707
aI2526
aI712
aI1999
aI3484
aI397
aI302
aI3485
aI3486
aI3487
aI899
aI3488
aI50
aI822
aI1277
aI3490
aI961
aI553
aI3493
aI56
aI1601
aI206
aI3494
aI302
aI3495
aI433
aI2526
aI3447
aI3496
aI3497
aI1143
aI206
aI15
aI376
aI1879
aI2362
aI3498
aI680
aI3500
aI206
aI3501
aI3502
aI1143
aI489
aI822
aI3504
aI3505
aI388
aI3506
aI1167
aI3233
aI967
aI77
aI153
aI898
aI259
aI918
aI489
aI1464
aI441
aI489
aI56
aI489
aI1112
aI489
aI3507
aI2919
aI440
aI489
aI3444
aI918
aI440
aI441
aI489
aI1300
aI206
aI3501
aI1879
aI57
aI3508
aI3509
aI3510
aI1719
aI457
aI3512
aI3513
aI1837
aI1756
aI3514
aI1227
aI3516
aI1641
aI3517
aI115
aI806
aI50
aI3522
aI3523
aI3287
aI806
aI2792
aI2065
aI3526
aI659
aI1626
aI3527
aI206
aI78
aI2343
aI465
aI491
aI3084
aI456
aI3509
aI945
aI2947
aI1574
aI489
aI3444
aI3528
aI822
aI126
aI307
aI206
aI2905
aI1451
aI3529
aI433
aI3530
aI1866
aI980
aI3531
aI88
aI1581
aI3533
aI785
aI1219
aI961
aI2154
aI206
aI2378
aI2456
aI2875
aI47
aI3535
aI3531
aI147
aI3537
aI3538
aI962
aI478
aI5
aI493
aI1543
aI1415
aI56
aI234
aI249
aI150
aI2617
aI898
aI3543
aI961
aI945
aI11
aI3544
aI3545
aI961
aI206
aI3493
aI3413
aI3546
aI206
aI465
aI3043
aI206
aI2239
aI2375
aI3548
aI3549
aI3550
aI3551
aI206
aI1643
aI3436
aI433
aI206
aI153
aI3552
aI1493
aI206
aI963
aI3555
aI1577
aI3389
aI206
aI639
aI489
aI56
aI3051
aI501
aI3557
aI3558
aI1145
aI3560
aI368
aI1145
aI489
aI3557
aI3136
aI3061
aI50
aI449
aI2736
aI128
aI3562
aI197
aI1465
aI540
aI368
aI1272
aI1096
aI2885
aI3564
aI489
aI3565
aI3566
aI3567
aI3568
aI3569
aI822
aI2
aI3189
aI1971
aI342
aI3570
aI3571
aI491
aI1167
aI460
aI1321
aI39
aI3573
aI1420
aI3575
aI232
aI3577
aI368
aI249
aI3578
aI540
aI3308
aI206
aI3478
aI3579
aI3580
aI2704
aI2
aI2918
aI3581
aI3271
aI489
aI3582
aI489
aI1214
aI489
aI456
aI1096
aI489
aI456
aI1278
aI2640
aI489
aI3584
aI489
aI153
aI3586
aI206
aI249
aI3587
aI2065
aI489
aI3577
aI3588
aI3589
aI629
aI1798
aI249
aI3590
aI3253
aI11
aI545
aI489
aI898
aI656
aI862
aI3591
aI717
aI210
aI56
aI3592
aI2788
aI3287
aI489
aI3233
aI3593
aI2579
aI1546
aI489
aI249
aI128
aI2993
aI3595
aI327
aI489
aI1096
aI489
aI3597
aI3598
aI987
aI634
aI76
aI2461
aI3600
aI403
aI3601
aI489
aI3600
aI1415
aI3602
aI1415
aI3176
aI433
aI3603
aI456
aI3604
aI680
aI68
aI993
aI432
aI7
aI961
aI3329
aI299
aI3607
aI1360
aI489
aI1866
aI426
aI1203
aI1415
aI882
aI945
aI299
aI3375
aI1022
aI489
aI3610
aI489
aI2885
aI704
aI2343
aI3611
aI3612
aI50
aI2454
aI3613
aI50
aI3614
aI3615
aI50
aI757
aI3617
aI50
aI3619
aI3620
aI50
aI3621
aI2579
aI3622
aI50
aI1363
aI3623
aI50
aI889
aI1682
aI3624
aI50
aI1363
aI50
aI520
aI1626
aI1353
aI1130
aI489
aI1423
aI1518
aI397
aI2513
aI96
aI128
aI151
aI96
aI128
aI3092
aI962
aI54
aI3628
aI3629
aI327
aI775
aI3449
aI1415
aI2132
aI3631
aI1939
aI2481
aI3632
aI128
aI3633
aI3634
aI975
aI2788
aI3137
aI3635
aI3285
aI1300
aI2132
aI3636
aI3285
aI2019
aI720
aI1353
aI3637
aI3638
aI522
aI96
aI585
aI128
aI530
aI2153
aI680
aI368
aI3639
aI3640
aI449
aI993
aI24
aI489
aI3642
aI909
aI1415
aI489
aI2132
aI1866
aI3644
aI882
aI250
aI449
aI900
aI3645
aI50
aI3632
aI3171
aI96
aI1470
aI3646
aI3647
aI96
aI2103
aI1715
aI3565
aI3649
aI3650
aI3640
aI3651
aI3652
aI3646
aI465
aI128
aI2103
aI3610
aI465
aI3639
aI882
aI3653
aI206
aI3478
aI3654
aI1107
aI3655
aI3522
aI1911
aI1518
aI489
aI2966
aI1205
aI1912
aI564
aI3657
aI2966
aI3660
aI3663
aI962
aI3665
aI333
aI3628
aI3201
aI3666
aI3570
aI717
aI953
aI3667
aI2133
aI3668
aI489
aI341
aI3273
aI489
aI115
aI76
aI1707
aI1470
aI489
aI3671
aI465
aI143
aI2
aI3601
aI489
aI2924
aI556
aI143
aI822
aI3677
aI794
aI489
aI3455
aI1546
aI1492
aI652
aI3671
aI3681
aI1470
aI143
aI3683
aI3671
aI3685
aI3686
aI1470
aI449
aI250
aI465
aI1866
aI494
aI768
aI1306
aI822
aI234
aI457
aI437
aI945
aI11
aI898
aI961
aI301
aI1609
aI694
aI3628
aI457
aI2239
aI3689
aI3043
aI976
aI3690
aI3380
aI3691
aI2704
aI3692
aI3693
aI249
aI206
aI96
aI835
aI3694
aI50
aI3177
aI694
aI3695
aI47
aI3697
aI889
aI3607
aI556
aI3699
aI1696
aI3700
aI967
aI206
aI3702
aI2362
aI3602
aI3703
aI1749
aI823
aI3705
aI489
aI1220
aI3702
aI822
aI489
aI3285
aI923
aI3654
aI3706
aI3602
aI3557
aI3699
aI961
aI3707
aI3709
aI2924
aI2924
aI794
aI489
aI2343
aI1073
aI472
aI489
aI489
aI3711
aI609
aI3712
aI3713
aI2365
aI329
aI3715
aI3465
aI3716
aI945
aI3717
aI3718
aI1096
aI1415
aI341
aI1911
aI1089
aI249
aI3719
aI920
aI976
aI923
aI489
aI1012
aI3176
aI1096
aI3557
aI1883
aI1712
aI465
aI96
aI976
aI475
aI1167
aI848
aI514
aI882
aI205
aI1713
aI3723
aI375
aI206
aI999
aI3724
aI3484
aI3725
aI457
aI3335
aI3727
aI3728
aI206
aI768
aI3729
aI28
aI2445
aI999
aI489
aI3730
aI3436
aI1031
aI3728
aI3732
aI3447
aI1151
aI543
aI3335
aI489
aI993
aI433
aI3734
aI3735
aI153
aI1209
aI1242
aI3736
aI335
aI3737
aI3738
aI3728
aI489
aI848
aI3739
aI1131
aI1248
aI665
aI3740
aI3741
aI1709
aI1353
aI831
aI545
aI3742
aI3743
aI1059
aI2056
aI3236
aI433
aI255
aI3444
aI3744
aI3745
aI3746
aI3747
aI520
aI126
aI3218
aI207
aI345
aI128
aI3748
aI153
aI3176
aI3444
aI3749
aI962
aI54
aI456
aI151
aI514
aI1360
aI3751
aI199
aI3752
aI3754
aI3755
aI993
aI2042
aI3638
aI3757
aI1
aI206
aI3607
aI3759
aI1415
aI1415
aI962
aI1096
aI3763
aI1415
aI433
aI603
aI433
aI3465
aI1124
aI327
aI1415
aI3767
aI764
aI3768
aI3632
aI206
aI717
aI1492
aI3772
aI3773
aI764
aI2781
aI255
aI3247
aI3774
aI3775
aI3776
aI3778
aI3780
aI3781
aI1415
aI126
aI2360
aI3768
aI3394
aI3783
aI1415
aI1415
aI3785
aI3787
aI3788
aI47
aI3790
aI3741
aI3792
aI1227
aI3793
aI386
aI50
aI3234
aI327
aI3794
aI1062
aI2445
aI386
aI524
aI717
aI3796
aI3566
aI3380
aI3797
aI3689
aI3654
aI3794
aI1530
aI3344
aI206
aI961
aI433
aI3798
aI3486
aI2065
aI115
aI3799
aI3486
aI1863
aI147
aI3537
aI3801
aI465
aI2365
aI3802
aI3555
aI50
aI56
aI180
aI39
aI3803
aI3804
aI2993
aI56
aI50
aI49
aI39
aI1665
aI39
aI50
aI3808
aI3809
aI33
aI898
aI3810
aI3493
aI3812
aI822
aI3003
aI389
aI3814
aI3816
aI1816
aI3808
aI3817
aI1549
aI2060
aI3818
aI3819
aI3096
aI3820
aI3822
aI50
aI81
aI489
aI3823
aI3824
aI2399
aI412
aI3826
aI1415
aI2686
aI151
aI3827
aI1326
aI775
aI923
aI1911
aI3749
aI368
aI280
aI3828
aI128
aI1518
aI3829
aI3335
aI3689
aI3729
aI955
aI206
aI76
aI3830
aI2609
aI1641
aI345
aI3831
aI1581
aI3436
aI1121
aI1227
aI341
aI3832
aI335
aI822
aI3736
aI3828
aI234
aI51
aI47
aI717
aI1945
aI234
aI3834
aI234
aI836
aI2622
aI1119
aI2033
aI3835
aI1307
aI210
aI949
aI11
aI164
aI2879
aI3797
aI806
aI1883
aI128
aI5
aI105
aI128
aI465
aI1353
aI3842
aI1248
aI3844
aI3610
aI465
aI489
aI3444
aI704
aI489
aI3285
aI3233
aI3845
aI1300
aI3201
aI389
aI822
aI3847
aI2154
aI3848
aI3849
aI3850
aI2940
aI1062
aI3851
aI3465
aI3853
aI3854
aI3607
aI3856
aI7
aI15
aI1237
aI489
aI921
aI489
aI489
aI1697
aI3380
aI1237
aI489
aI1099
aI822
aI921
aI489
aI3857
aI3201
aI822
aI2656
aI1979
aI3860
aI96
aI740
aI3485
aI1096
aI1237
aI489
aI7
aI2190
aI3861
aI2190
aI822
aI489
aI918
aI1571
aI1237
aI1577
aI3864
aI3243
aI126
aI3485
aI639
aI3867
aI490
aI923
aI90
aI3869
aI922
aI3308
aI3870
aI391
aI3573
aI961
aI3654
aI1940
aI2418
aI1495
aI2041
aI3793
aI3874
aI391
aI47
aI3878
aI2641
aI3879
aI717
aI489
aI3793
aI3880
aI302
aI3881
aI3759
aI489
aI1808
aI1697
aI1242
aI964
aI3370
aI2042
aI1574
aI489
aI1
aI3884
aI489
aI2052
aI1499
aI152
aI3404
aI1034
aI1310
aI49
aI3885
aI489
aI49
aI714
aI590
aI545
aI3886
aI822
aI253
aI1034
aI2527
aI652
aI835
aI1200
aI3887
aI128
aI898
aI3607
aI1248
aI3890
aI197
aI943
aI1499
aI1174
aI2178
aI1415
aI128
aI1571
aI2070
aI15
aI3892
aI3893
aI375
aI3894
aI1493
aI128
aI47
aI3895
aI634
aI681
aI3897
aI634
aI489
aI155
aI1904
aI206
aI433
aI2933
aI634
aI1248
aI1415
aI592
aI3628
aI3900
aI3788
aI3236
aI836
aI630
aI206
aI3150
aI905
aI3903
aI1415
aI1518
aI1203
aI3905
aI3484
aI206
aI511
aI3907
aI465
aI1518
aI961
aI47
aI3778
aI3051
aI397
aI2990
aI694
aI954
aI3555
aI153
aI259
aI47
aI397
aI164
aI1353
aI3844
aI465
aI3908
aI3322
aI491
aI1353
aI397
aI7
aI1096
aI302
aI47
aI1338
aI3909
aI3565
aI3910
aI1452
aI3911
aI1571
aI39
aI1470
aI3741
aI1518
aI3569
aI3912
aI1424
aI33
aI1008
aI456
aI481
aI1225
aI3150
aI3915
aI1571
aI3918
aI39
aI918
aI1242
aI3798
aI822
aI3920
aI1227
aI3921
aI388
aI3233
aI818
aI889
aI3923
aI1237
aI47
aI789
aI47
aI128
aI1387
aI1866
aI1040
aI3072
aI3486
aI1096
aI962
aI96
aI397
aI1866
aI299
aI889
aI490
aI1696
aI3926
aI3928
aI1546
aI1387
aI3930
aI3072
aI3931
aI3932
aI3072
aI433
aI3933
aI1242
aI1021
aI1240
aI1512
aI3935
aI1246
aI1021
aI3557
aI3937
aI444
aI489
aI3657
aI836
aI3444
aI3101
aI2076
aI3938
aI90
aI487
aI932
aI822
aI1062
aI206
aI3566
aI1574
aI822
aI3942
aI714
aI3234
aI932
aI56
aI1559
aI50
aI3945
aI717
aI3935
aI1485
aI3946
aI932
aI822
aI1238
aI5
aI489
aI851
aI1672
aI2362
aI3176
aI771
aI3285
aI3947
aI489
aI1948
aI489
aI1371
aI3949
aI3951
aI1340
aI3628
aI456
aI1278
aI3952
aI1465
aI1340
aI3285
aI3546
aI3504
aI3465
aI3926
aI822
aI3654
aI993
aI489
aI3176
aI3953
aI389
aI324
aI489
aI3955
aI636
aI88
aI489
aI822
aI283
aI3957
aI3958
aI3960
aI2154
aI283
aI489
aI1353
aI1248
aI609
aI1321
aI495
aI1300
aI3964
aI3965
aI3444
aI397
aI389
aI490
aI316
aI3966
aI3967
aI1009
aI2909
aI1131
aI3097
aI1360
aI3812
aI2582
aI1361
aI489
aI3972
aI489
aI495
aI1203
aI3974
aI3975
aI1062
aI206
aI1203
aI206
aI341
aI3689
aI3976
aI1543
aI954
aI255
aI3977
aI259
aI206
aI128
aI47
aI1497
aI835
aI590
aI511
aI126
aI3546
aI206
aI3886
aI1518
aI3072
aI1034
aI2527
aI652
aI117
aI52
aI54
aI3978
aI2879
aI3979
aI889
aI3597
aI105
aI206
aI3072
aI1415
aI3330
aI681
aI3980
aI54
aI3981
aI465
aI259
aI3983
aI3987
aI798
aI389
aI489
aI3988
aI3989
aI3990
aI1248
aI389
aI3992
aI440
aI489
aI253
aI3983
aI3233
aI3989
aI1886
aI489
aI3364
aI489
aI822
aI1310
aI1124
aI3989
aI1530
aI1677
aI3683
aI844
aI545
aI105
aI489
aI636
aI751
aI3607
aI3663
aI3997
aI297
aI3124
aI489
aI128
aI47
aI786
aI1470
aI794
aI206
aI465
aI1464
aI862
aI335
aI868
aI2
aI2129
aI3998
aI206
aI1470
aI3635
aI3999
aI670
aI3465
aI1641
aI3309
aI3432
aI634
aI2153
aI1971
aI449
aI3485
aI1415
aI634
aI3628
aI976
aI3072
aI2739
aI47
aI1537
aI1415
aI128
aI4001
aI4002
aI206
aI770
aI147
aI4004
aI206
aI1581
aI4006
aI96
aI1537
aI1415
aI128
aI4007
aI206
aI3335
aI3737
aI3650
aI484
aI4009
aI1537
aI1415
aI128
aI4012
aI4013
aI4014
aI3235
aI3723
aI2919
aI4016
aI1741
aI206
aI489
aI1581
aI3650
aI3723
aI4017
aI1862
aI4016
aI1415
aI2042
aI489
aI966
aI50
aI391
aI15
aI2947
aI3176
aI585
aI489
aI24
aI3434
aI3435
aI3285
aI4020
aI4021
aI489
aI1768
aI822
aI4023
aI971
aI4024
aI1415
aI2696
aI47
aI1096
aI962
aI962
aI47
aI1415
aI945
aI475
aI2042
aI1448
aI3946
aI2919
aI4028
aI4029
aI1444
aI4030
aI2117
aI4031
aI1866
aI4032
aI4033
aI3424
aI659
aI2919
aI910
aI3247
aI1444
aI868
aI4035
aI3444
aI4037
aI770
aI4038
aI15
aI159
aI478
aI961
aI4039
aI128
aI1996
aI478
aI3285
aI3854
aI4042
aI4044
aI4045
aI457
aI659
aI786
aI4047
aI128
aI96
aI1415
aI1415
aI1719
aI822
aI2919
aI1518
aI3848
aI770
aI3285
aI898
aI206
aI3723
aI3117
aI768
aI324
aI206
aI3797
aI1340
aI3285
aI1307
aI4050
aI493
aI1340
aI3285
aI1303
aI432
aI1601
aI3854
aI49
aI1574
aI4051
aI3285
aI3953
aI681
aI2919
aI976
aI206
aI768
aI518
aI4054
aI1622
aI4055
aI4057
aI4058
aI206
aI4060
aI4055
aI1735
aI2070
aI518
aI1530
aI1518
aI585
aI206
aI4062
aI433
aI86
aI1332
aI137
aI86
aI3169
aI4063
aI489
aI585
aI4055
aI128
aI806
aI518
aI105
aI3592
aI197
aI490
aI2481
aI3061
aI1188
aI983
aI3783
aI1009
aI1340
aI1371
aI961
aI4067
aI847
aI1888
aI784
aI4071
aI3660
aI1210
aI4072
aI389
aI64
aI2788
aI361
aI335
aI4073
aI1107
aI2641
aI3309
aI2781
aI465
aI1229
aI4076
aI3885
aI4077
aI1009
aI1609
aI518
aI2168
aI768
aI457
aI3413
aI1185
aI3886
aI4079
aI3746
aI2042
aI4080
aI1034
aI4050
aI488
aI4081
aI488
aI4082
aI4083
aI3587
aI403
aI2103
aI987
aI1227
aI389
aI3587
aI3729
aI4085
aI76
aI4087
aI105
aI2343
aI3216
aI2399
aI465
aI1307
aI396
aI3587
aI488
aI3433
aI1131
aI4089
aI489
aI3436
aI327
aI3711
aI4020
aI2138
aI1715
aI3410
aI1073
aI489
aI993
aI489
aI520
aI4092
aI1855
aI128
aI3796
aI609
aI1915
aI976
aI50
aI4093
aI4095
aI4096
aI1307
aI288
aI1007
aI207
aI2885
aI1423
aI1424
aI489
aI945
aI2860
aI50
aI4097
aI489
aI3076
aI3796
aI3273
aI3557
aI1518
aI1957
aI1518
aI2181
aI4104
aI4108
aI955
aI1010
aI4111
aI462
aI4113
aI2905
aI882
aI1957
aI2346
aI260
aI4120
aI50
aI3444
aI465
aI128
aI4047
aI3066
aI1388
aI432
aI1423
aI2103
aI4123
aI2942
aI1979
aI206
aI465
aI50
aI889
aI3711
aI4124
aI4125
aI2609
aI250
aI1707
aI4127
aI3486
aI4128
aI3967
aI1009
aI961
aI1738
aI457
aI465
aI4129
aI1516
aI644
aI1911
aI1240
aI1238
aI2042
aI50
aI3382
aI4130
aI4131
aI252
aI3388
aI206
aI1895
aI2845
aI397
aI4133
aI1415
aI4134
aI3792
aI634
aI302
aI4136
aI3885
aI4137
aI465
aI1415
aI4138
aI4140
aI3557
aI1424
aI786
aI478
aI634
aI3285
aI679
aI1518
aI4142
aI1415
aI1101
aI962
aI1415
aI4143
aI4144
aI1415
aI4146
aI206
aI335
aI206
aI1031
aI457
aI335
aI4149
aI3043
aI4150
aI4152
aI307
aI2082
aI976
aI3051
aI3433
aI3444
aI2884
aI4154
aI3043
aI489
aI375
aI671
aI4155
aI250
aI3218
aI4156
aI4157
aI153
aI4158
aI3983
aI1743
aI3388
aI2103
aI1110
aI4159
aI302
aI489
aI848
aI4161
aI2456
aI1581
aI652
aI1643
aI1396
aI368
aI433
aI980
aI1815
aI327
aI953
aI39
aI1225
aI1278
aI1225
aI1754
aI1854
aI1912
aI1549
aI4125
aI2640
aI389
aI980
aI609
aI368
aI7
aI1225
aI33
aI475
aI1815
aI2052
aI147
aI609
aI39
aI4164
aI465
aI39
aI78
aI465
aI1225
aI609
aI1420
aI39
aI1364
aI465
aI465
aI1861
aI980
aI2720
aI465
aI76
aI4167
aI1996
aI4170
aI1999
aI3557
aI489
aI4174
aI22
aI1688
aI489
aI1550
aI11
aI4175
aI333
aI806
aI4176
aI465
aI603
aI2084
aI3190
aI720
aI2156
aI2153
aI2132
aI177
aI115
aI151
aI3253
aI862
aI54
aI2788
aI1883
aI3638
aI1012
aI3589
aI1837
aI806
aI59
aI57
aI4179
aI4180
aI57
aI786
aI4179
aI2821
aI3798
aI465
aI1808
aI2845
aI304
aI4183
aI15
aI151
aI4184
aI2919
aI1729
aI4071
aI3573
aI465
aI1756
aI2582
aI181
aI954
aI465
aI50
aI1011
aI15
aI507
aI478
aI249
aI4187
aI389
aI489
aI751
aI1415
aI4188
aI1518
aI4189
aI206
aI4190
aI1518
aI4191
aI2611
aI4192
aI3774
aI3778
aI4193
aI1497
aI465
aI51
aI609
aI1415
aI1493
aI1415
aI249
aI3615
aI2346
aI4195
aI426
aI15
aI2929
aI50
aI924
aI609
aI2042
aI3823
aI4188
aI250
aI4190
aI4198
aI955
aI206
aI1712
aI636
aI670
aI1896
aI4199
aI449
aI490
aI1868
aI2388
aI3470
aI206
aI105
aI1188
aI335
aI962
aI869
aI2103
aI206
aI2879
aI4202
aI50
aI718
aI4203
aI634
aI1518
aI1307
aI3096
aI4205
aI3247
aI3234
aI2885
aI4207
aI206
aI634
aI3285
aI1062
aI3743
aI2
aI1512
aI4208
aI478
aI1601
aI822
aI2885
aI869
aI786
aI1542
aI1979
aI4210
aI478
aI822
aI3773
aI128
aI2103
aI206
aI1227
aI2929
aI3470
aI206
aI302
aI2609
aI4203
aI206
aI2037
aI253
aI128
aI2445
aI822
aI345
aI1518
aI4212
aI1707
aI3097
aI28
aI462
aI3201
aI4213
aI1307
aI862
aI922
aI1315
aI1245
aI4214
aI4137
aI462
aI3947
aI4216
aI4217
aI1315
aI457
aI1719
aI449
aI628
aI932
aI494
aI4219
aI4220
aI166
aI180
aI494
aI2365
aI1188
aI4137
aI603
aI52
aI1485
aI465
aI1158
aI1712
aI1336
aI962
aI115
aI1237
aI1008
aI1415
aI1518
aI4224
aI1315
aI489
aI368
aI302
aI489
aI1543
aI4226
aI3433
aI3444
aI4227
aI836
aI3444
aI652
aI361
aI511
aI489
aI1315
aI4230
aI1999
aI3301
aI489
aI4231
aI2133
aI1158
aI7
aI862
aI720
aI1315
aI728
aI76
aI327
aI1697
aI433
aI465
aI112
aI4235
aI4092
aI462
aI128
aI1307
aI465
aI397
aI4237
aI2885
aI2845
aI3216
aI4238
aI345
aI489
aI3727
aI3247
aI4239
aI90
aI1543
aI105
aI1883
aI50
aI2395
aI4243
aI4244
aI1778
aI2862
aI4245
aI2389
aI307
aI976
aI976
aI1978
aI489
aI50
aI1717
aI489
aI636
aI2178
aI489
aI2254
aI3450
aI1971
aI929
aI1364
aI3557
aI955
aI4249
aI4251
aI1150
aI4252
aI1261
aI3385
aI3468
aI4256
aI4257
aI1969
aI2461
aI4258
aI50
aI1375
aI478
aI1110
aI4237
aI1172
aI397
aI2395
aI50
aI4097
aI465
aI955
aI929
aI882
aI3096
aI4259
aI307
aI307
aI489
aI465
aI4261
aI457
aI3132
aI150
aI2182
aI489
aI1574
aI449
aI2025
aI489
aI197
aI4263
aI1574
aI489
aI495
aI2845
aI1574
aI489
aI489
aI2845
aI88
aI1001
aI2845
aI88
aI4266
aI489
aI126
aI1046
aI831
aI993
aI489
aI3444
aI3096
aI489
aI2919
aI1574
aI126
aI514
aI2919
aI545
aI2982
aI128
aI507
aI1415
aI923
aI250
aI128
aI4268
aI449
aI128
aI976
aI835
aI3315
aI2343
aI4270
aI4079
aI1444
aI206
aI4271
aI3247
aI4272
aI206
aI105
aI4273
aI1888
aI2527
aI1712
aI128
aI4220
aI2066
aI105
aI908
aI457
aI128
aI128
aI771
aI128
aI489
aI1609
aI2111
aI1454
aI4276
aI4277
aI726
aI976
aI4278
aI1664
aI4279
aI1012
aI4281
aI2168
aI1099
aI489
aI2929
aI3378
aI249
aI4283
aI4284
aI4285
aI2451
aI848
aI115
aI50
aI806
aI854
aI2350
aI835
aI4286
aI3523
aI366
aI1712
aI3885
aI4288
aI4276
aI4289
aI3557
aI128
aI465
aI128
aI412
aI770
aI1415
aI629
aI2181
aI128
aI3297
aI465
aI1470
aI2138
aI4293
aI882
aI128
aI1426
aI206
aI1227
aI4294
aI1434
aI206
aI636
aI961
aI1217
aI128
aI335
aI4245
aI206
aI5
aI3262
aI1101
aI375
aI1996
aI3216
aI250
aI3527
aI24
aI3253
aI210
aI976
aI3251
aI1512
aI249
aI636
aI433
aI389
aI4296
aI4297
aI489
aI4298
aI489
aI4299
aI465
aI3885
aI1332
aI3465
aI1415
aI976
aI720
aI923
aI4302
aI2156
aI1315
aI4303
aI1415
aI99
aI3201
aI2070
aI489
aI1227
aI1337
aI553
aI4076
aI1518
aI3832
aI3740
aI3741
aI1709
aI1353
aI831
aI545
aI3742
aI3743
aI1059
aI2056
aI3236
aI433
aI255
aI3444
aI3744
aI3745
aI3746
aI3747
aI520
aI126
aI3218
aI207
aI345
aI128
aI3748
aI153
aI3176
aI3444
aI3749
aI962
aI54
aI1470
aI4308
aI4309
aI3297
aI2
aI2060
aI335
aI3285
aI3111
aI2076
aI250
aI249
aI4310
aI882
aI4133
aI1971
aI976
aI2845
aI3189
aI4313
aI4314
aI1707
aI4317
aI1131
aI2065
aI1237
aI4319
aI206
aI4320
aI656
aI862
aI545
aI4321
aI128
aI1322
aI4297
aI1008
aI1655
aI76
aI1066
aI489
aI115
aI489
aI4322
aI3509
aI4323
aI4244
aI419
aI4324
aI2640
aI1452
aI717
aI2788
aI1978
aI1768
aI1978
aI3309
aI1567
aI1655
aI1501
aI90
aI2187
aI99
aI3644
aI206
aI2414
aI1707
aI50
aI4325
aI798
aI631
aI3668
aI3512
aI2133
aI1768
aI1978
aI1863
aI76
aI1988
aI740
aI494
aI49
aI57
aI4331
aI4332
aI4334
aI1754
aI4335
aI3912
aI30
aI599
aI78
aI151
aI1225
aI33
aI3565
aI3549
aI465
aI1470
aI30
aI1641
aI341
aI30
aI592
aI481
aI3767
aI1225
aI78
aI3343
aI2042
aI50
aI4342
aI39
aI4343
aI4344
aI39
aI117
aI885
aI465
aI495
aI489
aI1845
aI489
aI1530
aI1210
aI4348
aI1131
aI3660
aI206
aI634
aI368
aI456
aI368
aI540
aI704
aI489
aI1205
aI335
aI457
aI540
aI4350
aI368
aI704
aI489
aI199
aI4351
aI15
aI489
aI164
aI1242
aI4352
aI4353
aI2310
aI4355
aI909
aI4356
aI909
aI206
aI1248
aI501
aI2103
aI335
aI1324
aI489
aI3727
aI1406
aI2445
aI540
aI1031
aI3728
aI489
aI3436
aI4357
aI3424
aI368
aI4358
aI489
aI3285
aI3444
aI255
aI3729
aI197
aI1300
aI253
aI126
aI206
aI2060
aI1641
aI2178
aI3887
aI3983
aI898
aI1896
aI4286
aI3236
aI489
aI2132
aI335
aI822
aI3097
aI4259
aI449
aI1707
aI489
aI954
aI3140
aI1030
aI126
aI932
aI4361
aI489
aI2454
aI4363
aI4140
aI1361
aI2274
aI4364
aI2288
aI1046
aI4366
aI278
aI489
aI465
aI1361
aI1982
aI4014
aI2619
aI2453
aI4367
aI1574
aI4368
aI206
aI634
aI1340
aI389
aI3285
aI345
aI1324
aI1530
aI836
aI1735
aI1001
aI50
aI1307
aI4371
aI489
aI335
aI128
aI368
aI1434
aI2885
aI433
asS'TO'
p23
(lp24
I31
aI31
aI31
aI31
aI31
aI31
aI31
aI31
aI31
aI31
aI31
aI31
aI31
aI31
aI31
aI31
aI31
aI31
aI31
aI31
aI31
aI31
aI31
aI31
aI31
aI31
aI31
aI31
aI31
aI31
aI31
aI31
aI31
aI31
aI31
aI31
aI31
aI31
aI31
aI31
aI31
aI31
aI31
aI31
aI31
aI31
aI31
aI31
aI31
aI31
aI31
aI31
aI31
aI31
aI31
aI31
aI31
aI31
aI31
aI31
aI31
aI31
aI31
aI31
aI31
aI31
aI31
aI31
aI31
aI31
aI31
aI31
aI31
aI31
aI31
aI31
aI31
aI31
aI31
aI31
aI31
aI31
aI31
aI31
aI31
aI31
aI31
aI31
aI31
aI31
aI31
aI31
aI31
aI31
aI31
aI31
aI31
aI31
aI31
aI31
aI31
aI31
aI31
aI31
aI31
aI31
aI31
aI31
aI31
aI31
aI31
aI31
aI31
aI31
aI31
aI31
aI31
aI31
aI31
aI31
aI31
aI31
aI31
aI31
aI31
aI31
aI31
aI31
aI31
aI31
aI31
aI31
aI31
aI31
aI31
aI31
aI31
aI31
aI31
aI31
aI31
aI31
aI31
aI31
aI31
aI31
aI31
aI31
aI31
aI31
aI31
aI31
aI31
aI31
aI31
aI31
aI31
aI31
aI31
aI31
aI31
aI31
aI31
aI31
aI31
aI31
aI31
aI31
aI31
aI31
aI31
aI31
aI31
aI31
aI31
aI31
aI31
aI31
aI31
aI31
aI31
aI31
aI31
aI31
aI31
aI31
aI31
aI31
aI31
aI31
aI31
aI31
aI31
aI31
aI31
aI31
aI31
aI31
aI31
aI31
aI31
aI31
aI31
aI31
aI31
aI31
aI31
aI31
aI31
aI31
aI31
aI31
aI31
aI31
aI31
aI31
aI31
aI31
aI31
aI31
aI31
aI31
aI31
aI31
aI31
aI31
aI31
aI31
aI31
aI31
aI31
aI31
aI31
aI31
aI31
aI31
aI31
aI31
aI31
aI31
aI31
aI31
aI31
aI31
aI31
aI31
aI31
aI31
aI31
aI31
aI31
aI31
aI31
aI31
aI31
aI31
aI31
aI31
aI31
aI31
aI31
aI31
aI31
aI31
aI31
aI31
aI31
aI31
aI31
aI31
aI31
aI31
aI31
aI31
aI31
aI31
aI31
aI31
aI31
aI31
aI31
aI31
aI31
aI31
aI31
aI31
aI31
aI31
aI31
aI31
aI31
aI31
aI31
aI31
aI31
aI31
aI31
aI31
aI31
aI31
aI31
aI31
aI31
aI31
aI31
aI31
aI31
aI31
aI31
aI31
aI31
aI31
aI31
aI31
aI31
aI31
aI31
aI31
aI31
aI31
aI31
aI31
aI31
aI31
aI31
aI31
aI31
aI31
aI31
aI31
aI31
aI31
aI31
aI31
aI31
aI31
aI31
aI31
aI31
aI31
aI31
aI31
aI31
aI31
aI31
aI31
aI31
aI31
aI31
aI31
aI31
aI31
aI31
aI31
aI31
aI31
aI31
aI31
aI31
aI31
aI31
aI31
aI31
aI31
aI31
aI31
aI31
aI31
aI31
aI31
aI31
aI31
aI31
aI31
aI31
aI31
aI31
aI31
aI31
aI31
aI31
aI31
aI31
aI31
aI31
aI31
aI31
aI31
aI31
aI31
aI31
aI31
aI31
aI31
aI31
aI31
aI31
aI31
aI31
aI31
aI31
aI31
aI31
aI31
aI31
aI31
aI31
aI31
aI31
aI31
aI31
aI31
aI31
aI31
aI31
aI31
aI31
aI31
aI31
aI31
aI31
aI31
aI31
aI31
aI31
aI31
aI31
aI31
aI31
aI31
aI31
aI31
aI31
aI31
aI31
aI31
aI31
aI31
aI31
aI31
aI31
aI31
aI31
aI31
aI31
aI31
aI31
aI31
aI31
aI31
aI31
aI31
aI31
aI31
aI31
aI31
aI31
aI31
aI31
aI31
aI31
aI31
aI31
aI31
aI31
aI31
aI31
aI31
aI31
aI31
aI31
aI31
aI31
aI31
aI31
aI31
aI31
aI31
aI31
aI31
aI31
aI31
aI31
aI31
aI31
aI31
aI31
aI31
aI31
aI31
aI31
aI31
aI31
aI31
aI31
aI31
aI31
aI31
aI31
aI31
aI31
aI31
aI31
aI31
aI31
aI31
aI31
aI31
aI31
aI31
aI31
aI31
aI31
aI31
aI31
aI31
aI31
aI31
aI31
aI31
aI31
aI31
aI31
aI31
aI31
aI31
aI31
aI31
aI31
aI31
aI31
aI31
aI31
aI31
aI31
aI31
aI31
aI31
aI31
aI31
aI31
aI31
aI31
aI31
aI31
aI31
aI31
aI31
aI31
aI31
aI31
aI31
aI31
aI31
aI31
aI31
aI31
aI31
aI31
aI31
aI31
aI31
aI31
aI31
aI31
aI31
aI31
aI31
aI31
aI31
aI31
aI31
aI31
aI31
aI31
aI31
aI31
aI31
aI31
aI31
aI31
aI31
aI31
aI31
aI31
aI31
aI31
aI31
aI31
aI31
aI31
aI31
aI31
aI31
aI31
aI31
aI31
aI31
aI31
aI31
aI31
aI31
aI31
aI31
aI31
aI31
aI31
aI31
aI31
aI31
aI31
aI31
aI31
aI31
aI31
aI31
aI31
aI31
aI31
aI31
aI31
aI31
aI31
aI31
aI31
aI31
aI31
aI31
aI31
aI31
aI31
aI31
aI31
aI31
aI31
aI31
aI31
aI31
aI31
aI31
aI31
aI31
aI31
aI31
aI31
aI31
aI31
aI31
aI31
aI31
aI31
aI31
aI31
aI31
aI31
aI31
aI31
aI31
aI31
aI31
aI31
aI31
aI31
aI31
aI31
aI31
aI31
aI31
aI31
aI31
aI31
asS'PRP'
p25
(lp26
I3
aI144
aI168
aI175
aI168
aI168
aI267
aI144
aI144
aI292
aI144
aI144
aI175
aI292
aI144
aI144
aI144
aI469
aI499
aI168
aI168
aI168
aI570
aI292
aI175
aI267
aI581
aI581
aI581
aI581
aI581
aI581
aI581
aI581
aI144
aI640
aI581
aI581
aI581
aI581
aI175
aI581
aI581
aI581
aI581
aI581
aI144
aI144
aI144
aI581
aI267
aI144
aI168
aI499
aI168
aI499
aI144
aI144
aI499
aI499
aI640
aI499
aI499
aI499
aI144
aI581
aI499
aI292
aI292
aI570
aI292
aI175
aI144
aI144
aI499
aI499
aI499
aI499
aI499
aI267
aI267
aI499
aI267
aI267
aI499
aI499
aI292
aI640
aI292
aI640
aI499
aI175
aI175
aI499
aI267
aI267
aI499
aI499
aI267
aI292
aI499
aI3
aI499
aI499
aI499
aI144
aI144
aI499
aI499
aI499
aI267
aI175
aI499
aI1357
aI144
aI267
aI640
aI144
aI3
aI499
aI175
aI499
aI499
aI144
aI144
aI168
aI499
aI499
aI168
aI499
aI499
aI168
aI292
aI292
aI499
aI175
aI499
aI499
aI144
aI640
aI267
aI267
aI469
aI499
aI292
aI640
aI292
aI144
aI499
aI144
aI499
aI499
aI499
aI499
aI267
aI175
aI499
aI499
aI175
aI267
aI267
aI175
aI292
aI581
aI581
aI581
aI581
aI581
aI581
aI581
aI3
aI581
aI581
aI581
aI581
aI144
aI3
aI144
aI292
aI570
aI581
aI581
aI581
aI581
aI144
aI292
aI292
aI144
aI581
aI581
aI581
aI581
aI581
aI581
aI175
aI581
aI499
aI499
aI581
aI581
aI581
aI144
aI581
aI581
aI144
aI499
aI292
aI3
aI144
aI144
aI499
aI144
aI499
aI144
aI499
aI1838
aI175
aI640
aI175
aI292
aI144
aI499
aI144
aI175
aI267
aI144
aI175
aI168
aI168
aI168
aI267
aI267
aI144
aI267
aI292
aI292
aI499
aI581
aI581
aI581
aI144
aI581
aI499
aI581
aI499
aI581
aI581
aI581
aI499
aI499
aI499
aI581
aI581
aI499
aI499
aI581
aI581
aI499
aI581
aI499
aI499
aI499
aI144
aI144
aI499
aI499
aI144
aI581
aI581
aI581
aI581
aI292
aI581
aI581
aI144
aI175
aI175
aI175
aI175
aI175
aI144
aI175
aI267
aI175
aI581
aI499
aI499
aI175
aI175
aI175
aI581
aI499
aI499
aI581
aI581
aI292
aI144
aI581
aI581
aI581
aI581
aI581
aI144
aI581
aI581
aI175
aI581
aI175
aI581
aI581
aI581
aI267
aI581
aI581
aI581
aI499
aI144
aI581
aI292
aI144
aI499
aI175
aI267
aI175
aI267
aI499
aI144
aI499
aI499
aI499
aI499
aI499
aI499
aI144
aI267
aI499
aI499
aI499
aI499
aI144
aI499
aI499
aI144
aI640
aI499
aI499
aI144
aI499
aI499
aI292
aI292
aI570
aI292
aI144
aI144
aI175
aI499
aI292
aI581
aI267
aI499
aI292
aI640
aI292
aI581
aI581
aI581
aI144
aI175
aI267
aI175
aI267
aI144
aI581
aI144
aI499
aI499
aI144
aI144
aI581
aI581
aI581
aI499
aI581
aI581
aI581
aI581
aI581
aI292
aI292
aI3
aI570
aI499
aI267
aI175
aI144
aI267
aI144
aI144
aI144
aI499
aI581
aI144
aI144
aI499
aI499
aI499
aI499
aI581
aI581
aI499
aI581
aI581
aI499
aI144
aI144
aI144
aI144
aI640
aI144
aI581
aI581
aI144
aI144
aI144
aI144
aI581
aI581
aI499
aI144
aI144
aI144
aI144
aI499
aI499
aI499
aI499
aI499
aI499
aI3
aI3
aI3
aI581
aI267
aI144
aI144
aI144
aI499
aI581
aI581
aI499
aI581
aI581
aI499
aI292
aI570
aI292
aI292
aI499
aI640
aI499
aI499
aI292
aI3
aI1357
aI640
aI640
aI3
aI3
aI144
aI144
aI144
aI144
aI144
aI499
aI499
aI499
aI144
aI144
aI292
aI292
aI292
aI499
aI640
aI168
aI168
aI640
aI292
aI144
aI499
aI292
aI499
aI144
aI499
aI292
aI499
aI144
aI499
aI499
aI267
aI499
aI499
aI175
aI175
aI175
aI499
aI175
aI267
aI267
aI499
aI267
aI267
aI175
aI499
aI144
aI3
aI499
aI144
aI499
aI499
aI499
aI292
aI292
aI144
aI292
aI292
aI168
aI168
aI499
aI168
aI499
aI168
aI168
aI168
aI168
aI499
aI168
aI3
aI499
aI499
aI499
aI499
aI499
aI168
aI292
aI499
aI499
aI144
aI499
aI292
aI292
aI499
aI499
aI168
aI144
aI144
aI144
aI144
aI168
aI499
aI499
aI499
aI499
aI499
aI499
aI168
aI144
aI168
aI144
aI168
aI3077
aI499
aI499
aI292
aI292
aI144
aI144
aI144
aI144
aI499
aI499
aI499
aI499
aI499
aI499
aI175
aI175
aI144
aI499
aI292
aI640
aI168
aI581
aI168
aI499
aI168
aI144
aI144
aI267
aI267
aI267
aI581
aI3274
aI292
aI144
aI144
aI144
aI144
aI581
aI581
aI499
aI581
aI499
aI581
aI581
aI581
aI581
aI175
aI292
aI292
aI292
aI292
aI292
aI292
aI640
aI292
aI3
aI499
aI168
aI499
aI640
aI168
aI499
aI168
aI168
aI168
aI499
aI499
aI499
aI499
aI3401
aI499
aI499
aI581
aI168
aI168
aI168
aI499
aI581
aI581
aI144
aI581
aI168
aI144
aI175
aI144
aI168
aI499
aI168
aI168
aI168
aI168
aI168
aI292
aI640
aI144
aI168
aI168
aI168
aI168
aI144
aI168
aI168
aI168
aI144
aI499
aI499
aI499
aI168
aI168
aI168
aI168
aI499
aI168
aI292
aI499
aI499
aI499
aI499
aI292
aI499
aI144
aI499
aI499
aI3630
aI144
aI144
aI581
aI581
aI581
aI499
aI144
aI499
aI144
aI499
aI581
aI267
aI3401
aI168
aI640
aI292
aI168
aI499
aI144
aI144
aI144
aI168
aI168
aI168
aI168
aI144
aI175
aI144
aI175
aI168
aI168
aI168
aI168
aI144
aI499
aI144
aI144
aI499
aI168
aI499
aI581
aI499
aI499
aI499
aI570
aI292
aI144
aI144
aI292
aI144
aI499
aI267
aI292
aI292
aI640
aI499
aI168
aI499
aI499
aI267
aI168
aI640
aI144
aI168
aI144
aI292
aI175
aI267
aI168
aI168
aI168
aI175
aI499
aI499
aI168
aI144
aI499
aI144
aI144
aI144
aI144
aI168
aI168
aI168
aI168
aI144
aI499
aI144
aI144
aI144
aI499
aI570
aI3401
aI3401
aI3401
aI3401
aI144
aI144
aI144
aI499
aI3274
aI499
aI499
aI168
aI144
aI499
aI168
aI581
aI499
aI144
aI499
aI168
aI292
aI168
aI168
aI640
aI640
aI292
aI570
aI292
aI168
aI168
aI175
aI144
aI168
aI581
aI144
aI144
aI581
aI267
aI640
aI267
aI581
aI499
aI581
aI499
aI3630
aI581
aI292
aI175
aI144
aI144
aI3401
aI640
aI640
aI175
aI499
aI499
aI168
aI499
aI144
aI640
aI3
aI499
aI499
aI168
aI168
aI168
aI168
aI168
aI168
aI168
aI175
aI267
aI144
aI144
aI581
aI144
aI499
aI267
aI499
aI168
aI144
aI175
aI3274
aI168
aI144
aI168
aI175
aI292
aI499
aI499
aI168
aI168
aI144
aI175
aI1357
aI1357
aI3
aI581
aI144
aI175
aI267
aI499
aI640
aI640
aI581
aI581
aI267
aI640
aI581
aI581
aI292
aI3630
aI499
aI267
aI267
aI499
aI168
aI499
aI1357
aI3
aI3
aI3
aI1357
aI1357
aI292
aI168
aI267
aI168
aI267
aI144
aI3274
aI499
aI581
aI144
aI144
aI144
aI144
aI3401
aI581
aI144
aI267
aI581
aI175
aI175
aI581
aI144
aI267
aI499
aI499
aI499
aI499
aI144
aI144
aI168
aI3401
aI581
aI292
aI292
aI570
aI144
aI144
aI469
aI499
aI292
aI3401
aI499
aI144
aI581
aI581
aI3274
aI499
aI144
aI581
aI175
aI175
aI499
aI3401
aI499
aI168
aI168
aI168
aI168
aI581
aI581
aI499
aI499
aI581
aI570
aI292
aI144
aI144
aI292
aI144
aI499
aI267
aI292
aI292
aI640
aI499
aI168
aI3274
aI3401
aI292
aI292
aI640
aI499
aI499
aI144
aI1357
aI3401
aI3401
aI499
asS'RB'
p27
(lp28
I8
aI12
aI48
aI55
aI60
aI74
aI55
aI94
aI109
aI55
aI158
aI55
aI94
aI94
aI184
aI185
aI94
aI158
aI217
aI109
aI158
aI226
aI94
aI229
aI109
aI184
aI257
aI261
aI266
aI271
aI158
aI109
aI296
aI158
aI109
aI306
aI306
aI158
aI109
aI48
aI158
aI343
aI353
aI296
aI226
aI55
aI94
aI385
aI158
aI393
aI158
aI74
aI407
aI296
aI447
aI296
aI94
aI94
aI94
aI158
aI296
aI94
aI505
aI512
aI94
aI516
aI158
aI523
aI12
aI158
aI557
aI343
aI562
aI109
aI583
aI94
aI109
aI597
aI94
aI94
aI158
aI226
aI158
aI447
aI643
aI74
aI672
aI109
aI158
aI55
aI226
aI94
aI296
aI516
aI226
aI158
aI734
aI353
aI94
aI750
aI184
aI48
aI48
aI761
aI765
aI761
aI158
aI779
aI94
aI779
aI94
aI158
aI266
aI226
aI816
aI158
aI842
aI158
aI94
aI870
aI109
aI94
aI158
aI447
aI158
aI158
aI158
aI779
aI94
aI109
aI109
aI94
aI886
aI158
aI94
aI158
aI597
aI185
aI158
aI48
aI94
aI109
aI296
aI55
aI226
aI158
aI969
aI271
aI109
aI158
aI982
aI158
aI94
aI94
aI1002
aI109
aI158
aI109
aI109
aI1023
aI109
aI1038
aI1043
aI109
aI158
aI296
aI1023
aI94
aI672
aI158
aI1075
aI229
aI1094
aI226
aI109
aI109
aI343
aI109
aI779
aI109
aI1128
aI158
aI266
aI55
aI229
aI55
aI969
aI158
aI109
aI353
aI1202
aI1211
aI94
aI672
aI55
aI226
aI1234
aI158
aI447
aI158
aI296
aI226
aI672
aI1291
aI94
aI229
aI266
aI158
aI226
aI158
aI94
aI158
aI94
aI158
aI109
aI94
aI109
aI48
aI94
aI779
aI672
aI229
aI158
aI407
aI94
aI583
aI109
aI109
aI226
aI226
aI447
aI158
aI226
aI1390
aI761
aI447
aI296
aI886
aI886
aI1291
aI226
aI266
aI672
aI158
aI1411
aI226
aI1414
aI1043
aI94
aI672
aI1427
aI229
aI109
aI109
aI109
aI94
aI158
aI109
aI1023
aI109
aI1458
aI158
aI94
aI94
aI842
aI229
aI1481
aI597
aI185
aI55
aI672
aI109
aI597
aI185
aI8
aI1043
aI55
aI109
aI94
aI296
aI516
aI158
aI296
aI55
aI60
aI343
aI158
aI158
aI672
aI94
aI816
aI1560
aI1562
aI583
aI1023
aI1583
aI158
aI1593
aI1128
aI1043
aI109
aI109
aI109
aI886
aI1043
aI94
aI158
aI94
aI94
aI886
aI779
aI1628
aI94
aI1648
aI1661
aI60
aI94
aI158
aI184
aI94
aI158
aI296
aI672
aI94
aI158
aI94
aI672
aI158
aI597
aI969
aI94
aI842
aI94
aI94
aI447
aI158
aI266
aI672
aI842
aI94
aI969
aI55
aI226
aI1023
aI94
aI94
aI158
aI816
aI1811
aI48
aI1023
aI266
aI94
aI94
aI94
aI1822
aI271
aI94
aI55
aI55
aI516
aI55
aI8
aI296
aI761
aI1043
aI516
aI94
aI158
aI94
aI185
aI296
aI1894
aI1898
aI1900
aI1902
aI512
aI229
aI1919
aI55
aI1922
aI55
aI94
aI779
aI1043
aI55
aI516
aI306
aI94
aI672
aI1043
aI94
aI109
aI158
aI158
aI226
aI816
aI94
aI158
aI94
aI226
aI343
aI158
aI229
aI109
aI1984
aI158
aI94
aI109
aI1995
aI94
aI158
aI672
aI271
aI2001
aI217
aI447
aI94
aI2009
aI516
aI343
aI779
aI306
aI447
aI516
aI296
aI257
aI109
aI94
aI48
aI94
aI55
aI229
aI55
aI109
aI761
aI1043
aI516
aI94
aI1023
aI94
aI2059
aI158
aI816
aI296
aI1094
aI2068
aI296
aI94
aI2071
aI597
aI296
aI94
aI870
aI94
aI94
aI2104
aI2110
aI226
aI229
aI229
aI55
aI184
aI226
aI597
aI158
aI109
aI1023
aI2140
aI343
aI2148
aI516
aI109
aI969
aI226
aI158
aI296
aI672
aI158
aI886
aI886
aI226
aI94
aI870
aI870
aI8
aI886
aI886
aI447
aI48
aI1023
aI158
aI266
aI229
aI158
aI94
aI94
aI158
aI296
aI2208
aI296
aI447
aI94
aI109
aI48
aI1075
aI158
aI343
aI109
aI48
aI1234
aI597
aI185
aI94
aI158
aI109
aI74
aI94
aI597
aI1043
aI1481
aI48
aI94
aI94
aI158
aI48
aI55
aI816
aI109
aI55
aI158
aI158
aI158
aI158
aI94
aI257
aI842
aI55
aI94
aI158
aI158
aI229
aI516
aI516
aI158
aI109
aI158
aI94
aI158
aI226
aI94
aI94
aI296
aI266
aI886
aI816
aI158
aI158
aI2334
aI60
aI1023
aI184
aI447
aI94
aI516
aI94
aI158
aI2383
aI226
aI226
aI257
aI516
aI94
aI226
aI2410
aI516
aI296
aI226
aI779
aI94
aI2419
aI94
aI266
aI2383
aI94
aI48
aI94
aI158
aI8
aI94
aI158
aI226
aI109
aI55
aI779
aI158
aI109
aI55
aI158
aI761
aI886
aI158
aI158
aI266
aI271
aI109
aI158
aI447
aI8
aI842
aI296
aI226
aI842
aI226
aI296
aI94
aI306
aI158
aI2483
aI94
aI816
aI296
aI296
aI886
aI229
aI765
aI8
aI55
aI184
aI109
aI55
aI672
aI94
aI1234
aI158
aI55
aI158
aI226
aI55
aI55
aI158
aI55
aI226
aI257
aI842
aI672
aI94
aI158
aI266
aI842
aI8
aI597
aI158
aI2541
aI94
aI8
aI2546
aI94
aI266
aI583
aI1560
aI55
aI8
aI109
aI672
aI158
aI1094
aI109
aI2110
aI109
aI1234
aI672
aI447
aI94
aI74
aI94
aI982
aI94
aI2604
aI2606
aI1043
aI343
aI842
aI343
aI2633
aI447
aI842
aI158
aI672
aI109
aI226
aI109
aI158
aI94
aI158
aI109
aI296
aI158
aI158
aI8
aI158
aI158
aI672
aI816
aI8
aI1043
aI1481
aI2541
aI158
aI94
aI672
aI266
aI306
aI1043
aI158
aI94
aI296
aI8
aI94
aI55
aI296
aI1023
aI842
aI94
aI55
aI969
aI109
aI969
aI109
aI1458
aI55
aI158
aI94
aI2541
aI158
aI343
aI158
aI672
aI779
aI94
aI8
aI94
aI158
aI886
aI158
aI343
aI886
aI2791
aI158
aI816
aI1023
aI158
aI158
aI2813
aI229
aI158
aI48
aI158
aI60
aI158
aI158
aI55
aI158
aI886
aI94
aI158
aI94
aI226
aI94
aI2856
aI94
aI94
aI158
aI94
aI257
aI447
aI226
aI447
aI1023
aI109
aI266
aI447
aI226
aI1023
aI8
aI226
aI94
aI2900
aI447
aI226
aI158
aI94
aI158
aI229
aI158
aI1390
aI158
aI870
aI672
aI447
aI109
aI109
aI229
aI1234
aI158
aI1043
aI109
aI109
aI158
aI226
aI55
aI94
aI94
aI296
aI158
aI158
aI94
aI158
aI226
aI296
aI1234
aI1043
aI969
aI158
aI296
aI226
aI94
aI94
aI266
aI1023
aI1043
aI109
aI94
aI296
aI109
aI158
aI226
aI158
aI94
aI55
aI2980
aI1043
aI2983
aI1043
aI158
aI158
aI158
aI886
aI158
aI158
aI158
aI1811
aI2059
aI447
aI1390
aI886
aI1811
aI94
aI158
aI226
aI158
aI48
aI94
aI226
aI158
aI94
aI55
aI94
aI158
aI158
aI229
aI1023
aI1043
aI60
aI158
aI158
aI516
aI1481
aI158
aI94
aI185
aI94
aI296
aI185
aI296
aI1458
aI3065
aI158
aI226
aI226
aI816
aI1043
aI516
aI516
aI94
aI94
aI94
aI343
aI109
aI94
aI109
aI969
aI296
aI158
aI55
aI55
aI2980
aI3118
aI94
aI158
aI447
aI109
aI158
aI94
aI158
aI94
aI109
aI158
aI158
aI158
aI158
aI94
aI55
aI158
aI257
aI266
aI2541
aI158
aI48
aI158
aI226
aI158
aI109
aI750
aI94
aI3173
aI296
aI1922
aI226
aI969
aI343
aI94
aI447
aI266
aI158
aI3205
aI1593
aI229
aI842
aI109
aI3237
aI3239
aI109
aI1458
aI158
aI353
aI55
aI296
aI94
aI94
aI109
aI226
aI779
aI1458
aI3263
aI3266
aI55
aI109
aI1900
aI3276
aI48
aI3280
aI94
aI3286
aI2148
aI8
aI158
aI296
aI158
aI226
aI158
aI306
aI779
aI969
aI94
aI816
aI779
aI158
aI109
aI816
aI184
aI3323
aI109
aI109
aI184
aI816
aI74
aI158
aI353
aI8
aI816
aI447
aI226
aI2148
aI158
aI8
aI816
aI158
aI296
aI109
aI583
aI1043
aI3376
aI226
aI109
aI158
aI94
aI109
aI109
aI94
aI779
aI3280
aI94
aI48
aI816
aI55
aI94
aI2148
aI94
aI343
aI2148
aI94
aI1481
aI353
aI296
aI3239
aI226
aI2009
aI597
aI271
aI94
aI94
aI842
aI886
aI1481
aI94
aI1023
aI94
aI1023
aI3458
aI3263
aI3471
aI257
aI3476
aI94
aI158
aI3479
aI226
aI266
aI226
aI184
aI1822
aI765
aI765
aI226
aI779
aI969
aI94
aI296
aI2071
aI55
aI185
aI2900
aI886
aI306
aI3239
aI1481
aI226
aI3534
aI109
aI158
aI816
aI94
aI597
aI185
aI343
aI516
aI1043
aI8
aI94
aI3561
aI886
aI8
aI266
aI597
aI94
aI8
aI779
aI2148
aI60
aI2856
aI779
aI516
aI3605
aI969
aI226
aI1043
aI447
aI48
aI226
aI3280
aI109
aI393
aI1234
aI226
aI296
aI94
aI109
aI55
aI55
aI816
aI94
aI55
aI2148
aI8
aI55
aI109
aI8
aI3561
aI55
aI184
aI109
aI271
aI109
aI94
aI109
aI158
aI158
aI94
aI2148
aI94
aI1390
aI184
aI1458
aI1458
aI226
aI296
aI109
aI158
aI158
aI158
aI1900
aI109
aI94
aI816
aI109
aI1023
aI94
aI55
aI447
aI226
aI597
aI184
aI109
aI296
aI158
aI94
aI94
aI226
aI74
aI8
aI266
aI296
aI109
aI779
aI1995
aI3770
aI94
aI3771
aI48
aI3777
aI447
aI158
aI886
aI3782
aI48
aI816
aI296
aI226
aI2791
aI2009
aI353
aI271
aI407
aI516
aI2148
aI2009
aI343
aI3561
aI94
aI94
aI109
aI109
aI94
aI2148
aI109
aI779
aI8
aI3839
aI94
aI94
aI3841
aI94
aI94
aI816
aI8
aI982
aI60
aI158
aI109
aI3863
aI226
aI2541
aI447
aI1458
aI109
aI109
aI2148
aI1922
aI3479
aI734
aI94
aI3888
aI158
aI2148
aI109
aI109
aI94
aI185
aI74
aI3901
aI48
aI643
aI1234
aI229
aI158
aI447
aI94
aI672
aI226
aI184
aI48
aI447
aI306
aI447
aI94
aI109
aI226
aI3917
aI158
aI816
aI226
aI94
aI109
aI8
aI158
aI109
aI94
aI2110
aI779
aI266
aI158
aI842
aI109
aI3943
aI109
aI109
aI158
aI109
aI8
aI158
aI94
aI94
aI109
aI60
aI94
aI516
aI55
aI94
aI229
aI266
aI94
aI94
aI2148
aI109
aI94
aI48
aI2419
aI3985
aI1593
aI1458
aI226
aI158
aI158
aI109
aI94
aI94
aI969
aI353
aI158
aI158
aI94
aI158
aI158
aI158
aI109
aI109
aI4005
aI229
aI982
aI55
aI94
aI94
aI2383
aI158
aI296
aI4025
aI226
aI393
aI3266
aI886
aI343
aI94
aI94
aI1023
aI94
aI109
aI447
aI94
aI94
aI982
aI158
aI353
aI4059
aI94
aI109
aI4059
aI779
aI74
aI158
aI3782
aI4068
aI353
aI109
aI48
aI2791
aI353
aI55
aI94
aI4084
aI109
aI55
aI516
aI3266
aI3561
aI94
aI779
aI3479
aI3534
aI779
aI306
aI1023
aI94
aI4109
aI184
aI2148
aI306
aI4121
aI557
aI158
aI266
aI266
aI94
aI226
aI158
aI3239
aI94
aI12
aI55
aI969
aI226
aI516
aI1481
aI779
aI94
aI266
aI296
aI158
aI226
aI4160
aI583
aI94
aI2148
aI94
aI516
aI816
aI4165
aI597
aI3561
aI94
aI4169
aI109
aI672
aI779
aI2208
aI4181
aI2148
aI447
aI158
aI226
aI158
aI1458
aI886
aI184
aI4186
aI886
aI597
aI3280
aI94
aI55
aI8
aI4160
aI94
aI4194
aI94
aI343
aI734
aI1481
aI185
aI266
aI158
aI583
aI583
aI94
aI672
aI185
aI2856
aI266
aI1995
aI158
aI842
aI842
aI4222
aI516
aI597
aI94
aI3561
aI94
aI4234
aI353
aI184
aI3782
aI48
aI1211
aI55
aI4246
aI4247
aI266
aI94
aI94
aI8
aI226
aI2148
aI266
aI1023
aI226
aI816
aI226
aI2208
aI94
aI2009
aI226
aI2009
aI2009
aI226
aI226
aI597
aI185
aI2419
aI109
aI816
aI60
aI353
aI842
aI60
aI4274
aI779
aI94
aI109
aI4282
aI109
aI353
aI226
aI516
aI2148
aI94
aI2208
aI94
aI94
aI109
aI94
aI94
aI94
aI353
aI2148
aI94
aI343
aI296
aI158
aI94
aI94
aI226
aI74
aI158
aI447
aI266
aI226
aI8
aI48
aI60
aI94
aI353
aI94
aI158
aI158
aI2791
aI158
aI353
aI447
aI343
aI271
aI779
aI4346
aI3943
aI1043
aI296
aI4354
aI779
aI48
aI296
aI94
aI48
aI516
aI353
aI4359
aI2009
aI55
aI229
aI94
aI266
aI583
aI1922
asS'NNS'
p29
(lp30
I4
aI27
aI41
aI85
aI89
aI41
aI110
aI27
aI129
aI172
aI186
aI189
aI192
aI196
aI214
aI227
aI186
aI244
aI251
aI258
aI264
aI268
aI272
aI274
aI281
aI295
aI244
aI315
aI319
aI321
aI319
aI321
aI319
aI321
aI319
aI319
aI332
aI344
aI350
aI350
aI27
aI390
aI392
aI392
aI398
aI405
aI268
aI408
aI415
aI428
aI429
aI27
aI452
aI454
aI455
aI458
aI461
aI463
aI466
aI483
aI244
aI321
aI538
aI549
aI272
aI551
aI552
aI558
aI567
aI571
aI392
aI463
aI483
aI584
aI601
aI604
aI551
aI610
aI615
aI618
aI623
aI624
aI625
aI626
aI633
aI27
aI615
aI651
aI658
aI615
aI667
aI668
aI274
aI686
aI551
aI698
aI251
aI702
aI295
aI709
aI668
aI27
aI716
aI722
aI725
aI408
aI658
aI727
aI27
aI729
aI731
aI41
aI737
aI738
aI739
aI668
aI745
aI584
aI753
aI756
aI759
aI766
aI709
aI27
aI668
aI244
aI780
aI790
aI796
aI392
aI251
aI709
aI668
aI824
aI828
aI829
aI834
aI837
aI838
aI824
aI27
aI839
aI840
aI824
aI853
aI858
aI863
aI295
aI866
aI872
aI877
aI110
aI902
aI350
aI915
aI925
aI27
aI928
aI41
aI27
aI189
aI27
aI27
aI941
aI27
aI189
aI390
aI27
aI615
aI950
aI952
aI272
aI956
aI957
aI41
aI970
aI990
aI998
aI1003
aI1006
aI1015
aI1018
aI1024
aI1028
aI1037
aI1015
aI1055
aI1057
aI1064
aI615
aI1070
aI27
aI839
aI1079
aI1086
aI1024
aI429
aI1104
aI1106
aI1108
aI863
aI1113
aI1086
aI1122
aI1126
aI1070
aI1136
aI1137
aI408
aI1142
aI1086
aI863
aI1152
aI1153
aI408
aI1155
aI1159
aI709
aI668
aI1171
aI1177
aI1179
aI828
aI1189
aI1191
aI1194
aI1064
aI1216
aI1223
aI1064
aI1239
aI1241
aI214
aI1252
aI1253
aI1255
aI1256
aI1260
aI1262
aI1263
aI1265
aI1064
aI244
aI1269
aI668
aI1275
aI1275
aI483
aI1288
aI1296
aI1301
aI1296
aI244
aI251
aI1256
aI408
aI321
aI319
aI1341
aI321
aI319
aI1348
aI186
aI731
aI110
aI1354
aI1024
aI1024
aI1296
aI725
aI658
aI1385
aI1386
aI466
aI1389
aI1392
aI1393
aI1410
aI737
aI1417
aI1296
aI27
aI863
aI1431
aI1436
aI759
aI27
aI27
aI27
aI1443
aI110
aI1431
aI110
aI1443
aI1450
aI1459
aI1460
aI1461
aI1467
aI1469
aI1255
aI1467
aI1482
aI1488
aI27
aI41
aI1508
aI1024
aI941
aI1521
aI1524
aI1024
aI1024
aI1531
aI952
aI1536
aI1057
aI1539
aI1540
aI1552
aI1553
aI1556
aI1565
aI1565
aI1570
aI1460
aI1580
aI1252
aI1584
aI1591
aI1595
aI41
aI1617
aI1625
aI1629
aI1540
aI716
aI1436
aI1644
aI1651
aI350
aI1658
aI1263
aI1262
aI1663
aI753
aI1216
aI1263
aI1667
aI1668
aI1669
aI1670
aI633
aI1674
aI1680
aI1683
aI1687
aI483
aI27
aI27
aI1695
aI1701
aI27
aI408
aI1716
aI321
aI251
aI1723
aI1732
aI1734
aI321
aI251
aI1758
aI1764
aI110
aI1772
aI1775
aI1617
aI1777
aI626
aI1781
aI483
aI1265
aI1788
aI1792
aI1793
aI1794
aI1795
aI1797
aI321
aI1028
aI1799
aI1436
aI1256
aI251
aI1805
aI716
aI463
aI618
aI1821
aI658
aI110
aI251
aI192
aI709
aI571
aI1122
aI709
aI1849
aI1864
aI1867
aI110
aI1877
aI1878
aI1880
aI1263
aI1921
aI1926
aI244
aI1927
aI110
aI110
aI295
aI1932
aI1936
aI1938
aI251
aI408
aI1137
aI838
aI1947
aI1385
aI1947
aI1950
aI1256
aI27
aI1024
aI1955
aI1956
aI1960
aI1965
aI753
aI110
aI1216
aI1137
aI1981
aI332
aI1024
aI863
aI272
aI2006
aI2008
aI2010
aI2014
aI2016
aI2018
aI332
aI2035
aI2036
aI1024
aI2039
aI2044
aI551
aI2061
aI2062
aI990
aI571
aI626
aI272
aI192
aI2079
aI2087
aI2092
aI2094
aI2097
aI27
aI2108
aI2112
aI2113
aI729
aI2115
aI731
aI2122
aI2123
aI214
aI2131
aI2152
aI27
aI839
aI27
aI1947
aI2158
aI668
aI2159
aI2160
aI2163
aI990
aI110
aI737
aI990
aI551
aI463
aI27
aI244
aI1179
aI214
aI2200
aI2202
aI2205
aI2206
aI1354
aI2209
aI2211
aI990
aI1024
aI2213
aI2216
aI2220
aI990
aI990
aI463
aI1024
aI1024
aI2227
aI2230
aI2237
aI2238
aI2245
aI2248
aI1269
aI1024
aI2262
aI1565
aI2270
aI1256
aI2289
aI2292
aI2295
aI2296
aI2300
aI2301
aI2303
aI2304
aI2307
aI839
aI2311
aI1389
aI925
aI1864
aI350
aI350
aI192
aI2323
aI2324
aI2327
aI1024
aI350
aI463
aI729
aI2248
aI2335
aI2336
aI2339
aI463
aI2341
aI1256
aI863
aI1956
aI2345
aI1275
aI392
aI110
aI538
aI2209
aI2352
aI2354
aI27
aI941
aI863
aI1269
aI729
aI1269
aI2369
aI863
aI2372
aI2376
aI350
aI2379
aI110
aI2382
aI2390
aI2391
aI2397
aI2398
aI2008
aI272
aI2008
aI2407
aI295
aI2412
aI1775
aI731
aI2407
aI2426
aI567
aI1788
aI2429
aI2311
aI1288
aI1288
aI41
aI2438
aI658
aI2407
aI110
aI2450
aI2455
aI392
aI1104
aI2458
aI709
aI2463
aI2464
aI729
aI658
aI85
aI2468
aI2470
aI2472
aI796
aI2475
aI2476
aI618
aI2206
aI2482
aI272
aI990
aI2216
aI2490
aI2493
aI2494
aI2496
aI2497
aI2500
aI2206
aI27
aI110
aI1947
aI27
aI1864
aI863
aI2510
aI2512
aI2514
aI2515
aI2517
aI2518
aI350
aI2519
aI2520
aI2521
aI2522
aI2523
aI2528
aI2531
aI192
aI2539
aI2543
aI2544
aI2548
aI1024
aI2553
aI2554
aI2556
aI2558
aI1256
aI2569
aI1354
aI698
aI2571
aI2112
aI483
aI2578
aI186
aI2206
aI1805
aI2590
aI2596
aI2113
aI618
aI2603
aI2607
aI2610
aI2618
aI2621
aI863
aI2626
aI2628
aI2631
aI2610
aI2632
aI725
aI1296
aI709
aI2642
aI2643
aI2644
aI1106
aI2647
aI2648
aI2044
aI2650
aI863
aI2654
aI2548
aI2659
aI2654
aI2664
aI2300
aI2667
aI2669
aI2671
aI2672
aI350
aI2677
aI2681
aI251
aI2667
aI1252
aI722
aI2245
aI2654
aI756
aI2369
aI2061
aI2700
aI2707
aI1269
aI2715
aI2723
aI1255
aI2724
aI2578
aI2727
aI1864
aI2728
aI2728
aI1864
aI2369
aI2732
aI27
aI651
aI2715
aI2738
aI1288
aI2742
aI2671
aI584
aI2747
aI2751
aI2752
aI2755
aI584
aI584
aI2756
aI2571
aI2113
aI27
aI2113
aI2762
aI2544
aI2764
aI2766
aI1256
aI1024
aI668
aI2770
aI2780
aI2770
aI2785
aI2787
aI2789
aI2794
aI2796
aI295
aI295
aI1956
aI1956
aI2801
aI2804
aI186
aI1864
aI251
aI2811
aI2112
aI1797
aI2039
aI2814
aI651
aI2815
aI2820
aI1552
aI2823
aI2830
aI725
aI2833
aI1797
aI244
aI27
aI2849
aI27
aI398
aI2857
aI268
aI2859
aI2677
aI2867
aI2857
aI2677
aI2859
aI2677
aI2857
aI725
aI725
aI668
aI264
aI27
aI2677
aI2890
aI2892
aI2892
aI2893
aI2894
aI1263
aI1263
aI2476
aI2897
aI2270
aI571
aI2904
aI1256
aI2907
aI27
aI2849
aI2755
aI2913
aI27
aI716
aI2123
aI463
aI2571
aI2955
aI2956
aI725
aI2764
aI863
aI27
aI41
aI350
aI27
aI668
aI2968
aI2970
aI725
aI27
aI27
aI863
aI2976
aI41
aI2978
aI1734
aI110
aI725
aI2985
aI1393
aI1296
aI41
aI1269
aI2407
aI725
aI1055
aI350
aI1385
aI941
aI2262
aI350
aI990
aI990
aI1668
aI668
aI3000
aI3006
aI3007
aI27
aI27
aI2369
aI1296
aI3014
aI737
aI3017
aI1772
aI272
aI3022
aI3024
aI2677
aI3025
aI2245
aI3028
aI3029
aI3030
aI2113
aI27
aI651
aI3038
aI4
aI686
aI1079
aI1965
aI1965
aI1296
aI2227
aI3059
aI2677
aI3068
aI3068
aI3068
aI3078
aI3083
aI281
aI3088
aI332
aI251
aI3094
aI668
aI1795
aI3102
aI3107
aI839
aI1024
aI27
aI3119
aI27
aI698
aI839
aI1255
aI3125
aI3126
aI1255
aI1269
aI27
aI27
aI863
aI1256
aI3143
aI463
aI463
aI725
aI1269
aI3152
aI1732
aI3161
aI3164
aI2648
aI3164
aI3164
aI27
aI668
aI2700
aI1288
aI41
aI27
aI1137
aI3195
aI3200
aI668
aI3203
aI3204
aI1057
aI272
aI3207
aI3212
aI709
aI27
aI1070
aI1255
aI3220
aI3220
aI709
aI272
aI1070
aI1521
aI3228
aI3238
aI863
aI2206
aI950
aI1024
aI1524
aI2764
aI3264
aI3265
aI3270
aI350
aI863
aI27
aI27
aI1252
aI1055
aI3293
aI3302
aI3310
aI408
aI3313
aI3316
aI27
aI2755
aI27
aI2631
aI3083
aI3331
aI27
aI2631
aI2553
aI3264
aI2654
aI3333
aI3334
aI1024
aI27
aI615
aI3355
aI27
aI3359
aI3212
aI1104
aI1137
aI1269
aI3367
aI1070
aI27
aI3094
aI1055
aI1057
aI3207
aI27
aI3406
aI3408
aI3355
aI3409
aI1028
aI1024
aI3420
aI3422
aI3426
aI3427
aI483
aI3429
aI2654
aI3422
aI2648
aI2528
aI3437
aI3438
aI3440
aI863
aI3442
aI3426
aI2248
aI3445
aI27
aI3445
aI3446
aI2677
aI3446
aI3448
aI790
aI3448
aI3453
aI1057
aI3456
aI27
aI3355
aI3265
aI1296
aI3195
aI3466
aI3472
aI839
aI3483
aI863
aI3466
aI3489
aI3491
aI863
aI2517
aI1524
aI1255
aI941
aI3355
aI1152
aI3270
aI2008
aI3518
aI3520
aI3521
aI2407
aI2642
aI3524
aI3525
aI3355
aI1805
aI3539
aI27
aI3547
aI3302
aI350
aI27
aI3094
aI3553
aI3554
aI350
aI3556
aI27
aI668
aI1024
aI3563
aI3310
aI3572
aI3574
aI3576
aI110
aI3585
aI3594
aI27
aI2631
aI3596
aI3599
aI668
aI1269
aI1269
aI3094
aI2044
aI3609
aI1113
aI698
aI651
aI3616
aI2621
aI863
aI668
aI3626
aI3599
aI3656
aI2238
aI3658
aI3659
aI3661
aI3662
aI1256
aI1288
aI3143
aI3669
aI651
aI3675
aI3676
aI3310
aI3682
aI863
aI2464
aI3687
aI3025
aI3688
aI1057
aI3696
aI3310
aI2528
aI3437
aI3126
aI3708
aI651
aI3437
aI2018
aI2036
aI3675
aI1629
aI2206
aI1275
aI3726
aI1064
aI3733
aI27
aI27
aI27
aI863
aI1436
aI658
aI1113
aI110
aI698
aI27
aI3758
aI3760
aI1936
aI3769
aI27
aI839
aI1137
aI27
aI698
aI3207
aI3786
aI3789
aI3791
aI3006
aI1878
aI3805
aI3807
aI3599
aI3491
aI729
aI461
aI350
aI1296
aI2464
aI3836
aI698
aI3840
aI3843
aI1296
aI3859
aI27
aI27
aI3865
aI3868
aI3871
aI3876
aI3083
aI3882
aI3876
aI3524
aI2036
aI2631
aI1524
aI3896
aI3898
aI3898
aI2672
aI3896
aI3896
aI350
aI3902
aI2968
aI3904
aI1137
aI3491
aI1459
aI1795
aI1057
aI27
aI668
aI3914
aI27
aI27
aI1055
aI3927
aI3929
aI350
aI41
aI3936
aI3939
aI3940
aI3941
aI3944
aI3941
aI1155
aI2438
aI1670
aI1695
aI3950
aI3954
aI3959
aI3969
aI3971
aI350
aI3688
aI2379
aI1805
aI461
aI3982
aI1772
aI2751
aI3991
aI1113
aI3993
aI390
aI3994
aI3995
aI3996
aI1024
aI1288
aI350
aI4003
aI863
aI4008
aI4010
aI483
aI4015
aI4019
aI3083
aI27
aI3466
aI4026
aI584
aI4027
aI2113
aI2801
aI4041
aI2801
aI716
aI1777
aI1086
aI1385
aI2669
aI1296
aI2732
aI1393
aI1687
aI3556
aI1695
aI2035
aI1393
aI3954
aI4064
aI110
aI4066
aI3333
aI4070
aI2464
aI27
aI863
aI4075
aI668
aI1018
aI244
aI2654
aI1275
aI1269
aI3896
aI4088
aI3789
aI3896
aI3954
aI3954
aI1070
aI2677
aI295
aI4100
aI4101
aI1695
aI4102
aI4103
aI2677
aI1263
aI4105
aI4107
aI4110
aI27
aI4112
aI272
aI4115
aI4116
aI4118
aI295
aI4122
aI3207
aI4126
aI1795
aI429
aI2044
aI2113
aI4132
aI1821
aI584
aI461
aI2296
aI4168
aI1153
aI2796
aI1256
aI4178
aI295
aI3626
aI4182
aI4185
aI3207
aI295
aI390
aI3265
aI863
aI4204
aI4206
aI1734
aI3207
aI1936
aI2206
aI3865
aI321
aI2464
aI2248
aI4223
aI729
aI1777
aI3954
aI863
aI3456
aI3898
aI3726
aI2248
aI1024
aI3355
aI4242
aI3265
aI1024
aI4248
aI3524
aI4254
aI4255
aI4260
aI1024
aI4264
aI27
aI4267
aI27
aI1024
aI668
aI295
aI3556
aI2206
aI4290
aI27
aI3553
aI3491
aI3446
aI3448
aI990
aI2112
aI3898
aI2206
aI27
aI27
aI27
aI863
aI1436
aI658
aI2553
aI4311
aI1024
aI390
aI4316
aI4318
aI863
aI429
aI408
aI2206
aI4327
aI4328
aI4330
aI3661
aI4333
aI990
aI3954
aI625
aI41
aI4338
aI4339
aI4341
aI110
aI1443
aI2590
aI2621
aI251
aI1024
aI1436
aI463
aI27
aI461
aI4365
aI2482
aI3437
aI4369
asS'VB'
p31
(lp32
I71
aI71
aI114
aI136
aI71
aI148
aI71
aI148
aI71
aI219
aI71
aI235
aI71
aI71
aI305
aI71
aI136
aI71
aI71
aI326
aI71
aI136
aI71
aI381
aI326
aI326
aI326
aI71
aI445
aI71
aI71
aI71
aI136
aI136
aI305
aI305
aI326
aI148
aI148
aI136
aI326
aI566
aI326
aI148
aI136
aI580
aI219
aI594
aI608
aI114
aI305
aI326
aI617
aI566
aI114
aI594
aI653
aI326
aI136
aI710
aI136
aI219
aI719
aI721
aI114
aI719
aI71
aI71
aI326
aI774
aI148
aI136
aI136
aI326
aI710
aI809
aI326
aI326
aI71
aI305
aI721
aI114
aI305
aI71
aI71
aI445
aI219
aI114
aI71
aI305
aI148
aI594
aI617
aI148
aI617
aI608
aI148
aI305
aI71
aI978
aI136
aI326
aI1016
aI445
aI148
aI326
aI580
aI594
aI326
aI326
aI136
aI617
aI1148
aI219
aI710
aI71
aI617
aI136
aI305
aI1231
aI219
aI617
aI71
aI617
aI136
aI71
aI71
aI305
aI326
aI71
aI326
aI1316
aI326
aI326
aI148
aI1316
aI326
aI136
aI219
aI617
aI219
aI219
aI71
aI305
aI326
aI71
aI71
aI305
aI774
aI219
aI235
aI136
aI1316
aI1316
aI71
aI326
aI71
aI71
aI71
aI617
aI235
aI71
aI1421
aI774
aI774
aI594
aI148
aI326
aI136
aI71
aI114
aI148
aI148
aI326
aI71
aI71
aI1466
aI71
aI719
aI617
aI580
aI719
aI71
aI719
aI148
aI594
aI326
aI235
aI326
aI114
aI1575
aI608
aI1466
aI594
aI1466
aI608
aI445
aI566
aI235
aI219
aI1616
aI136
aI1148
aI608
aI617
aI219
aI617
aI326
aI594
aI71
aI71
aI71
aI326
aI148
aI71
aI305
aI148
aI719
aI71
aI326
aI617
aI326
aI617
aI71
aI136
aI580
aI326
aI305
aI71
aI71
aI71
aI71
aI114
aI148
aI71
aI617
aI136
aI326
aI326
aI445
aI71
aI326
aI594
aI326
aI71
aI617
aI326
aI71
aI617
aI148
aI617
aI617
aI1316
aI719
aI774
aI617
aI617
aI71
aI235
aI580
aI326
aI219
aI219
aI326
aI1959
aI71
aI1421
aI71
aI71
aI219
aI1989
aI71
aI136
aI114
aI326
aI305
aI326
aI71
aI326
aI1316
aI235
aI71
aI617
aI71
aI71
aI148
aI71
aI580
aI326
aI326
aI445
aI608
aI219
aI608
aI594
aI1316
aI617
aI710
aI617
aI71
aI71
aI219
aI710
aI219
aI114
aI326
aI136
aI1148
aI71
aI136
aI1231
aI1316
aI71
aI617
aI71
aI71
aI710
aI617
aI326
aI71
aI617
aI719
aI71
aI219
aI114
aI710
aI305
aI1959
aI710
aI114
aI1959
aI719
aI326
aI617
aI71
aI71
aI326
aI114
aI71
aI326
aI136
aI326
aI326
aI719
aI219
aI235
aI326
aI235
aI617
aI719
aI71
aI1316
aI136
aI326
aI148
aI594
aI326
aI617
aI608
aI71
aI608
aI71
aI326
aI617
aI326
aI326
aI326
aI1466
aI326
aI136
aI2349
aI617
aI148
aI1316
aI774
aI114
aI114
aI71
aI326
aI617
aI617
aI136
aI710
aI617
aI71
aI136
aI219
aI71
aI114
aI136
aI71
aI136
aI71
aI71
aI326
aI136
aI1148
aI774
aI71
aI617
aI617
aI71
aI71
aI305
aI71
aI617
aI148
aI617
aI710
aI148
aI617
aI719
aI594
aI114
aI114
aI2536
aI617
aI721
aI71
aI235
aI580
aI617
aI617
aI617
aI617
aI219
aI326
aI809
aI608
aI326
aI566
aI148
aI114
aI136
aI71
aI326
aI617
aI114
aI114
aI219
aI305
aI978
aI71
aI719
aI71
aI617
aI326
aI617
aI617
aI136
aI71
aI71
aI594
aI617
aI617
aI594
aI617
aI617
aI617
aI71
aI71
aI219
aI71
aI71
aI71
aI617
aI71
aI219
aI1989
aI445
aI326
aI136
aI617
aI148
aI71
aI326
aI71
aI71
aI617
aI617
aI774
aI71
aI305
aI1316
aI326
aI71
aI219
aI136
aI617
aI71
aI71
aI617
aI148
aI608
aI566
aI136
aI114
aI136
aI71
aI114
aI71
aI326
aI580
aI71
aI617
aI305
aI71
aI71
aI305
aI71
aI305
aI617
aI71
aI71
aI1316
aI774
aI617
aI1959
aI136
aI305
aI719
aI305
aI71
aI136
aI148
aI148
aI148
aI608
aI71
aI1316
aI71
aI114
aI617
aI608
aI721
aI326
aI114
aI617
aI71
aI305
aI617
aI326
aI326
aI71
aI71
aI608
aI71
aI71
aI566
aI326
aI71
aI71
aI594
aI326
aI617
aI71
aI71
aI617
aI71
aI617
aI3046
aI71
aI617
aI617
aI326
aI71
aI71
aI608
aI136
aI719
aI3046
aI305
aI3095
aI71
aI71
aI1421
aI617
aI617
aI617
aI148
aI71
aI114
aI71
aI71
aI594
aI114
aI326
aI326
aI326
aI326
aI326
aI608
aI148
aI219
aI136
aI136
aI148
aI326
aI71
aI608
aI326
aI71
aI326
aI617
aI3167
aI148
aI617
aI71
aI445
aI617
aI719
aI326
aI71
aI710
aI719
aI326
aI71
aI3311
aI326
aI3311
aI71
aI71
aI719
aI594
aI326
aI617
aI71
aI148
aI71
aI148
aI148
aI136
aI326
aI1316
aI326
aI136
aI326
aI326
aI71
aI136
aI305
aI136
aI617
aI326
aI71
aI136
aI235
aI326
aI136
aI326
aI71
aI71
aI71
aI71
aI710
aI71
aI326
aI608
aI326
aI71
aI305
aI326
aI71
aI114
aI305
aI1148
aI326
aI71
aI594
aI326
aI71
aI136
aI326
aI594
aI594
aI326
aI326
aI148
aI71
aI608
aI305
aI617
aI71
aI71
aI71
aI326
aI71
aI71
aI71
aI136
aI326
aI326
aI326
aI594
aI305
aI235
aI148
aI326
aI305
aI71
aI3311
aI608
aI617
aI3701
aI3704
aI326
aI71
aI326
aI326
aI136
aI326
aI617
aI136
aI617
aI617
aI617
aI71
aI71
aI326
aI1316
aI381
aI71
aI136
aI580
aI580
aI71
aI71
aI1148
aI326
aI71
aI71
aI1316
aI136
aI71
aI305
aI326
aI326
aI71
aI305
aI305
aI326
aI71
aI71
aI71
aI136
aI326
aI1316
aI326
aI326
aI3883
aI594
aI235
aI1148
aI148
aI71
aI978
aI608
aI71
aI148
aI617
aI326
aI1316
aI326
aI136
aI617
aI617
aI608
aI580
aI71
aI305
aI326
aI219
aI71
aI136
aI3704
aI617
aI326
aI148
aI326
aI305
aI326
aI326
aI381
aI71
aI71
aI566
aI326
aI305
aI136
aI1316
aI305
aI71
aI136
aI71
aI148
aI136
aI326
aI326
aI71
aI71
aI71
aI594
aI71
aI71
aI326
aI326
aI617
aI1148
aI617
aI136
aI71
aI136
aI617
aI326
aI71
aI1616
aI1148
aI617
aI305
aI71
aI71
aI1616
aI305
aI305
aI326
aI71
aI219
aI326
aI774
aI136
aI71
aI617
aI617
aI1148
aI71
aI148
aI136
aI3095
aI305
aI617
aI4172
aI71
aI326
aI566
aI71
aI1316
aI326
aI136
aI136
aI71
aI136
aI148
aI326
aI978
aI148
aI617
aI136
aI1316
aI326
aI71
aI617
aI71
aI219
aI4228
aI71
aI305
aI4232
aI148
aI617
aI566
aI594
aI148
aI594
aI148
aI305
aI326
aI148
aI326
aI71
aI71
aI1616
aI617
aI235
aI219
aI235
aI219
aI71
aI305
aI136
aI326
aI71
aI617
aI71
aI305
aI566
aI326
aI114
aI326
aI608
aI305
aI305
aI326
aI305
aI3311
aI305
aI617
aI71
aI235
aI617
aI326
aI617
aI148
aI326
aI326
asS'WRB'
p33
(lp34
I43
aI87
aI43
aI43
aI125
aI87
aI87
aI43
aI200
aI200
aI200
aI87
aI125
aI43
aI43
aI87
aI87
aI200
aI200
aI125
aI87
aI87
aI87
aI87
aI87
aI87
aI87
aI87
aI87
aI43
aI87
aI87
aI125
aI87
aI43
aI43
aI125
aI43
aI87
aI43
aI125
aI87
aI125
aI87
aI87
aI87
aI87
aI125
aI43
aI87
aI87
aI200
aI125
aI87
aI125
aI87
aI87
aI125
aI87
aI43
aI87
aI43
aI87
aI87
aI125
aI87
aI125
aI87
aI87
aI43
aI43
aI87
aI87
aI125
aI87
aI87
aI125
aI43
aI87
aI87
aI87
aI87
aI200
aI125
aI87
aI87
aI200
aI43
aI87
aI125
aI87
aI87
aI87
aI43
aI87
aI87
aI43
aI125
aI43
aI43
aI125
aI87
aI87
aI87
aI87
aI87
aI87
aI87
aI125
aI125
aI87
aI43
aI200
aI200
aI200
aI87
aI200
aI87
aI87
aI43
aI87
aI43
aI87
aI87
aI200
aI200
aI200
aI43
aI125
aI125
aI87
aI125
aI87
aI87
aI87
aI43
aI87
aI43
aI125
aI87
aI43
aI43
aI87
aI125
aI43
aI87
aI87
aI87
aI87
aI87
aI125
aI125
aI43
aI125
aI125
aI125
aI87
aI43
aI43
aI125
aI43
aI87
aI87
aI87
aI87
aI87
aI87
aI87
aI87
aI43
aI125
aI200
aI200
aI87
aI87
aI87
aI87
aI125
aI87
aI125
aI125
aI87
aI200
aI200
aI87
aI87
aI125
aI87
aI200
aI87
aI43
aI43
aI200
aI200
aI87
aI87
aI87
aI87
aI87
aI200
aI200
aI43
aI125
aI125
aI87
aI87
aI87
aI125
aI200
aI87
aI43
aI87
aI87
aI125
aI87
aI87
aI87
aI87
aI87
aI43
aI125
aI87
aI125
aI125
aI87
aI87
aI87
aI87
aI87
aI87
aI87
aI87
aI125
aI200
aI200
aI125
aI125
aI125
aI200
aI125
aI125
aI87
aI87
aI87
aI125
aI125
aI87
aI125
aI87
aI87
aI87
aI87
aI87
aI87
aI87
aI87
aI87
aI87
aI200
aI200
aI87
aI87
aI87
aI87
aI87
aI87
aI125
aI87
aI200
aI87
aI200
aI87
aI43
aI43
aI125
aI87
aI87
aI43
aI125
aI43
aI125
aI43
aI43
aI87
aI87
aI125
aI87
aI87
aI87
aI87
aI87
aI87
aI87
aI87
aI87
aI87
aI87
asS'CC'
p35
(lp36
I21
aI21
aI61
aI61
aI75
aI61
aI61
aI61
aI61
aI61
aI61
aI75
aI61
aI21
aI61
aI21
aI61
aI61
aI61
aI61
aI61
aI290
aI290
aI21
aI21
aI75
aI61
aI61
aI21
aI61
aI75
aI21
aI61
aI61
aI61
aI21
aI21
aI61
aI21
aI61
aI75
aI75
aI61
aI61
aI61
aI61
aI61
aI61
aI61
aI61
aI61
aI61
aI61
aI61
aI61
aI21
aI61
aI61
aI21
aI61
aI75
aI21
aI75
aI290
aI61
aI75
aI21
aI61
aI61
aI75
aI61
aI61
aI21
aI21
aI61
aI61
aI61
aI21
aI61
aI61
aI75
aI290
aI61
aI21
aI61
aI61
aI61
aI61
aI21
aI61
aI61
aI61
aI61
aI61
aI75
aI21
aI290
aI290
aI75
aI61
aI61
aI61
aI61
aI61
aI61
aI21
aI290
aI21
aI61
aI61
aI61
aI21
aI61
aI61
aI61
aI61
aI61
aI21
aI61
aI61
aI21
aI21
aI21
aI75
aI61
aI61
aI61
aI61
aI61
aI61
aI21
aI61
aI21
aI61
aI61
aI61
aI290
aI21
aI61
aI21
aI61
aI61
aI61
aI61
aI21
aI61
aI61
aI21
aI61
aI61
aI61
aI61
aI61
aI61
aI61
aI61
aI61
aI61
aI61
aI21
aI61
aI61
aI61
aI61
aI61
aI21
aI61
aI61
aI61
aI21
aI61
aI21
aI61
aI21
aI21
aI61
aI61
aI290
aI21
aI21
aI61
aI61
aI61
aI61
aI61
aI61
aI61
aI61
aI61
aI21
aI290
aI21
aI61
aI75
aI75
aI75
aI75
aI75
aI290
aI61
aI61
aI21
aI21
aI61
aI61
aI61
aI61
aI21
aI61
aI61
aI61
aI61
aI21
aI61
aI61
aI61
aI61
aI61
aI61
aI61
aI61
aI21
aI21
aI21
aI61
aI61
aI61
aI21
aI61
aI21
aI21
aI61
aI21
aI21
aI61
aI61
aI21
aI61
aI61
aI61
aI61
aI61
aI61
aI75
aI61
aI61
aI75
aI61
aI61
aI75
aI61
aI21
aI61
aI61
aI61
aI61
aI61
aI61
aI61
aI21
aI21
aI61
aI61
aI75
aI75
aI21
aI61
aI61
aI61
aI61
aI61
aI21
aI21
aI61
aI21
aI61
aI61
aI61
aI290
aI21
aI61
aI290
aI290
aI61
aI61
aI21
aI61
aI75
aI21
aI61
aI290
aI290
aI290
aI290
aI75
aI61
aI21
aI75
aI61
aI75
aI21
aI75
aI75
aI61
aI61
aI21
aI61
aI61
aI61
aI61
aI61
aI61
aI61
aI61
aI21
aI61
aI61
aI61
aI61
aI61
aI75
aI61
aI61
aI61
aI61
aI61
aI75
aI61
aI21
aI290
aI290
aI290
aI21
aI21
aI290
aI75
aI75
aI61
aI61
aI61
aI61
aI61
aI61
aI61
aI61
aI61
aI61
aI61
aI61
aI61
aI21
aI61
aI61
aI75
aI61
aI61
aI21
aI61
aI21
aI21
aI61
aI75
aI21
aI61
aI61
aI290
aI290
aI61
aI61
aI75
aI75
aI61
aI21
aI21
aI21
aI61
aI61
aI75
aI61
aI61
aI61
aI61
aI61
aI75
aI75
aI61
aI75
aI75
aI75
aI61
aI61
aI61
aI61
aI61
aI61
aI61
aI61
aI61
aI61
aI61
aI61
aI61
aI61
aI21
aI61
aI61
aI21
aI21
aI61
aI61
aI61
aI61
aI21
aI61
aI21
aI75
aI61
aI61
aI75
aI75
aI21
aI61
aI61
aI61
aI61
aI61
aI61
aI75
aI61
aI61
aI21
aI21
aI61
aI61
aI61
aI61
aI21
aI290
aI290
aI21
aI61
aI21
aI61
aI61
aI75
aI21
aI61
aI61
aI61
aI61
aI61
aI61
aI61
aI61
aI61
aI21
aI61
aI61
aI61
aI21
aI61
aI61
aI61
aI21
aI61
aI21
aI61
aI61
aI61
aI21
aI75
aI21
aI61
aI61
aI61
aI61
aI21
aI61
aI21
aI61
aI21
aI61
aI61
aI61
aI61
aI61
aI21
aI61
aI61
aI21
aI61
aI61
aI75
aI61
aI290
aI290
aI61
aI75
aI290
aI290
aI21
aI21
aI61
aI61
aI61
aI61
aI61
aI61
aI61
aI61
aI21
aI61
aI21
aI61
aI61
aI21
aI61
aI61
aI61
aI61
aI61
aI61
aI61
aI290
aI61
aI61
aI61
aI61
aI61
aI61
aI61
aI61
aI21
aI21
aI61
aI21
aI290
aI61
aI61
aI61
aI61
aI61
aI61
aI75
aI21
aI61
aI290
aI21
aI61
aI61
aI61
aI21
aI61
aI61
aI61
aI61
aI61
aI290
aI61
aI61
aI75
aI61
aI61
aI290
aI75
aI75
aI61
aI61
aI61
aI21
aI75
aI290
aI75
aI75
aI75
aI75
aI75
aI75
aI75
aI61
aI61
aI61
aI61
aI61
aI21
aI61
aI75
aI61
aI61
aI61
aI21
aI61
aI290
aI61
aI61
aI61
aI21
aI61
aI61
aI61
aI61
aI21
aI61
aI61
aI61
aI61
aI75
aI61
aI61
aI21
aI61
aI61
aI21
aI75
aI61
aI61
aI61
aI75
aI290
aI21
aI61
aI61
aI61
aI290
aI61
aI75
aI61
aI61
aI21
aI75
aI75
aI290
aI21
aI290
aI290
aI75
aI75
aI61
aI61
aI21
aI61
aI21
aI75
aI21
aI61
aI21
aI61
aI61
aI61
aI21
aI61
aI61
aI61
aI61
aI61
aI21
aI61
aI61
aI61
aI61
aI21
aI61
aI61
aI61
aI61
aI290
aI61
aI61
aI61
aI21
aI61
aI61
aI21
aI61
aI61
aI61
aI290
aI21
aI61
aI21
aI61
aI61
aI61
aI61
aI61
aI61
aI61
aI61
aI61
aI21
aI61
aI61
aI61
aI21
aI61
aI61
aI75
aI61
aI61
aI21
aI61
aI61
aI61
aI61
aI21
aI61
aI21
aI61
aI21
aI61
aI61
aI21
aI61
aI290
aI21
aI290
aI290
aI290
aI290
aI290
aI21
aI61
aI61
aI21
aI61
aI75
aI61
aI61
aI21
aI61
aI61
aI61
aI61
aI61
aI21
aI21
aI21
aI61
aI61
aI61
aI61
aI61
aI61
aI61
aI61
aI61
aI75
aI61
aI21
aI61
aI61
aI61
aI61
aI21
aI61
aI21
aI61
aI21
aI21
aI61
aI61
aI75
aI61
aI61
aI61
aI21
aI61
aI21
aI21
aI61
aI61
aI21
aI61
aI61
aI61
aI61
aI61
aI61
aI61
aI61
aI61
aI61
aI21
aI61
aI61
aI61
aI61
aI61
aI21
aI61
aI61
aI61
aI61
aI61
aI61
aI61
aI61
aI61
aI61
aI61
aI21
aI61
aI21
aI61
aI61
aI75
aI21
aI21
aI21
aI21
aI61
aI61
aI21
aI290
aI290
aI290
aI290
aI290
aI290
aI290
aI61
aI61
aI21
aI61
aI61
aI61
aI61
aI61
aI61
aI75
aI290
aI21
aI61
aI21
aI61
aI61
aI290
aI21
aI61
aI61
aI21
aI61
aI61
aI61
aI61
aI61
aI61
aI61
aI61
aI61
aI21
aI21
aI61
aI61
aI61
aI61
aI61
aI75
aI21
aI21
aI61
aI61
aI61
aI61
aI61
aI61
aI21
aI21
aI61
aI61
aI61
aI61
aI61
aI61
aI61
aI21
aI75
aI21
aI75
aI61
aI61
aI61
aI61
aI61
aI61
aI61
aI61
aI61
aI61
aI61
aI61
aI21
aI21
aI61
aI61
aI21
aI61
aI61
aI21
aI61
aI61
aI61
aI21
aI21
aI21
aI21
aI21
aI21
aI21
aI21
aI61
aI21
aI21
aI61
aI21
aI61
aI61
aI21
aI21
aI61
aI61
aI21
aI61
aI61
aI21
aI61
aI61
aI21
aI75
aI21
aI61
aI61
aI61
aI61
aI21
aI21
aI61
aI61
aI21
aI61
aI21
aI61
aI21
aI21
aI75
aI61
aI61
aI61
aI61
aI21
aI61
aI21
aI61
aI21
aI61
aI75
aI21
aI75
aI75
aI21
aI61
aI21
aI21
aI61
aI75
aI61
aI21
aI290
aI21
aI75
aI21
aI61
aI61
aI75
aI61
aI61
aI61
aI75
aI61
aI21
aI61
aI61
aI21
aI61
aI21
aI21
aI61
aI61
aI61
aI75
aI61
aI61
aI75
aI61
aI290
aI21
aI61
aI61
aI61
aI21
aI290
aI21
aI61
aI61
aI61
aI61
aI61
aI61
aI21
aI21
aI75
aI75
aI21
aI21
aI61
aI75
aI21
aI61
aI61
aI61
aI61
aI61
aI61
aI290
aI21
aI61
aI61
aI61
aI61
aI61
aI21
aI21
aI61
aI21
aI61
aI21
aI61
aI61
aI21
aI61
aI61
aI61
aI21
aI61
aI61
aI21
aI61
aI61
aI75
aI61
aI21
aI21
aI61
aI21
aI61
aI61
aI290
aI61
aI21
aI61
aI290
aI21
aI61
aI75
aI61
aI61
aI21
aI61
aI21
aI61
aI21
aI61
aI61
aI61
aI61
aI21
aI61
aI61
aI61
aI61
aI61
aI75
aI75
aI21
aI61
aI61
aI21
aI61
aI21
aI290
aI21
aI21
aI75
aI75
aI61
aI61
aI21
aI61
aI61
aI61
aI61
aI61
aI61
aI61
aI61
aI61
aI61
aI61
aI21
aI21
aI61
aI75
aI61
aI21
aI290
aI61
aI21
aI61
aI21
aI21
aI61
aI61
aI21
aI61
aI61
aI61
aI61
aI61
aI61
aI61
aI61
aI61
aI61
aI61
aI61
aI21
aI61
aI61
aI61
aI61
aI61
aI61
aI21
aI21
aI21
aI61
aI61
aI61
aI61
aI61
aI61
aI21
aI61
aI21
aI61
aI21
aI61
aI61
aI61
aI61
aI61
aI75
aI75
aI61
aI61
aI290
aI290
aI61
aI21
aI61
aI21
aI61
aI61
aI21
aI61
aI61
aI61
aI21
aI61
aI61
aI61
aI61
aI61
aI61
aI61
aI61
aI21
aI75
aI21
aI61
aI21
aI21
aI21
aI61
aI21
aI61
aI21
aI61
aI21
aI61
aI21
aI61
aI21
aI61
aI21
aI21
aI75
aI21
aI61
aI75
aI61
aI61
aI61
aI61
aI61
aI61
aI61
aI61
aI21
aI21
aI61
aI21
aI61
aI61
aI61
aI61
aI21
aI61
aI61
asS'RBR'
p37
(lp38
I123
aI123
aI123
aI123
aI741
aI123
aI123
aI741
aI123
aI123
aI123
aI123
aI123
aI123
aI123
aI1176
aI1176
aI123
aI123
aI123
aI123
aI1176
aI123
aI123
aI123
aI123
aI123
aI123
aI123
aI123
aI123
aI1176
aI123
aI123
aI123
aI123
aI1176
aI1176
aI1176
aI123
aI123
aI123
aI1176
aI123
aI1176
aI1176
aI123
aI1176
aI741
aI123
aI123
aI741
aI741
aI741
aI123
aI123
aI123
aI123
aI123
aI1176
aI123
aI123
aI1176
aI1176
aI123
aI123
aI1176
aI123
aI741
aI123
aI123
aI123
aI123
aI123
aI123
aI123
aI1176
aI123
aI123
aI123
aI1176
aI1176
aI1176
aI123
aI123
aI123
aI123
aI123
aI123
aI123
aI123
aI123
aI123
aI123
aI123
aI1176
aI123
aI123
aI123
aI123
aI123
aI123
aI1176
aI1176
aI123
aI123
aI123
aI123
aI123
aI123
aI123
aI123
aI123
aI123
aI123
aI123
aI123
aI1176
aI123
aI123
aI123
aI123
aI123
aI123
aI1176
aI123
aI123
aI123
aI123
aI123
asS'CD'
p39
(lp40
I318
aI318
aI318
aI318
aI318
aI318
aI318
aI318
aI318
aI930
aI318
aI318
aI318
aI318
aI930
aI1294
aI318
aI318
aI1294
aI1349
aI318
aI318
aI318
aI1294
aI1294
aI1479
aI318
aI318
aI318
aI318
aI318
aI1294
aI1766
aI930
aI318
aI318
aI930
aI930
aI318
aI930
aI2466
aI2466
aI2466
aI2466
aI2466
aI318
aI318
aI318
aI318
aI2466
aI318
aI2466
aI930
aI930
aI930
aI930
aI930
aI318
aI1294
aI318
aI318
aI318
aI318
aI318
aI318
aI930
aI1766
aI1766
aI318
aI318
aI1294
aI1294
aI318
aI318
aI1294
aI318
aI318
aI318
aI318
aI318
aI318
aI318
aI318
aI318
aI318
aI318
aI1294
aI318
aI318
aI318
aI318
aI318
aI318
aI318
aI318
aI318
aI318
aI318
aI1294
aI318
aI318
aI318
aI318
aI318
aI318
aI4211
aI2466
aI2466
aI2466
aI318
aI1294
aI4275
aI318
aI318
asS'EX'
p41
(lp42
I3099
asS'IN'
p43
(lp44
I6
aI13
aI16
aI20
aI36
aI13
aI65
aI67
aI16
aI67
aI92
aI101
aI101
aI65
aI101
aI132
aI16
aI67
aI13
aI132
aI169
aI101
aI101
aI67
aI101
aI101
aI190
aI101
aI193
aI132
aI36
aI204
aI101
aI36
aI169
aI101
aI36
aI36
aI13
aI13
aI92
aI169
aI36
aI101
aI67
aI36
aI36
aI293
aI67
aI36
aI13
aI13
aI169
aI169
aI322
aI101
aI132
aI132
aI67
aI169
aI67
aI339
aI36
aI67
aI92
aI36
aI6
aI6
aI371
aI6
aI67
aI382
aI92
aI67
aI36
aI13
aI36
aI101
aI132
aI16
aI13
aI67
aI16
aI67
aI67
aI169
aI67
aI13
aI132
aI371
aI443
aI101
aI13
aI67
aI16
aI67
aI169
aI67
aI13
aI67
aI464
aI92
aI13
aI13
aI169
aI169
aI101
aI132
aI13
aI36
aI169
aI13
aI13
aI13
aI322
aI20
aI498
aI101
aI169
aI67
aI13
aI20
aI20
aI13
aI6
aI101
aI67
aI13
aI6
aI513
aI132
aI169
aI67
aI169
aI13
aI13
aI67
aI36
aI101
aI6
aI67
aI36
aI92
aI101
aI101
aI568
aI13
aI572
aI20
aI20
aI13
aI322
aI588
aI67
aI13
aI596
aI67
aI101
aI588
aI101
aI6
aI101
aI101
aI101
aI132
aI36
aI67
aI13
aI16
aI6
aI67
aI20
aI6
aI132
aI101
aI13
aI67
aI13
aI67
aI20
aI13
aI16
aI498
aI67
aI101
aI678
aI101
aI684
aI67
aI36
aI101
aI101
aI169
aI36
aI67
aI6
aI20
aI204
aI67
aI322
aI36
aI101
aI92
aI36
aI322
aI13
aI101
aI67
aI101
aI67
aI16
aI67
aI36
aI132
aI20
aI293
aI101
aI132
aI67
aI36
aI322
aI101
aI371
aI101
aI13
aI101
aI67
aI67
aI101
aI101
aI6
aI16
aI13
aI101
aI67
aI67
aI20
aI6
aI67
aI20
aI36
aI36
aI67
aI169
aI193
aI67
aI36
aI101
aI20
aI36
aI67
aI322
aI67
aI67
aI169
aI20
aI101
aI16
aI16
aI169
aI678
aI572
aI13
aI36
aI20
aI36
aI16
aI169
aI36
aI101
aI36
aI36
aI36
aI67
aI13
aI67
aI20
aI293
aI20
aI67
aI20
aI101
aI371
aI13
aI13
aI101
aI20
aI67
aI13
aI13
aI169
aI101
aI67
aI20
aI67
aI322
aI101
aI169
aI169
aI20
aI6
aI20
aI92
aI92
aI20
aI36
aI36
aI101
aI169
aI101
aI67
aI101
aI36
aI101
aI169
aI169
aI13
aI13
aI322
aI36
aI101
aI67
aI190
aI169
aI67
aI36
aI13
aI169
aI169
aI92
aI36
aI67
aI101
aI101
aI13
aI67
aI169
aI498
aI20
aI67
aI67
aI498
aI169
aI169
aI596
aI101
aI6
aI169
aI13
aI67
aI101
aI20
aI67
aI101
aI13
aI67
aI13
aI36
aI92
aI92
aI101
aI36
aI36
aI169
aI67
aI6
aI169
aI92
aI13
aI67
aI371
aI16
aI16
aI169
aI169
aI67
aI101
aI13
aI16
aI16
aI16
aI293
aI67
aI16
aI6
aI1060
aI36
aI67
aI36
aI204
aI67
aI371
aI36
aI371
aI371
aI13
aI36
aI67
aI92
aI101
aI498
aI371
aI498
aI6
aI169
aI36
aI13
aI101
aI101
aI101
aI36
aI67
aI169
aI572
aI101
aI498
aI6
aI101
aI684
aI132
aI20
aI92
aI1134
aI132
aI36
aI16
aI6
aI101
aI20
aI67
aI13
aI101
aI36
aI101
aI101
aI13
aI67
aI101
aI132
aI36
aI13
aI16
aI101
aI101
aI36
aI16
aI293
aI169
aI169
aI101
aI16
aI36
aI322
aI101
aI67
aI572
aI169
aI169
aI36
aI36
aI36
aI92
aI36
aI6
aI36
aI92
aI36
aI678
aI6
aI169
aI101
aI513
aI67
aI67
aI190
aI13
aI92
aI101
aI169
aI13
aI293
aI13
aI13
aI498
aI67
aI67
aI36
aI322
aI67
aI169
aI67
aI13
aI6
aI13
aI13
aI1299
aI36
aI13
aI16
aI513
aI67
aI67
aI293
aI293
aI6
aI36
aI6
aI13
aI382
aI67
aI20
aI20
aI101
aI16
aI101
aI1325
aI169
aI101
aI67
aI13
aI67
aI13
aI101
aI16
aI67
aI13
aI1334
aI13
aI1134
aI169
aI67
aI132
aI588
aI13
aI169
aI67
aI322
aI92
aI13
aI132
aI36
aI101
aI169
aI101
aI16
aI13
aI13
aI101
aI36
aI13
aI16
aI684
aI322
aI13
aI684
aI169
aI132
aI169
aI132
aI101
aI16
aI1299
aI322
aI67
aI36
aI13
aI6
aI169
aI67
aI16
aI16
aI13
aI101
aI13
aI13
aI67
aI1419
aI169
aI169
aI132
aI13
aI92
aI169
aI169
aI92
aI67
aI67
aI36
aI67
aI92
aI16
aI67
aI92
aI190
aI101
aI132
aI101
aI193
aI169
aI6
aI1299
aI6
aI204
aI169
aI20
aI20
aI13
aI101
aI101
aI13
aI36
aI16
aI101
aI36
aI36
aI169
aI101
aI67
aI36
aI101
aI36
aI1486
aI6
aI16
aI101
aI498
aI101
aI13
aI101
aI67
aI13
aI36
aI13
aI67
aI101
aI16
aI20
aI101
aI169
aI13
aI36
aI67
aI36
aI101
aI67
aI16
aI36
aI322
aI169
aI36
aI36
aI67
aI132
aI339
aI13
aI101
aI67
aI101
aI6
aI101
aI101
aI67
aI293
aI101
aI65
aI498
aI6
aI169
aI169
aI13
aI132
aI13
aI588
aI92
aI20
aI16
aI13
aI13
aI588
aI13
aI36
aI6
aI101
aI13
aI588
aI101
aI65
aI588
aI92
aI101
aI572
aI92
aI13
aI13
aI6
aI36
aI13
aI67
aI13
aI92
aI16
aI132
aI20
aI6
aI92
aI1334
aI13
aI36
aI322
aI67
aI13
aI169
aI443
aI6
aI101
aI6
aI101
aI92
aI293
aI67
aI36
aI101
aI67
aI169
aI6
aI572
aI20
aI101
aI169
aI13
aI67
aI572
aI101
aI371
aI67
aI20
aI13
aI20
aI16
aI92
aI101
aI13
aI572
aI596
aI101
aI92
aI67
aI101
aI101
aI101
aI20
aI67
aI67
aI169
aI371
aI13
aI16
aI67
aI13
aI169
aI20
aI101
aI20
aI20
aI92
aI169
aI101
aI101
aI13
aI101
aI67
aI36
aI322
aI101
aI678
aI101
aI101
aI67
aI678
aI13
aI13
aI67
aI67
aI322
aI16
aI67
aI1299
aI36
aI36
aI101
aI371
aI13
aI101
aI101
aI101
aI204
aI498
aI169
aI101
aI36
aI101
aI371
aI67
aI13
aI293
aI13
aI13
aI101
aI67
aI101
aI498
aI498
aI101
aI101
aI513
aI13
aI101
aI293
aI13
aI132
aI684
aI169
aI101
aI36
aI13
aI101
aI101
aI67
aI67
aI498
aI572
aI13
aI101
aI1325
aI1325
aI1325
aI101
aI20
aI371
aI684
aI13
aI36
aI67
aI101
aI67
aI13
aI92
aI67
aI101
aI92
aI169
aI67
aI193
aI371
aI1134
aI6
aI13
aI1334
aI6
aI67
aI678
aI101
aI293
aI13
aI13
aI169
aI169
aI1813
aI36
aI1060
aI6
aI101
aI169
aI67
aI20
aI101
aI169
aI67
aI20
aI36
aI169
aI13
aI101
aI36
aI20
aI588
aI36
aI36
aI92
aI101
aI678
aI101
aI169
aI588
aI6
aI13
aI293
aI67
aI67
aI16
aI101
aI101
aI92
aI101
aI36
aI36
aI101
aI13
aI20
aI13
aI572
aI36
aI322
aI678
aI101
aI588
aI101
aI6
aI101
aI382
aI67
aI13
aI169
aI36
aI20
aI67
aI16
aI16
aI6
aI36
aI13
aI36
aI36
aI16
aI13
aI36
aI101
aI572
aI101
aI190
aI101
aI169
aI204
aI101
aI684
aI572
aI67
aI101
aI20
aI101
aI684
aI92
aI101
aI684
aI101
aI92
aI67
aI513
aI101
aI169
aI20
aI101
aI13
aI101
aI101
aI13
aI13
aI101
aI20
aI36
aI13
aI67
aI322
aI16
aI101
aI1334
aI16
aI67
aI13
aI1299
aI101
aI13
aI13
aI169
aI101
aI67
aI13
aI101
aI169
aI101
aI16
aI101
aI132
aI101
aI169
aI322
aI13
aI36
aI6
aI132
aI169
aI13
aI67
aI13
aI92
aI132
aI204
aI132
aI36
aI20
aI36
aI1334
aI596
aI36
aI13
aI67
aI596
aI67
aI169
aI382
aI322
aI169
aI204
aI322
aI67
aI101
aI169
aI13
aI13
aI16
aI169
aI67
aI101
aI13
aI588
aI204
aI101
aI67
aI67
aI596
aI20
aI16
aI16
aI67
aI13
aI101
aI67
aI101
aI92
aI13
aI20
aI16
aI13
aI36
aI13
aI13
aI513
aI67
aI36
aI169
aI101
aI101
aI101
aI101
aI101
aI13
aI13
aI101
aI36
aI13
aI20
aI20
aI101
aI169
aI20
aI20
aI36
aI13
aI92
aI36
aI169
aI16
aI16
aI6
aI16
aI92
aI101
aI6
aI36
aI67
aI13
aI101
aI20
aI169
aI101
aI101
aI16
aI6
aI101
aI20
aI169
aI67
aI20
aI339
aI92
aI13
aI13
aI101
aI101
aI67
aI36
aI20
aI20
aI204
aI101
aI101
aI101
aI13
aI6
aI67
aI67
aI13
aI169
aI572
aI101
aI67
aI101
aI20
aI572
aI20
aI92
aI204
aI101
aI101
aI132
aI67
aI6
aI67
aI1299
aI6
aI293
aI67
aI101
aI101
aI67
aI513
aI101
aI67
aI20
aI67
aI20
aI101
aI16
aI67
aI67
aI13
aI101
aI13
aI67
aI13
aI67
aI101
aI169
aI169
aI101
aI67
aI67
aI322
aI13
aI13
aI322
aI67
aI13
aI65
aI13
aI132
aI101
aI13
aI13
aI67
aI92
aI67
aI101
aI1134
aI36
aI16
aI371
aI13
aI101
aI67
aI101
aI67
aI13
aI684
aI293
aI101
aI169
aI67
aI169
aI101
aI101
aI169
aI67
aI13
aI16
aI13
aI2229
aI16
aI13
aI36
aI101
aI20
aI6
aI101
aI13
aI169
aI371
aI101
aI67
aI16
aI169
aI13
aI169
aI67
aI101
aI204
aI92
aI20
aI67
aI101
aI67
aI588
aI204
aI293
aI36
aI204
aI101
aI67
aI13
aI16
aI92
aI169
aI13
aI169
aI13
aI169
aI13
aI13
aI204
aI101
aI588
aI204
aI20
aI67
aI6
aI101
aI588
aI169
aI169
aI132
aI1134
aI101
aI36
aI169
aI67
aI101
aI67
aI678
aI132
aI67
aI101
aI498
aI101
aI101
aI36
aI67
aI67
aI67
aI67
aI293
aI67
aI67
aI67
aI2229
aI67
aI322
aI322
aI322
aI322
aI101
aI101
aI13
aI67
aI101
aI169
aI322
aI101
aI13
aI204
aI169
aI101
aI101
aI67
aI92
aI13
aI322
aI36
aI92
aI13
aI572
aI13
aI371
aI293
aI67
aI36
aI67
aI169
aI13
aI67
aI67
aI67
aI67
aI67
aI13
aI371
aI132
aI13
aI13
aI20
aI6
aI101
aI101
aI293
aI36
aI13
aI132
aI16
aI169
aI322
aI13
aI67
aI371
aI101
aI67
aI101
aI13
aI13
aI92
aI101
aI67
aI678
aI169
aI13
aI101
aI101
aI13
aI101
aI92
aI20
aI67
aI13
aI169
aI371
aI132
aI101
aI132
aI67
aI20
aI371
aI101
aI6
aI36
aI101
aI596
aI371
aI101
aI92
aI169
aI36
aI132
aI1813
aI13
aI67
aI6
aI67
aI67
aI101
aI36
aI13
aI101
aI67
aI67
aI101
aI6
aI498
aI67
aI101
aI101
aI596
aI36
aI36
aI20
aI13
aI13
aI101
aI92
aI67
aI13
aI132
aI132
aI322
aI67
aI101
aI169
aI92
aI36
aI132
aI1419
aI67
aI101
aI20
aI67
aI293
aI293
aI13
aI67
aI36
aI67
aI20
aI101
aI67
aI13
aI322
aI13
aI371
aI36
aI1419
aI13
aI101
aI322
aI132
aI67
aI13
aI684
aI13
aI169
aI101
aI322
aI67
aI322
aI67
aI20
aI169
aI6
aI101
aI67
aI67
aI572
aI371
aI6
aI101
aI169
aI20
aI572
aI101
aI67
aI678
aI67
aI67
aI67
aI101
aI67
aI101
aI101
aI67
aI101
aI67
aI101
aI101
aI101
aI101
aI101
aI20
aI101
aI36
aI169
aI169
aI92
aI101
aI101
aI20
aI101
aI101
aI36
aI67
aI101
aI572
aI1134
aI67
aI101
aI13
aI67
aI13
aI371
aI20
aI67
aI13
aI101
aI169
aI101
aI101
aI13
aI293
aI6
aI20
aI67
aI6
aI20
aI132
aI101
aI13
aI13
aI371
aI36
aI169
aI13
aI67
aI293
aI101
aI13
aI13
aI101
aI169
aI169
aI67
aI101
aI92
aI13
aI2229
aI16
aI101
aI92
aI67
aI36
aI169
aI101
aI169
aI13
aI322
aI13
aI371
aI67
aI371
aI101
aI13
aI13
aI204
aI169
aI6
aI13
aI67
aI13
aI101
aI36
aI67
aI2601
aI13
aI67
aI572
aI2602
aI13
aI678
aI169
aI101
aI101
aI101
aI132
aI169
aI36
aI101
aI36
aI1325
aI1325
aI13
aI101
aI20
aI20
aI20
aI67
aI36
aI132
aI13
aI684
aI13
aI13
aI101
aI67
aI101
aI101
aI101
aI13
aI101
aI36
aI92
aI13
aI1299
aI293
aI65
aI36
aI101
aI678
aI204
aI132
aI13
aI204
aI16
aI36
aI13
aI13
aI6
aI92
aI101
aI65
aI67
aI498
aI572
aI101
aI20
aI371
aI36
aI20
aI101
aI101
aI101
aI13
aI67
aI13
aI16
aI101
aI101
aI13
aI101
aI65
aI20
aI6
aI101
aI678
aI101
aI67
aI101
aI16
aI13
aI498
aI322
aI322
aI16
aI13
aI13
aI169
aI339
aI382
aI16
aI132
aI169
aI101
aI16
aI20
aI67
aI101
aI13
aI20
aI13
aI322
aI101
aI16
aI16
aI169
aI92
aI67
aI13
aI13
aI498
aI293
aI16
aI382
aI67
aI65
aI36
aI13
aI2229
aI2773
aI20
aI498
aI16
aI101
aI13
aI6
aI13
aI67
aI13
aI36
aI101
aI13
aI204
aI684
aI13
aI322
aI498
aI169
aI16
aI193
aI101
aI132
aI169
aI20
aI36
aI568
aI6
aI67
aI101
aI339
aI13
aI101
aI92
aI36
aI36
aI13
aI101
aI169
aI169
aI36
aI169
aI322
aI92
aI16
aI169
aI67
aI67
aI36
aI169
aI67
aI67
aI132
aI36
aI92
aI572
aI169
aI36
aI67
aI132
aI498
aI36
aI101
aI13
aI13
aI204
aI36
aI13
aI13
aI101
aI13
aI16
aI498
aI36
aI36
aI322
aI67
aI572
aI101
aI67
aI101
aI67
aI101
aI20
aI92
aI67
aI67
aI67
aI67
aI443
aI684
aI13
aI371
aI322
aI132
aI92
aI132
aI67
aI67
aI6
aI13
aI67
aI322
aI13
aI92
aI20
aI16
aI36
aI20
aI20
aI20
aI20
aI169
aI13
aI67
aI1299
aI13
aI92
aI92
aI67
aI67
aI67
aI20
aI20
aI36
aI92
aI204
aI36
aI101
aI101
aI67
aI13
aI13
aI13
aI20
aI20
aI572
aI169
aI67
aI371
aI13
aI13
aI13
aI13
aI169
aI6
aI101
aI67
aI67
aI67
aI169
aI67
aI13
aI13
aI13
aI169
aI169
aI20
aI13
aI13
aI339
aI101
aI13
aI169
aI190
aI67
aI13
aI322
aI67
aI67
aI67
aI67
aI67
aI101
aI13
aI67
aI1813
aI13
aI132
aI13
aI169
aI101
aI36
aI36
aI101
aI67
aI568
aI67
aI67
aI293
aI169
aI13
aI13
aI169
aI13
aI16
aI132
aI67
aI101
aI101
aI13
aI204
aI67
aI101
aI13
aI293
aI13
aI67
aI13
aI1299
aI92
aI13
aI67
aI67
aI36
aI36
aI16
aI67
aI204
aI13
aI36
aI36
aI16
aI36
aI67
aI36
aI322
aI6
aI13
aI1813
aI572
aI36
aI20
aI36
aI101
aI132
aI293
aI1813
aI20
aI6
aI132
aI169
aI101
aI67
aI16
aI13
aI293
aI36
aI67
aI67
aI169
aI13
aI101
aI193
aI67
aI36
aI36
aI6
aI101
aI13
aI13
aI92
aI101
aI36
aI101
aI6
aI132
aI13
aI20
aI20
aI101
aI101
aI20
aI20
aI13
aI67
aI132
aI16
aI20
aI101
aI101
aI67
aI67
aI684
aI13
aI6
aI13
aI596
aI443
aI132
aI13
aI132
aI101
aI371
aI6
aI36
aI13
aI1325
aI6
aI67
aI67
aI678
aI13
aI13
aI169
aI13
aI67
aI13
aI13
aI67
aI36
aI20
aI13
aI371
aI6
aI6
aI101
aI65
aI204
aI101
aI204
aI13
aI101
aI67
aI513
aI65
aI92
aI13
aI92
aI20
aI13
aI169
aI13
aI92
aI13
aI3110
aI36
aI20
aI6
aI498
aI169
aI20
aI20
aI20
aI20
aI67
aI36
aI132
aI13
aI13
aI132
aI132
aI20
aI36
aI36
aI13
aI293
aI36
aI36
aI588
aI92
aI169
aI101
aI13
aI204
aI13
aI92
aI92
aI132
aI36
aI204
aI67
aI13
aI101
aI16
aI169
aI92
aI13
aI6
aI36
aI13
aI101
aI101
aI67
aI13
aI101
aI67
aI13
aI101
aI293
aI36
aI67
aI132
aI101
aI101
aI101
aI169
aI13
aI67
aI678
aI498
aI101
aI20
aI16
aI67
aI13
aI101
aI169
aI67
aI67
aI596
aI67
aI101
aI169
aI67
aI101
aI169
aI101
aI588
aI169
aI588
aI16
aI101
aI13
aI101
aI67
aI101
aI6
aI588
aI498
aI169
aI101
aI169
aI16
aI13
aI67
aI16
aI13
aI101
aI101
aI16
aI16
aI67
aI6
aI169
aI13
aI16
aI169
aI20
aI67
aI67
aI498
aI371
aI36
aI92
aI101
aI67
aI36
aI67
aI101
aI13
aI169
aI132
aI498
aI101
aI101
aI36
aI101
aI678
aI498
aI371
aI67
aI36
aI13
aI101
aI67
aI132
aI498
aI36
aI169
aI169
aI132
aI36
aI132
aI6
aI16
aI67
aI36
aI13
aI92
aI101
aI498
aI36
aI36
aI67
aI13
aI101
aI678
aI101
aI67
aI101
aI678
aI67
aI13
aI2602
aI101
aI67
aI169
aI36
aI67
aI36
aI67
aI67
aI101
aI67
aI169
aI101
aI101
aI92
aI204
aI13
aI67
aI13
aI371
aI101
aI67
aI67
aI101
aI513
aI13
aI67
aI101
aI371
aI169
aI13
aI67
aI13
aI13
aI36
aI67
aI13
aI101
aI67
aI6
aI101
aI1334
aI36
aI169
aI36
aI92
aI36
aI20
aI322
aI13
aI572
aI20
aI101
aI13
aI65
aI101
aI101
aI101
aI322
aI1813
aI2229
aI67
aI13
aI190
aI678
aI92
aI67
aI65
aI13
aI16
aI190
aI13
aI92
aI101
aI16
aI169
aI169
aI169
aI169
aI169
aI169
aI169
aI13
aI101
aI13
aI67
aI101
aI101
aI13
aI36
aI13
aI67
aI67
aI498
aI13
aI498
aI20
aI169
aI169
aI36
aI36
aI101
aI36
aI36
aI101
aI67
aI20
aI101
aI67
aI2602
aI1334
aI36
aI67
aI572
aI13
aI588
aI13
aI67
aI36
aI92
aI169
aI13
aI20
aI36
aI13
aI92
aI16
aI371
aI169
aI322
aI13
aI684
aI132
aI36
aI13
aI101
aI67
aI67
aI169
aI13
aI132
aI132
aI132
aI132
aI92
aI132
aI132
aI13
aI36
aI20
aI92
aI67
aI101
aI190
aI67
aI36
aI101
aI16
aI498
aI101
aI498
aI101
aI36
aI36
aI20
aI13
aI101
aI498
aI293
aI169
aI498
aI371
aI13
aI6
aI13
aI16
aI101
aI13
aI13
aI101
aI67
aI13
aI67
aI36
aI13
aI92
aI36
aI67
aI20
aI101
aI204
aI13
aI36
aI101
aI36
aI101
aI13
aI101
aI132
aI20
aI13
aI101
aI498
aI382
aI169
aI67
aI684
aI67
aI67
aI101
aI13
aI67
aI3532
aI67
aI13
aI36
aI67
aI322
aI67
aI13
aI101
aI101
aI101
aI16
aI13
aI36
aI169
aI36
aI13
aI36
aI36
aI13
aI36
aI36
aI67
aI101
aI92
aI169
aI65
aI67
aI92
aI13
aI371
aI101
aI20
aI92
aI101
aI67
aI169
aI13
aI67
aI498
aI101
aI67
aI13
aI169
aI16
aI67
aI13
aI13
aI36
aI169
aI36
aI371
aI36
aI13
aI101
aI101
aI67
aI101
aI678
aI13
aI13
aI67
aI6
aI1334
aI13
aI36
aI169
aI572
aI169
aI13
aI371
aI101
aI67
aI498
aI101
aI36
aI322
aI67
aI132
aI498
aI101
aI20
aI13
aI498
aI13
aI204
aI67
aI1813
aI36
aI13
aI498
aI13
aI169
aI101
aI101
aI13
aI101
aI67
aI13
aI20
aI13
aI596
aI13
aI36
aI13
aI101
aI13
aI101
aI572
aI169
aI67
aI101
aI67
aI67
aI36
aI13
aI101
aI6
aI92
aI67
aI169
aI1334
aI6
aI67
aI36
aI16
aI101
aI20
aI16
aI101
aI20
aI13
aI3532
aI101
aI67
aI36
aI36
aI371
aI13
aI190
aI13
aI16
aI67
aI13
aI13
aI36
aI16
aI67
aI101
aI101
aI13
aI101
aI101
aI36
aI13
aI101
aI101
aI190
aI67
aI13
aI101
aI101
aI36
aI36
aI13
aI67
aI322
aI36
aI101
aI92
aI67
aI36
aI498
aI13
aI101
aI13
aI101
aI101
aI169
aI20
aI513
aI36
aI13
aI13
aI101
aI190
aI13
aI371
aI101
aI16
aI101
aI678
aI36
aI13
aI36
aI67
aI2602
aI190
aI13
aI101
aI498
aI92
aI36
aI67
aI190
aI101
aI36
aI169
aI92
aI371
aI67
aI36
aI13
aI13
aI101
aI684
aI371
aI92
aI67
aI101
aI513
aI169
aI36
aI13
aI293
aI16
aI67
aI16
aI101
aI13
aI101
aI339
aI36
aI13
aI13
aI13
aI67
aI13
aI92
aI132
aI67
aI16
aI101
aI678
aI169
aI293
aI190
aI1334
aI190
aI6
aI36
aI101
aI6
aI67
aI169
aI67
aI36
aI169
aI169
aI322
aI101
aI101
aI36
aI36
aI20
aI67
aI92
aI169
aI190
aI36
aI36
aI67
aI20
aI13
aI101
aI92
aI322
aI36
aI92
aI67
aI20
aI67
aI67
aI13
aI190
aI92
aI13
aI498
aI13
aI101
aI678
aI13
aI36
aI36
aI132
aI498
aI132
aI132
aI13
aI13
aI13
aI67
aI20
aI498
aI101
aI13
aI67
aI13
aI169
aI6
aI169
aI169
aI6
aI13
aI36
aI132
aI6
aI6
aI684
aI132
aI132
aI36
aI36
aI498
aI13
aI67
aI371
aI36
aI36
aI13
aI101
aI190
aI101
aI36
aI588
aI101
aI67
aI588
aI101
aI67
aI169
aI67
aI371
aI293
aI65
aI101
aI101
aI190
aI13
aI36
aI101
aI322
aI67
aI132
aI16
aI6
aI588
aI20
aI20
aI13
aI169
aI92
aI101
aI1486
aI371
aI169
aI6
aI13
aI36
aI36
aI92
aI498
aI204
aI67
aI13
aI101
aI36
aI36
aI169
aI101
aI101
aI101
aI588
aI293
aI169
aI293
aI1419
aI13
aI322
aI132
aI101
aI13
aI92
aI588
aI101
aI20
aI36
aI498
aI13
aI36
aI16
aI67
aI101
aI101
aI13
aI169
aI13
aI101
aI67
aI101
aI20
aI36
aI101
aI36
aI13
aI101
aI101
aI190
aI13
aI169
aI67
aI13
aI13
aI6
aI20
aI13
aI371
aI36
aI101
aI101
aI6
aI67
aI101
aI13
aI101
aI101
aI13
aI13
aI13
aI65
aI92
aI36
aI101
aI36
aI169
aI67
aI169
aI36
aI67
aI20
aI67
aI101
aI371
aI13
aI371
aI67
aI596
aI36
aI67
aI132
aI20
aI101
aI498
aI169
aI371
aI169
aI169
aI36
aI169
aI13
aI169
aI67
aI20
aI67
aI371
aI36
aI13
aI20
aI16
aI596
aI13
aI20
aI92
aI20
aI101
aI101
aI13
aI13
aI13
aI36
aI13
aI190
aI36
aI13
aI67
aI67
aI13
aI13
aI16
aI13
aI67
aI20
aI13
aI101
aI36
aI371
aI13
aI92
aI92
aI13
aI92
aI169
aI13
aI13
aI67
aI169
aI13
aI36
aI371
aI6
aI169
aI169
aI101
aI101
aI101
aI67
aI13
aI101
aI67
aI13
aI67
aI67
aI20
aI572
aI67
aI322
aI13
aI16
aI101
aI67
aI169
aI13
aI101
aI101
aI101
aI2229
aI169
aI101
aI20
aI169
aI101
aI101
aI101
aI36
aI36
aI101
aI101
aI101
aI101
aI13
aI101
aI16
aI322
aI101
aI36
aI101
aI36
aI1334
aI596
aI101
aI67
aI36
aI498
aI169
aI67
aI36
aI6
aI13
aI101
aI498
aI13
aI101
aI101
aI67
aI13
aI101
aI4099
aI6
aI13
aI169
aI371
aI371
aI371
aI371
aI371
aI101
aI371
aI371
aI371
aI13
aI13
aI101
aI513
aI65
aI13
aI36
aI67
aI204
aI16
aI36
aI13
aI169
aI92
aI67
aI36
aI322
aI169
aI67
aI572
aI36
aI596
aI20
aI371
aI6
aI67
aI101
aI36
aI596
aI498
aI36
aI67
aI36
aI36
aI92
aI13
aI101
aI3532
aI36
aI169
aI13
aI6
aI36
aI67
aI169
aI13
aI169
aI371
aI13
aI169
aI36
aI20
aI371
aI101
aI67
aI67
aI101
aI67
aI101
aI36
aI13
aI101
aI36
aI498
aI101
aI67
aI92
aI101
aI67
aI67
aI16
aI382
aI92
aI322
aI13
aI36
aI16
aI169
aI67
aI13
aI67
aI67
aI101
aI67
aI13
aI2229
aI20
aI36
aI67
aI36
aI4197
aI67
aI101
aI36
aI101
aI36
aI13
aI67
aI36
aI36
aI498
aI67
aI101
aI36
aI36
aI92
aI67
aI36
aI101
aI67
aI13
aI20
aI371
aI92
aI13
aI67
aI13
aI36
aI3532
aI13
aI67
aI16
aI13
aI36
aI101
aI101
aI36
aI16
aI16
aI6
aI13
aI101
aI678
aI16
aI101
aI13
aI204
aI36
aI67
aI13
aI371
aI169
aI678
aI16
aI67
aI67
aI678
aI36
aI101
aI101
aI101
aI101
aI13
aI101
aI36
aI190
aI101
aI92
aI67
aI371
aI101
aI36
aI36
aI67
aI101
aI16
aI101
aI13
aI6
aI101
aI67
aI16
aI13
aI6
aI13
aI371
aI67
aI36
aI36
aI67
aI101
aI36
aI67
aI13
aI169
aI13
aI101
aI169
aI13
aI13
aI13
aI6
aI13
aI13
aI101
aI6
aI13
aI6
aI498
aI371
aI20
aI596
aI190
aI596
aI20
aI101
aI678
aI13
aI36
aI67
aI101
aI101
aI169
aI36
aI67
aI101
aI67
aI371
aI36
aI101
aI13
aI36
aI36
aI190
aI101
aI101
aI101
aI169
aI101
aI13
aI16
aI13
aI169
aI67
aI20
aI67
aI67
aI572
aI67
aI13
aI13
aI67
aI190
aI101
aI36
aI169
aI92
aI371
aI67
aI36
aI13
aI13
aI101
aI684
aI371
aI92
aI101
aI101
aI67
aI6
aI101
aI67
aI36
aI36
aI101
aI101
aI13
aI101
aI13
aI13
aI498
aI322
aI101
aI101
aI67
aI36
aI36
aI13
aI36
aI67
aI20
aI36
aI36
aI13
aI101
aI6
aI101
aI101
aI169
aI204
aI36
aI13
aI101
aI67
aI92
aI36
aI13
aI67
aI169
aI13
aI101
aI572
aI13
aI1486
aI6
aI20
aI169
aI13
aI101
aI20
aI13
aI36
aI36
aI13
aI13
aI101
aI572
aI101
aI67
aI20
aI101
aI67
aI293
aI204
aI13
aI101
aI67
aI101
aI101
aI190
aI36
aI36
aI92
aI20
aI371
aI101
aI169
aI67
aI13
aI169
aI101
aI13
aI36
aI339
aI13
aI101
aI67
aI1134
aI13
asS'WP$'
p45
(lp46
I160
aI160
aI160
aI160
aI160
aI160
aI160
aI160
aI160
aI160
aI160
aI160
aI160
aI160
aI160
aI160
aI160
aI160
aI160
aI160
aI160
aI160
aI160
aI160
aI160
aI160
aI160
aI160
aI160
aI160
aI160
aI160
aI160
aI160
aI160
aI160
aI160
aI160
asS'MD'
p47
(lp48
I9
aI17
aI9
aI84
aI104
aI84
aI17
aI104
aI240
aI104
aI328
aI104
aI104
aI446
aI17
aI446
aI84
aI446
aI17
aI517
aI240
aI575
aI17
aI17
aI17
aI9
aI575
aI84
aI84
aI517
aI17
aI575
aI240
aI104
aI328
aI517
aI17
aI17
aI84
aI446
aI84
aI84
aI575
aI575
aI84
aI104
aI84
aI17
aI575
aI104
aI104
aI9
aI240
aI446
aI446
aI104
aI446
aI575
aI575
aI575
aI84
aI446
aI575
aI575
aI240
aI240
aI84
aI446
aI17
aI575
aI1343
aI84
aI446
aI575
aI446
aI1343
aI240
aI104
aI446
aI104
aI517
aI517
aI17
aI517
aI575
aI517
aI240
aI517
aI9
aI84
aI84
aI575
aI1343
aI575
aI17
aI104
aI575
aI17
aI84
aI575
aI84
aI84
aI575
aI104
aI575
aI84
aI84
aI84
aI84
aI84
aI84
aI84
aI17
aI9
aI446
aI17
aI446
aI104
aI17
aI446
aI104
aI328
aI328
aI9
aI84
aI17
aI104
aI17
aI84
aI84
aI84
aI84
aI104
aI1343
aI84
aI84
aI84
aI575
aI575
aI9
aI446
aI517
aI17
aI17
aI17
aI17
aI17
aI575
aI84
aI1343
aI84
aI517
aI17
aI17
aI17
aI17
aI575
aI517
aI517
aI446
aI17
aI240
aI240
aI84
aI84
aI575
aI104
aI446
aI240
aI104
aI104
aI104
aI104
aI1343
aI84
aI575
aI9
aI104
aI84
aI1343
aI104
aI84
aI240
aI575
aI84
aI84
aI84
aI84
aI84
aI575
aI9
aI9
aI84
aI517
aI575
aI575
aI17
aI575
aI84
aI1343
aI575
aI104
aI104
aI104
aI104
aI104
aI104
aI84
aI17
aI240
aI84
aI9
aI104
aI104
aI84
aI446
aI575
aI1343
aI17
aI17
aI104
aI1343
aI575
aI104
aI9
aI328
aI328
aI9
aI84
aI517
aI575
aI575
aI575
aI446
aI517
aI575
aI446
aI446
aI240
aI517
aI9
aI328
aI84
aI104
aI104
aI104
aI240
aI84
aI328
aI17
aI9
aI9
aI17
aI17
aI517
aI240
aI9
aI240
aI17
aI446
aI240
aI84
aI575
aI328
aI9
aI84
aI104
aI9
aI17
aI17
aI517
aI104
aI240
aI104
aI104
aI104
aI2951
aI2951
aI104
aI104
aI104
aI104
aI84
aI104
aI104
aI104
aI104
aI104
aI2951
aI2951
aI104
aI104
aI2951
aI104
aI240
aI104
aI17
aI9
aI9
aI575
aI9
aI9
aI17
aI17
aI9
aI446
aI575
aI446
aI517
aI104
aI104
aI517
aI446
aI84
aI84
aI84
aI575
aI575
aI17
aI575
aI9
aI446
aI517
aI9
aI84
aI104
aI104
aI575
aI517
aI517
aI1343
aI3295
aI104
aI84
aI575
aI84
aI446
aI17
aI9
aI446
aI9
aI446
aI446
aI104
aI517
aI104
aI446
aI446
aI446
aI84
aI446
aI84
aI9
aI446
aI575
aI446
aI575
aI104
aI328
aI17
aI1343
aI575
aI1343
aI104
aI3295
aI9
aI3295
aI104
aI104
aI104
aI240
aI17
aI104
aI104
aI84
aI104
aI9
aI446
aI104
aI446
aI17
aI84
aI17
aI84
aI84
aI84
aI84
aI84
aI84
aI84
aI84
aI104
aI446
aI517
aI446
aI17
aI17
aI575
aI446
aI446
aI517
aI575
aI1343
aI575
aI17
aI104
aI575
aI1343
aI575
aI84
aI84
aI104
aI84
aI446
aI446
aI446
aI84
aI1343
aI104
aI575
aI575
aI104
aI446
aI104
aI446
aI104
aI104
aI104
aI104
aI446
aI84
aI84
aI84
aI104
aI446
aI104
aI575
aI104
aI575
aI575
aI575
aI517
aI104
aI104
aI84
aI104
aI104
aI240
aI1343
aI104
aI328
aI517
aI104
aI104
aI84
aI84
aI517
aI84
aI17
aI17
aI517
aI104
aI104
aI104
aI104
aI446
aI104
aI446
aI446
aI104
aI446
aI575
aI84
aI575
aI17
aI575
aI517
aI104
aI446
aI104
aI9
aI17
aI3295
aI84
aI84
aI575
aI104
aI328
aI84
aI104
aI446
aI446
aI446
aI3295
aI517
aI84
aI446
aI84
aI446
aI9
aI104
aI84
aI575
aI446
aI84
aI84
aI9
aI575
aI446
aI446
aI446
aI84
aI84
aI84
aI84
aI84
aI446
aI328
aI517
aI575
aI84
aI104
aI104
aI104
aI328
aI84
aI84
aI575
aI1343
aI575
aI328
aI1343
aI84
aI517
aI517
aI3295
aI575
aI575
asS'JJS'
p49
(lp50
I477
aI497
aI529
aI477
aI477
aI776
aI477
aI814
aI529
aI477
aI497
aI477
aI1313
aI529
aI529
aI529
aI477
aI1541
aI477
aI529
aI529
aI1313
aI1313
aI1313
aI529
aI529
aI477
aI814
aI477
aI477
aI477
aI477
aI529
aI1313
aI814
aI529
aI477
aI814
aI814
aI497
aI477
aI529
aI529
aI529
aI477
aI477
aI477
aI529
aI529
aI477
aI477
aI477
aI477
aI529
aI477
aI477
aI2658
aI497
aI497
aI477
aI477
aI814
aI529
aI529
aI529
aI1313
aI1313
aI529
aI529
aI814
aI1313
aI477
aI3232
aI3275
aI477
aI477
aI529
aI477
aI3348
aI3352
aI477
aI477
aI3452
aI497
aI477
aI477
aI497
aI477
aI477
aI3815
aI3348
aI477
aI3877
aI477
aI477
aI529
aI529
aI3924
aI529
aI477
aI529
aI529
aI529
aI477
aI477
aI4043
aI4046
aI477
aI477
aI477
aI529
aI477
aI477
aI497
aI477
aI477
aI477
aI477
aI477
aI477
aI477
aI477
aI4236
aI1541
aI477
aI497
asS'JJR'
p51
(lp52
I1072
aI1380
aI1380
aI1774
aI1072
aI1380
aI1774
aI1774
aI1774
aI1774
aI2560
aI1380
aI1380
aI1380
aI1380
aI1380
aI1380
aI1380
aI3899
aI1380
aI1380
aI1774
aI1380
aI1380
aI1380
aI4287
as.